(lp1
(dp2
S'RegistrationType'
p3
ccopy_reg
_reconstructor
p4
(csuds.sax.text
Text
p5
c__builtin__
unicode
p6
VCorporate - Gold
tRp7
(dp8
S'lang'
p9
NsS'escaped'
p10
I00
sbsS'ID'
p11
S'a5473380-988a-45fc-afd9-0f1f465b311d'
p12
sS'SponsorID'
p13
I77845613
sS'RegTypeID'
p14
I223381
sS'badge_type'
p15
S'booth'
p16
sS'created_date'
p17
cdatetime
datetime
p18
(S'\x07\xdf\x02\x02\t\x0c\x07\x02eH'
tRp19
sS'regonline_str'
p20
S'-100%'
p21
sS'code_source'
p22
g7
sS'discount_code'
p23
S'ccntwk3aa3'
p24
sS'quantity'
p25
I3
sa(dp26
g3
g7
sg11
S'8b0b588c-5296-4cc3-9c29-49f0d0f2bfe4'
p27
sg13
I77845613
sg14
I223381
sg15
S'general_full'
p28
sg17
g19
sg20
g21
sg22
g7
sg23
S'ccntrynaa5'
p29
sg25
I5
sa(dp30
g3
g4
(g5
g6
VABI Partners Only - Diamond
tRp31
(dp32
g9
Nsg10
I00
sbsg11
S'4756d95f-4f41-445d-b2b0-a72a3f230da2'
p33
sg13
I77845651
sg14
I223379
sg15
g28
sg17
g18
(S'\x07\xdf\x02\x02\t\x0b\x05\x00\x80\xe8'
tRp34
sg20
g21
sg22
g31
sg23
S'cptngg2a2a'
p35
sg25
I20
sa(dp36
g3
g31
sg11
S'82fd004a-2ddc-47f5-a273-e7e75addb4ad'
p37
sg13
I77845651
sg14
I223379
sg15
g28
sg17
g34
sg20
g21
sg22
S'Enterprise Pack'
p38
sg23
S'cptndqcaba'
p39
sg25
I10
sa(dp40
g3
g31
sg11
S'191dd507-d865-4e36-b97b-0ce9517ce933'
p41
sg13
I77845651
sg14
I223379
sg15
g28
sg17
g34
sg20
g21
sg22
g38
sg23
S'cptnwjraba'
p42
sg25
I10
sa(dp43
g3
g31
sg11
S'0179ce5b-1b47-4af3-ad23-855b8c886a53'
p44
sg13
I77845651
sg14
I223379
sg15
g28
sg17
g34
sg20
g21
sg22
g38
sg23
S'cptn2z9aba'
p45
sg25
I10
sa(dp46
g3
g31
sg11
S'a5438daa-c8bf-40df-b2a0-4fc444da80fb'
p47
sg13
I77845651
sg14
I223379
sg15
g28
sg17
g34
sg20
g21
sg22
g38
sg23
S'cptncmdaba'
p48
sg25
I10
sa(dp49
g3
g31
sg11
S'c21a67a6-09ce-4f37-820a-ea85939dc370'
p50
sg13
I77845651
sg14
I223379
sg15
g28
sg17
g34
sg20
g21
sg22
g38
sg23
S'cptn2x7aba'
p51
sg25
I10
sa(dp52
g3
g31
sg11
S'a5ddb508-e3ed-48d6-8854-b427e51e6c0c'
p53
sg13
I77845651
sg14
I223379
sg15
g28
sg17
g34
sg20
g21
sg22
g38
sg23
S'cptn2sqaba'
p54
sg25
I10
sa(dp55
g3
g31
sg11
S'8d7c85d0-389b-452c-ad91-f5df188981fe'
p56
sg13
I77845651
sg14
I223379
sg15
g28
sg17
g34
sg20
g21
sg22
g38
sg23
S'cptnkssaba'
p57
sg25
I10
sa(dp58
g3
g31
sg11
S'cabfc41b-2976-4f9a-be29-8bc44671fd05'
p59
sg13
I77845651
sg14
I223379
sg15
g28
sg17
g34
sg20
g21
sg22
g38
sg23
S'cptn96waba'
p60
sg25
I10
sa(dp61
g3
g31
sg11
S'469c47c9-5c98-4168-8598-9cd76ba4edff'
p62
sg13
I77845651
sg14
I223379
sg15
g28
sg17
g34
sg20
g21
sg22
g38
sg23
S'cptngp6aba'
p63
sg25
I10
sa(dp64
g3
g31
sg11
S'a55c5d69-4e73-4dc6-b0e1-a3b0a3e25d0f'
p65
sg13
I77845651
sg14
I223379
sg15
g28
sg17
g34
sg20
g21
sg22
g38
sg23
S'cptnqbxaba'
p66
sg25
I10
sa(dp67
g3
g31
sg11
S'782b8b12-351e-470d-8c12-6ad14d172b0b'
p68
sg13
I77845651
sg14
I223379
sg15
g28
sg17
g34
sg20
g21
sg22
g38
sg23
S'cptny4daba'
p69
sg25
I10
sa(dp70
g3
g31
sg11
S'37d184ea-aa8a-48ab-85a2-4fbee6d6817d'
p71
sg13
I77845651
sg14
I223379
sg15
g28
sg17
g34
sg20
g21
sg22
g38
sg23
S'cptncbqaba'
p72
sg25
I10
sa(dp73
g3
g31
sg11
S'068d41b7-7a84-45a8-813c-69b8e319a163'
p74
sg13
I77845651
sg14
I223379
sg15
g16
sg17
g34
sg20
g21
sg22
g31
sg23
S'cptnj56aa8'
p75
sg25
I8
sa(dp76
g3
g4
(g5
g6
VCorporate - Silver
tRp77
(dp78
g9
Nsg10
I00
sbsg11
S'c7af3a31-6548-4cc8-8f32-4d03e3869c28'
p79
sg13
I77866379
sg14
I223382
sg15
g28
sg17
g18
(S'\x07\xdf\x02\x02\x0e\x0e\x1f\x05\xf3p'
tRp80
sg20
g21
sg22
g77
sg23
S'mngdyrdaa3'
p81
sg25
I3
sa(dp82
g3
g77
sg11
S'76699f6f-a311-4249-9659-ce400284f6d4'
p83
sg13
I77866379
sg14
I223382
sg15
g16
sg17
g80
sg20
g21
sg22
g77
sg23
S'mngdj7daa2'
p84
sg25
I2
sa(dp85
g3
g4
(g5
g6
VCorporate - Gold
tRp86
(dp87
g9
Nsg10
I00
sbsg11
S'b6515de3-0059-436f-8c35-17f1159f6107'
p88
sg13
I77874390
sg14
I223381
sg15
g16
sg17
g18
(S'\x07\xdf\x02\x02\x107)\x0b\xdb('
tRp89
sg20
g21
sg22
g86
sg23
S'gsft5q2aa3'
p90
sg25
I3
sa(dp91
g3
g86
sg11
S'7d7eacdb-735e-40ec-833e-33024dda4470'
p92
sg13
I77874390
sg14
I223381
sg15
g28
sg17
g89
sg20
g21
sg22
g86
sg23
S'gsftyjsaa5'
p93
sg25
I5
sa(dp94
g3
g4
(g5
g6
VCorporate - Gold
tRp95
(dp96
g9
Nsg10
I00
sbsg11
S'dc82e22c-c3f6-4d02-bfce-aa733e26284d'
p97
sg13
I77902004
sg14
I223381
sg15
g16
sg17
g18
(S'\x07\xdf\x02\x03\n\x00\x12\x00ix'
tRp98
sg20
g21
sg22
g95
sg23
S'pntrnxjaa3'
p99
sg25
I3
sa(dp100
g3
g95
sg11
S'3bba028c-a838-4ff0-9b87-6801747ee9ed'
p101
sg13
I77902004
sg14
I223381
sg15
g28
sg17
g98
sg20
g21
sg22
g95
sg23
S'pntr5c3aa5'
p102
sg25
I5
sa(dp103
g3
g4
(g5
g6
VABI Partners Only - Platinum
tRp104
(dp105
g9
Nsg10
I00
sbsg11
S'9fe365fd-9ef9-4911-b1b4-cc979e672257'
p106
sg13
I77904414
sg14
I223380
sg15
g16
sg17
g18
(S'\x07\xdf\x02\x03\x0c\x02\x1b\x03@\x08'
tRp107
sg20
g21
sg22
g104
sg23
S'mcaajcraa4'
p108
sg25
I4
sa(dp109
g3
g104
sg11
S'b34b0ca7-a37e-4257-86eb-bafaf287f6c4'
p110
sg13
I77904414
sg14
I223380
sg15
g28
sg17
g107
sg20
g21
sg22
g104
sg23
S'mcaaq2paba'
p111
sg25
I10
sa(dp112
g3
g104
sg11
S'9306b81d-22fe-4dfb-bfb7-c994c9eba478'
p113
sg13
I77904414
sg14
I223380
sg15
g28
sg17
g107
sg20
g21
sg22
g38
sg23
S'mcaa3zjaba'
p114
sg25
I10
sa(dp115
g3
g4
(g5
g6
VCorporate - Gold
tRp116
(dp117
g9
Nsg10
I00
sbsg11
S'6f61c7a7-a42b-4bff-80ff-c117874acc70'
p118
sg13
I77928319
sg14
I223381
sg15
g16
sg17
g18
(S'\x07\xdf\x02\x03\x13\x15\x00\r\xbb\xa0'
tRp119
sg20
g21
sg22
g116
sg23
S'mrgnjmnaa3'
p120
sg25
I3
sa(dp121
g3
g116
sg11
S'7859884c-9e18-4aa3-b772-b34697b40db6'
p122
sg13
I77928319
sg14
I223381
sg15
g28
sg17
g119
sg20
g21
sg22
g116
sg23
S'mrgnnvcaa5'
p123
sg25
I5
sa(dp124
g3
g4
(g5
g6
VCorporate - Gold
tRp125
(dp126
g9
Nsg10
I00
sbsg11
S'cbcfe501-caa4-4ee2-88b3-06e19121195a'
p127
sg13
I78012105
sg14
I223381
sg15
g16
sg17
g18
(S'\x07\xdf\x02\x05\x0f\x0e.\x01\x86\xa0'
tRp128
sg20
g21
sg22
g125
sg23
S'mcysbg6aa3'
p129
sg25
I3
sa(dp130
g3
g125
sg11
S'5ba2ea55-6f33-475b-bb58-82f55a06b594'
p131
sg13
I78012105
sg14
I223381
sg15
g28
sg17
g128
sg20
g21
sg22
g125
sg23
S'mcys2j6aa5'
p132
sg25
I5
sa(dp133
g3
g4
(g5
g6
VABI Partners Only - Platinum
tRp134
(dp135
g9
Nsg10
I00
sbsg11
S'c0912ea1-d4c8-412a-a16d-5e5a7b13ead8'
p136
sg13
I78012883
sg14
I223380
sg15
g28
sg17
g18
(S'\x07\xdf\x02\x05\x0e#,\n\x12 '
tRp137
sg20
g21
sg22
g134
sg23
S'jnpr6jraba'
p138
sg25
I10
sa(dp139
g3
g134
sg11
S'f428e9fa-3dcd-44b9-ae5b-f5edd8496484'
p140
sg13
I78012883
sg14
I223380
sg15
g16
sg17
g137
sg20
g21
sg22
g134
sg23
S'jnprd82aa4'
p141
sg25
I4
sa(dp142
g3
g4
(g5
g6
VCorporate - Gold
tRp143
(dp144
g9
Nsg10
I00
sbsg11
S'b52b6644-458c-4ba9-a255-f4f2d3ec7703'
p145
sg13
I78038806
sg14
I223381
sg15
g16
sg17
g18
(S'\x07\xdf\x02\x06\t\x00:\x0eL('
tRp146
sg20
g21
sg22
g143
sg23
S'jhns8mgaa3'
p147
sg25
I3
sa(dp148
g3
g143
sg11
S'7633b4f6-9469-426c-9469-2a686e588961'
p149
sg13
I78038806
sg14
I223381
sg15
g28
sg17
g146
sg20
g21
sg22
g143
sg23
S'jhnsht7aa5'
p150
sg25
I5
sa(dp151
g3
g4
(g5
g6
VCorporate - Gold
tRp152
(dp153
g9
Nsg10
I00
sbsg11
S'e8fa6b40-ac1f-41d9-9ac7-712d72f4e2ab'
p154
sg13
I78187521
sg14
I223381
sg15
g16
sg17
g18
(S'\x07\xdf\x02\n\x0f\t3\tN\xd0'
tRp155
sg20
g21
sg22
g152
sg23
S'trvr5qnaa3'
p156
sg25
I3
sa(dp157
g3
g152
sg11
S'70593be0-316d-4a25-9f1c-47a28db1a014'
p158
sg13
I78187521
sg14
I223381
sg15
g28
sg17
g155
sg20
g21
sg22
g152
sg23
S'trvrzhdaa5'
p159
sg25
I5
sa(dp160
g3
g4
(g5
g6
VCorporate - Silver
tRp161
(dp162
g9
Nsg10
I00
sbsg11
S'2f262598-e04d-4fe2-855a-cd062b7a05e5'
p163
sg13
I78262005
sg14
I223382
sg15
g28
sg17
g18
(S"\x07\xdf\x02\x0c\x081'\n\x93\x08"
tRp164
sg20
g21
sg22
g161
sg23
S'knwtqrnaa3'
p165
sg25
I3
sa(dp166
g3
g161
sg11
S'bb9cb022-b2a0-4599-ab3f-335ebb72c406'
p167
sg13
I78262005
sg14
I223382
sg15
g16
sg17
g164
sg20
g21
sg22
g161
sg23
S'knwt2vzaa2'
p168
sg25
I2
sa(dp169
g3
g4
(g5
g6
VCorporate - Gold
tRp170
(dp171
g9
Nsg10
I00
sbsg11
S'fa701c1b-520d-4c8c-9524-e5e24b522903'
p172
sg13
I78262635
sg14
I223381
sg15
g16
sg17
g18
(S'\x07\xdf\x02\x0c\t\r\x07\x06h\xa0'
tRp173
sg20
g21
sg22
g170
sg23
S'mchm35gaa3'
p174
sg25
I3
sa(dp175
g3
g170
sg11
S'4b9210ee-a85c-407d-863e-eeec9d315007'
p176
sg13
I78262635
sg14
I223381
sg15
g28
sg17
g173
sg20
g21
sg22
g170
sg23
S'mchmn2kaa5'
p177
sg25
I5
sa(dp178
g3
g4
(g5
g6
VCorporate - Silver
tRp179
(dp180
g9
Nsg10
I00
sbsg11
S'eda3e04e-3c8c-4591-b733-88778e010791'
p181
sg13
I78269185
sg14
I223382
sg15
g28
sg17
g18
(S'\x07\xdf\x02\x0c\x0b\x03\x1d\x01_\x90'
tRp182
sg20
g21
sg22
g179
sg23
S'dshwkyyaa3'
p183
sg25
I3
sa(dp184
g3
g179
sg11
S'cf312140-e703-4c77-968b-c3dacc5f1b83'
p185
sg13
I78269185
sg14
I223382
sg15
g16
sg17
g182
sg20
g21
sg22
g179
sg23
S'dshwddnaa2'
p186
sg25
I2
sa(dp187
g3
g4
(g5
g6
VABI Partners Only - Platinum
tRp188
(dp189
g9
Nsg10
I00
sbsg11
S'266e8e9f-039c-4839-8876-0432d7965d9e'
p190
sg13
I78412181
sg14
I223380
sg15
g28
sg17
g18
(S'\x07\xdf\x02\x11\t\x1d\x12\x05\x99\x98'
tRp191
sg20
g21
sg22
g188
sg23
S'ntppx9waba'
p192
sg25
I10
sa(dp193
g3
g188
sg11
S'914750f9-3006-4cf0-8ab1-cb10fbc9d29b'
p194
sg13
I78412181
sg14
I223380
sg15
g16
sg17
g191
sg20
g21
sg22
g188
sg23
S'ntpppvjaa4'
p195
sg25
I4
sa(dp196
g3
g4
(g5
g6
VCorporate - Silver
tRp197
(dp198
g9
Nsg10
I00
sbsg11
S'a799ed53-1e61-4ee3-8506-31b67d526a9e'
p199
sg13
I78465630
sg14
I223382
sg15
g28
sg17
g18
(S'\x07\xdf\x02\x12\x0c\x02\x00\x07\xfa\xf8'
tRp200
sg20
g21
sg22
g197
sg23
S'mrkgcw6aa3'
p201
sg25
I3
sa(dp202
g3
g197
sg11
S'86d49dbd-43f5-4183-938e-26dcaac2aecb'
p203
sg13
I78465630
sg14
I223382
sg15
g16
sg17
g200
sg20
g21
sg22
g197
sg23
S'mrkgyd5aa2'
p204
sg25
I2
sa(dp205
g3
g4
(g5
g6
VABI Partners Only - Platinum
tRp206
(dp207
g9
Nsg10
I00
sbsg11
S'f9a11b97-06ba-434b-a105-13242d581048'
p208
sg13
I78562705
sg14
I223380
sg15
g28
sg17
g18
(S"\x07\xdf\x02\x14\x0e''\x07 8"
tRp209
sg20
g21
sg22
g206
sg23
S'drpb2rjaba'
p210
sg25
I10
sa(dp211
g3
g206
sg11
S'92f7fbbf-6e08-4547-9a28-3e604f652285'
p212
sg13
I78562705
sg14
I223380
sg15
g16
sg17
g209
sg20
g21
sg22
g206
sg23
S'drpbdvnaa4'
p213
sg25
I4
sa(dp214
g3
g4
(g5
g6
VCorporate - Gold
tRp215
(dp216
g9
Nsg10
I00
sbsg11
S'6140ce88-9be4-4ead-825e-7b48ae295b16'
p217
sg13
I78603554
sg14
I223381
sg15
g16
sg17
g18
(S'\x07\xdf\x02\x16\x17\x1e\t\x0bVX'
tRp218
sg20
g21
sg22
g215
sg23
S'ntstc65aa3'
p219
sg25
I3
sa(dp220
g3
g215
sg11
S'a2af46dd-ee9c-46bb-9972-bce433ac57d8'
p221
sg13
I78603554
sg14
I223381
sg15
g28
sg17
g218
sg20
g21
sg22
g215
sg23
S'ntstmn4aa5'
p222
sg25
I5
sa(dp223
g3
g4
(g5
g6
VCorporate - Silver
tRp224
(dp225
g9
Nsg10
I00
sbsg11
S'30370f3e-24ce-4cc3-8eec-1dfdc4d46ddc'
p226
sg13
I78623682
sg14
I223382
sg15
g28
sg17
g18
(S'\x07\xdf\x02\x17\x0b,\x17\x0f6\x88'
tRp227
sg20
g21
sg22
g224
sg23
S'fryaw27aa3'
p228
sg25
I3
sa(dp229
g3
g224
sg11
S'97048db8-2228-42ed-ace7-1eff4ee684f6'
p230
sg13
I78623682
sg14
I223382
sg15
g16
sg17
g227
sg20
g21
sg22
g224
sg23
S'fryagbwaa2'
p231
sg25
I2
sa(dp232
g3
g4
(g5
g6
VCorporate - Silver
tRp233
(dp234
g9
Nsg10
I00
sbsg11
S'faac4dc4-b477-495d-b604-fc18d7454a0f'
p235
sg13
I78637801
sg14
I223382
sg15
g28
sg17
g18
(S'\x07\xdf\x02\x17\x0e*\r\x08=`'
tRp236
sg20
g21
sg22
g233
sg23
S'bmrcccnaa3'
p237
sg25
I3
sa(dp238
g3
g233
sg11
S'6435bb59-b9e7-4846-830a-ef3ea01d8cef'
p239
sg13
I78637801
sg14
I223382
sg15
g16
sg17
g236
sg20
g21
sg22
g233
sg23
S'bmrccnpaa2'
p240
sg25
I2
sa(dp241
g3
g4
(g5
g6
VCorporate - Silver
tRp242
(dp243
g9
Nsg10
I00
sbsg11
S'9ab1b149-4178-4107-99ce-d65ed059b148'
p244
sg13
I78731228
sg14
I223382
sg15
g28
sg17
g18
(S'\x07\xdf\x02\x19\x0c)\x06\x01\xd4\xc0'
tRp245
sg20
g21
sg22
g242
sg23
S'prstv3jaa3'
p246
sg25
I3
sa(dp247
g3
g242
sg11
S'73cc0c69-082d-438e-b1e0-974e35a4fa7d'
p248
sg13
I78731228
sg14
I223382
sg15
g16
sg17
g245
sg20
g21
sg22
g242
sg23
S'prst5yvaa2'
p249
sg25
I2
sa(dp250
g3
g4
(g5
g6
VCorporate - Gold
tRp251
(dp252
g9
Nsg10
I00
sbsg11
S'5800681e-e2d3-4f47-9def-1e54ec81339e'
p253
sg13
I78735834
sg14
I223381
sg15
g16
sg17
g18
(S'\x07\xdf\x02\x19\x0e\x023\x02\xb3h'
tRp254
sg20
g21
sg22
g251
sg23
S'symnfrtaa3'
p255
sg25
I3
sa(dp256
g3
g251
sg11
S'56d2f661-8645-487a-8fb9-e651f61831b9'
p257
sg13
I78735834
sg14
I223381
sg15
g28
sg17
g254
sg20
g21
sg22
g251
sg23
S'symnbzvaa5'
p258
sg25
I5
sa(dp259
g3
g4
(g5
g6
VABI Partners Only - Platinum
tRp260
(dp261
g9
Nsg10
I00
sbsg11
S'114a4d1a-ce5d-490a-ba1a-06734c728bf3'
p262
sg13
I78943484
sg14
I223380
sg15
g28
sg17
g18
(S'\x07\xdf\x03\x02\x12*\x1c\x077\xa8'
tRp263
sg20
g21
sg22
g260
sg23
S'ntaapbmaba'
p264
sg25
I10
sa(dp265
g3
g260
sg11
S'1baa1ad2-3a4a-4f53-aab8-70c8e7988000'
p266
sg13
I78943484
sg14
I223380
sg15
g16
sg17
g263
sg20
g21
sg22
g260
sg23
S'ntaa3pvaa4'
p267
sg25
I4
sa(dp268
g3
g4
(g5
g6
VCorporate - Silver
tRp269
(dp270
g9
Nsg10
I00
sbsg11
S'1a2f3f63-7271-46b1-9215-bdc73dee5b2f'
p271
sg13
I79019098
sg14
I223382
sg15
g28
sg17
g18
(S'\x07\xdf\x03\x04\t\x03\x14\x0c\x8e\xd8'
tRp272
sg20
g21
sg22
g269
sg23
S'trwpvb3aa3'
p273
sg25
I3
sa(dp274
g3
g269
sg11
S'f9a4387d-3fcd-4ddd-a8b5-30b394a58fcb'
p275
sg13
I79019098
sg14
I223382
sg15
g16
sg17
g272
sg20
g21
sg22
g269
sg23
S'trwp5kbaa2'
p276
sg25
I2
sa(dp277
g3
g4
(g5
g6
VCorporate - Silver
tRp278
(dp279
g9
Nsg10
I00
sbsg11
S'79254bb7-072f-490f-a003-d144d9d4ef13'
p280
sg13
I79027154
sg14
I223382
sg15
g28
sg17
g18
(S'\x07\xdf\x03\x04\x0b\x15\x0c\n\xfc\x80'
tRp281
sg20
g21
sg22
g278
sg23
S'hbspsg8aa3'
p282
sg25
I3
sa(dp283
g3
g278
sg11
S'26a883fa-47e0-4f62-ad7b-3ebb2648763a'
p284
sg13
I79027154
sg14
I223382
sg15
g16
sg17
g281
sg20
g21
sg22
g278
sg23
S'hbspms8aa2'
p285
sg25
I2
sa(dp286
g3
g4
(g5
g6
VCorporate - Gold
tRp287
(dp288
g9
Nsg10
I00
sbsg11
S'30088280-90d7-445e-895d-10ed5eec4d14'
p289
sg13
I79043680
sg14
I223381
sg15
g16
sg17
g18
(S'\x07\xdf\x03\x04\x10\x0c\x1e\x05b\xe8'
tRp290
sg20
g21
sg22
g287
sg23
S'ypaanvdaa3'
p291
sg25
I3
sa(dp292
g3
g287
sg11
S'715de0bb-4bab-4d65-b4fe-fbf723354187'
p293
sg13
I79043680
sg14
I223381
sg15
g28
sg17
g290
sg20
g21
sg22
g287
sg23
S'ypaanq3aa5'
p294
sg25
I5
sa(dp295
g3
g4
(g5
g6
VCorporate - Gold
tRp296
(dp297
g9
Nsg10
I00
sbsg11
S'74e78c77-eaff-4023-a406-f57a66471a43'
p298
sg13
I79141580
sg14
I223381
sg15
g16
sg17
g18
(S'\x07\xdf\x03\x06\x0f\x15\x12\x06\xf9('
tRp299
sg20
g21
sg22
g296
sg23
S'ssfrk4gaa3'
p300
sg25
I3
sa(dp301
g3
g296
sg11
S'702a3799-c43b-49c0-a055-129037efd9de'
p302
sg13
I79141580
sg14
I223381
sg15
g28
sg17
g299
sg20
g21
sg22
g296
sg23
S'ssfrgmjaa5'
p303
sg25
I5
sa(dp304
g3
g296
sg11
S'f1ec0532-0dda-4535-891f-bc4b4fefb86e'
p305
sg13
I79141580
sg14
I223381
sg15
g28
sg17
g299
sg20
g21
sg22
g38
sg23
S'ssfrm6taba'
p306
sg25
I10
sa(dp307
g3
g296
sg11
S'4038ea33-c697-4b90-919f-748c8e585dff'
p308
sg13
I79141580
sg14
I223381
sg15
g28
sg17
g299
sg20
g21
sg22
g38
sg23
S'ssfrcb7aba'
p309
sg25
I10
sa(dp310
g3
g4
(g5
g6
VLab & Non-Profit - Bronze
tRp311
(dp312
g9
Nsg10
I00
sbsg11
S'a642e878-0d1f-4cdd-8e94-2bd7beb36f07'
p313
sg13
I79177074
sg14
I226853
sg15
g28
sg17
g18
(S'\x07\xdf\x03\x08\x12\x13\x11\x05\xd8\x18'
tRp314
sg20
g21
sg22
g311
sg23
S'bckg8yzaab'
p315
sg25
I1
sa(dp316
g3
g4
(g5
g6
VCorporate - Gold
tRp317
(dp318
g9
Nsg10
I00
sbsg11
S'3163199f-0812-4843-afe1-e7994919ee62'
p319
sg13
I79196510
sg14
I223381
sg15
g16
sg17
g18
(S'\x07\xdf\x03\t\x08#/\tZ\x88'
tRp320
sg20
g21
sg22
g317
sg23
S'sttf4ksaa3'
p321
sg25
I3
sa(dp322
g3
g317
sg11
S'5e5e2c59-a243-4216-8e6a-c1d1e0f9c8e6'
p323
sg13
I79196510
sg14
I223381
sg15
g28
sg17
g320
sg20
g21
sg22
g317
sg23
S'sttfy5gaa5'
p324
sg25
I5
sa(dp325
g3
g4
(g5
g6
VCorporate - Gold
tRp326
(dp327
g9
Nsg10
I00
sbsg11
S'c84cc511-d919-4444-832d-5ee93f64fba7'
p328
sg13
I79208313
sg14
I223381
sg15
g16
sg17
g18
(S"\x07\xdf\x03\t\x0b'\x13\x00\xea`"
tRp329
sg20
g21
sg22
g326
sg23
S'bnym4vnaa3'
p330
sg25
I3
sa(dp331
g3
g326
sg11
S'5f015516-113c-4002-b7a4-9f18b7030c18'
p332
sg13
I79208313
sg14
I223381
sg15
g28
sg17
g329
sg20
g21
sg22
g326
sg23
S'bnym2y7aa5'
p333
sg25
I5
sa(dp334
g3
g4
(g5
g6
VABI Partners Only - Platinum
tRp335
(dp336
g9
Nsg10
I00
sbsg11
S'48411b45-05e1-462f-ad1e-abe7df68ffb8'
p337
sg13
I79217975
sg14
I223380
sg15
g16
sg17
g18
(S'\x07\xdf\x03\t\x0e\x11\x17\x01\xf0\x18'
tRp338
sg20
g21
sg22
g335
sg23
S'ctch7ztaa4'
p339
sg25
I4
sa(dp340
g3
g335
sg11
S'523fc60a-7421-4a5a-b3e5-6fcabcd07714'
p341
sg13
I79217975
sg14
I223380
sg15
g28
sg17
g338
sg20
g21
sg22
g335
sg23
S'ctchgdbaba'
p342
sg25
I10
sa(dp343
g3
g335
sg11
S'b2b9db07-833c-40b8-89d3-76de6878fa10'
p344
sg13
I79217975
sg14
I223380
sg15
g28
sg17
g338
sg20
g21
sg22
g38
sg23
S'ctchskbaba'
p345
sg25
I10
sa(dp346
g3
g4
(g5
g6
VAcademic - Silver
tRp347
(dp348
g9
Nsg10
I00
sbsg11
S'f54b8fb0-c8a0-49fe-a7a3-3f48643155db'
p349
sg13
I79255748
sg14
I223384
sg15
S'academic_full'
p350
sg17
g18
(S'\x07\xdf\x03\n\n+\x04\x04\x1e\xb0'
tRp351
sg20
g21
sg22
g347
sg23
S'tdsaw66aa2'
p352
sg25
I2
sa(dp353
g3
g347
sg11
S'4462129a-8f49-44a6-b2df-32d5579e8687'
p354
sg13
I79255748
sg14
I223384
sg15
S'student_15'
p355
sg17
g351
sg20
S'-15%'
p356
sg22
g347
sg23
S'tdsaydda5a'
p357
sg25
I50
sa(dp358
g3
g4
(g5
g6
VLab & Non-Profit - Gold
tRp359
(dp360
g9
Nsg10
I00
sbsg11
S'531e1dbd-9f18-4b6d-9658-56af2a772e1f'
p361
sg13
I79396333
sg14
I226851
sg15
g28
sg17
g18
(S'\x07\xdf\x03\r\t\x15\x12\nk\xf8'
tRp362
sg20
g21
sg22
g359
sg23
S'mtnc46saa3'
p363
sg25
I3
sa(dp364
g3
g4
(g5
g6
VABI Partners Only - Platinum
tRp365
(dp366
g9
Nsg10
I00
sbsg11
S'e9b8b55b-b881-4039-baf8-ea40497df98b'
p367
sg13
I79402913
sg14
I223380
sg15
g28
sg17
g18
(S'\x07\xdf\x03\r\x0b!\x07\x0e\xa6\x00'
tRp368
sg20
g21
sg22
g365
sg23
S'bnkfqmraba'
p369
sg25
I10
sa(dp370
g3
g365
sg11
S'6bad0076-cd76-4670-929c-f3c6624dab63'
p371
sg13
I79402913
sg14
I223380
sg15
g16
sg17
g368
sg20
g21
sg22
g365
sg23
S'bnkf4b2aa4'
p372
sg25
I4
sa(dp373
g3
g4
(g5
g6
VABI Partners Only - Platinum
tRp374
(dp375
g9
Nsg10
I00
sbsg11
S'3aebca85-664a-4412-9a4c-12f8eecd75b8'
p376
sg13
I79479575
sg14
I223380
sg15
g28
sg17
g18
(S'\x07\xdf\x03\x10\n!\x06\x06\x9bh'
tRp377
sg20
g21
sg22
g374
sg23
S'rckstwqaba'
p378
sg25
I10
sa(dp379
g3
g374
sg11
S'98779954-df89-48a4-a22b-c35ea7ca69eb'
p380
sg13
I79479575
sg14
I223380
sg15
g16
sg17
g377
sg20
g21
sg22
g374
sg23
S'rcks5qjaa4'
p381
sg25
I4
sa(dp382
g3
g4
(g5
g6
VCorporate - Gold
tRp383
(dp384
g9
Nsg10
I00
sbsg11
S'293b76c4-d7e0-47d5-878b-b4dd724cea5b'
p385
sg13
I79584463
sg14
I223381
sg15
g16
sg17
g18
(S'\x07\xdf\x03\x12\t\x16\x17\x06tX'
tRp386
sg20
g21
sg22
g383
sg23
S'crdtv2vaa3'
p387
sg25
I3
sa(dp388
g3
g383
sg11
S'811c2fbc-afe1-429c-82e8-71823b192c43'
p389
sg13
I79584463
sg14
I223381
sg15
g28
sg17
g386
sg20
g21
sg22
g383
sg23
S'crdtzy6aa5'
p390
sg25
I5
sa(dp391
g3
g4
(g5
g6
VABI Partners Only - Platinum
tRp392
(dp393
g9
Nsg10
I00
sbsg11
S'd3a7f980-286e-409b-b6a7-98b67ffcd69f'
p394
sg13
I79599643
sg14
I223380
sg15
g28
sg17
g18
(S'\x07\xdf\x03\x12\r4\x18\x03\xf7\xa0'
tRp395
sg20
g21
sg22
g392
sg23
S'thms9knaba'
p396
sg25
I10
sa(dp397
g3
g392
sg11
S'060de043-480f-4873-8d49-54f33072ac88'
p398
sg13
I79599643
sg14
I223380
sg15
g16
sg17
g395
sg20
g21
sg22
g392
sg23
S'thmskghaa4'
p399
sg25
I4
sa(dp400
g3
g4
(g5
g6
VCorporate - Gold
tRp401
(dp402
g9
Nsg10
I00
sbsg11
S'2e5f4885-678b-4e95-884e-701c18f61411'
p403
sg13
I79600826
sg14
I223381
sg15
g16
sg17
g18
(S'\x07\xdf\x03\x12\x0e\x02:\x0cg\xc8'
tRp404
sg20
g21
sg22
g401
sg23
S'ttaax3xaa3'
p405
sg25
I3
sa(dp406
g3
g401
sg11
S'eaa00d98-67a6-4990-94ea-2982c6628a4b'
p407
sg13
I79600826
sg14
I223381
sg15
g28
sg17
g404
sg20
g21
sg22
g401
sg23
S'ttaa6smaa5'
p408
sg25
I5
sa(dp409
g3
g4
(g5
g6
VABI Partners Only - Platinum
tRp410
(dp411
g9
Nsg10
I00
sbsg11
S'32e9d890-63bb-4caa-8d48-7fa31a4f0d14'
p412
sg13
I79609919
sg14
I223380
sg15
g28
sg17
g18
(S'\x07\xdf\x03\x12\x11\n\x04\x00\x1bX'
tRp413
sg20
g21
sg22
g410
sg23
S'vmwrpf8aba'
p414
sg25
I10
sa(dp415
g3
g410
sg11
S'160caf61-161e-4a2d-bbb6-0ecd63ae483e'
p416
sg13
I79609919
sg14
I223380
sg15
g16
sg17
g413
sg20
g21
sg22
g410
sg23
S'vmwrh8zaa4'
p417
sg25
I4
sa(dp418
g3
g4
(g5
g6
VABI Partners Only - Platinum
tRp419
(dp420
g9
Nsg10
I00
sbsg11
S'55087f09-d342-412f-80de-60f966fc0441'
p421
sg13
I79699190
sg14
I223380
sg15
g28
sg17
g18
(S'\x07\xdf\x03\x14\x0e\x1d\x01\x07\xe3\x88'
tRp422
sg20
g21
sg22
g419
sg23
S'nkdnj76aba'
p423
sg25
I10
sa(dp424
g3
g419
sg11
S'9003ebe6-e6fa-45ef-8085-e113a8d898b6'
p425
sg13
I79699190
sg14
I223380
sg15
g16
sg17
g422
sg20
g21
sg22
g419
sg23
S'nkdnn5vaa4'
p426
sg25
I4
sa(dp427
g3
g4
(g5
g6
VABI Partners Only - Platinum
tRp428
(dp429
g9
Nsg10
I00
sbsg11
S'37ca9784-7f1b-4801-877a-87ad16bc8e97'
p430
sg13
I79831298
sg14
I223380
sg15
g28
sg17
g18
(S'\x07\xdf\x03\x18\x0e\x01\x08\x01_\x90'
tRp431
sg20
g21
sg22
g428
sg23
S'fcbk7vyaba'
p432
sg25
I10
sa(dp433
g3
g428
sg11
S'46887c9f-babe-4c2a-a097-4123ae7c9088'
p434
sg13
I79831298
sg14
I223380
sg15
g16
sg17
g431
sg20
g21
sg22
g428
sg23
S'fcbkbrpaa4'
p435
sg25
I4
sa(dp436
g3
g4
(g5
g6
VAcademic - Silver
tRp437
(dp438
g9
Nsg10
I00
sbsg11
S'13c54d93-e2cd-4c13-8c51-ae2dd24b3109'
p439
sg13
I79831591
sg14
I223384
sg15
g350
sg17
g18
(S'\x07\xdf\x03\x18\x0e\x14\x1e\x07z\x10'
tRp440
sg20
g21
sg22
g437
sg23
S'dknvfh3aa2'
p441
sg25
I2
sa(dp442
g3
g437
sg11
S'45fef8ba-a872-49b1-8f99-283eeb8010aa'
p443
sg13
I79831591
sg14
I223384
sg15
g355
sg17
g440
sg20
g356
sg22
g437
sg23
S'dknv697a5a'
p444
sg25
I50
sa(dp445
g3
g4
(g5
g6
VABI Partners Only - Platinum
tRp446
(dp447
g9
Nsg10
I00
sbsg11
S'c709d79d-5dbb-4955-ac47-c659d72b8afd'
p448
sg13
I79855196
sg14
I223380
sg15
g16
sg17
g18
(S'\x07\xdf\x03\x19\x06!\x06\x03\xb58'
tRp449
sg20
g21
sg22
g446
sg23
S'hwttpj7aa4'
p450
sg25
I4
sa(dp451
g3
g446
sg11
S'e5abb511-e036-4277-96cd-c14d866cad5c'
p452
sg13
I79855196
sg14
I223380
sg15
g28
sg17
g449
sg20
g21
sg22
g446
sg23
S'hwttxjzaba'
p453
sg25
I10
sa(dp454
g3
g446
sg11
S'93a6bf5f-c5ea-4cc3-8a77-9a0b65897d3a'
p455
sg13
I79855196
sg14
I223380
sg15
g28
sg17
g449
sg20
g21
sg22
g38
sg23
S'hwtt7h6aba'
p456
sg25
I10
sa(dp457
g3
g446
sg11
S'c65c4467-3453-4f71-a119-aec34e8b2c8f'
p458
sg13
I79855196
sg14
I223380
sg15
g28
sg17
g449
sg20
g21
sg22
g38
sg23
S'hwttp2jaba'
p459
sg25
I10
sa(dp460
g3
g446
sg11
S'f0614676-2097-40b9-83bc-30eebb5c7ca1'
p461
sg13
I79855196
sg14
I223380
sg15
g28
sg17
g449
sg20
g21
sg22
g38
sg23
S'hwtt9pqaba'
p462
sg25
I10
sa(dp463
g3
g446
sg11
S'deade3eb-f4a0-4b57-93b6-b4d0a6c995e9'
p464
sg13
I79855196
sg14
I223380
sg15
g28
sg17
g449
sg20
g21
sg22
g38
sg23
S'hwttyv7aba'
p465
sg25
I10
sa(dp466
g3
g446
sg11
S'6f2ee679-6835-4470-bda8-6ef1842339ab'
p467
sg13
I79855196
sg14
I223380
sg15
g28
sg17
g449
sg20
g21
sg22
g38
sg23
S'hwtt9fhaba'
p468
sg25
I10
sa(dp469
g3
g446
sg11
S'4ab2ab1d-d346-4908-9985-f81e291ce62f'
p470
sg13
I79855196
sg14
I223380
sg15
g28
sg17
g449
sg20
g21
sg22
g38
sg23
S'hwttbjsaba'
p471
sg25
I10
sa(dp472
g3
g4
(g5
g6
VABI Partners Only - Diamond
tRp473
(dp474
g9
Nsg10
I00
sbsg11
S'63bbb0e8-6a09-47f0-b0fa-a28afc4686a3'
p475
sg13
I79858835
sg14
I223379
sg15
g28
sg17
g18
(S"\x07\xdf\x03\x19\x08\x05'\x07\xa1 "
tRp476
sg20
g21
sg22
g473
sg23
S'mcrskywa2a'
p477
sg25
I20
sa(dp478
g3
g473
sg11
S'aa5159c7-87aa-4408-9a3f-7c465e7f30cf'
p479
sg13
I79858835
sg14
I223379
sg15
g16
sg17
g476
sg20
g21
sg22
g473
sg23
S'mcrsd5maa8'
p480
sg25
I8
sa(dp481
g3
g4
(g5
g6
VCorporate - Silver
tRp482
(dp483
g9
Nsg10
I00
sbsg11
S'cddd5d68-a520-4878-bb23-2f22014499ad'
p484
sg13
I79882696
sg14
I223382
sg15
g28
sg17
g18
(S'\x07\xdf\x03\x19\x10\x17/\x0cg\xc8'
tRp485
sg20
g21
sg22
g482
sg23
S'fstnrmhaa3'
p486
sg25
I3
sa(dp487
g3
g482
sg11
S'9cbcafd1-ae26-4a69-8f98-7d64b8c76385'
p488
sg13
I79882696
sg14
I223382
sg15
g16
sg17
g485
sg20
g21
sg22
g482
sg23
S'fstnqc5aa2'
p489
sg25
I2
sa(dp490
g3
g4
(g5
g6
VABI Partners Only - Platinum
tRp491
(dp492
g9
Nsg10
I00
sbsg11
S'd32849fd-6198-489e-9dbb-aaffb501461a'
p493
sg13
I79884963
sg14
I223380
sg15
g28
sg17
g18
(S'\x07\xdf\x03\x19\x111\x12\x0e\x15x'
tRp494
sg20
g21
sg22
g491
sg23
S'qcmm4zgaba'
p495
sg25
I10
sa(dp496
g3
g491
sg11
S'df998dff-2513-4582-9b99-4077cbbe43cf'
p497
sg13
I79884963
sg14
I223380
sg15
g16
sg17
g494
sg20
g21
sg22
g491
sg23
S'qcmmzyyaa4'
p498
sg25
I4
sa(dp499
g3
g4
(g5
g6
VCorporate - Gold
tRp500
(dp501
g9
Nsg10
I00
sbsg11
S'a9802141-caeb-4208-a1a8-7e9c63fbbcc6'
p502
sg13
I79894238
sg14
I223381
sg15
g16
sg17
g18
(S'\x07\xdf\x03\x1a\x03\x14,\x0b/H'
tRp503
sg20
g21
sg22
g500
sg23
S'bkngk73aa3'
p504
sg25
I3
sa(dp505
g3
g500
sg11
S'42680fd9-fc11-46e7-9b6b-61db1e56d2c8'
p506
sg13
I79894238
sg14
I223381
sg15
g28
sg17
g503
sg20
g21
sg22
g500
sg23
S'bkngtrtaa5'
p507
sg25
I5
sa(dp508
g3
g4
(g5
g6
VABI Partners Only - Platinum
tRp509
(dp510
g9
Nsg10
I00
sbsg11
S'd1dfdace-ebe2-49c8-99b1-4bb4e3f633e0'
p511
sg13
I79951282
sg14
I223380
sg15
g28
sg17
g18
(S'\x07\xdf\x03\x1b\n2\x02\x05\xa5P'
tRp512
sg20
g21
sg22
g509
sg23
S'mstr8hpaba'
p513
sg25
I10
sa(dp514
g3
g509
sg11
S'66f79bc7-e3c3-4d23-a6be-3f0e458123ed'
p515
sg13
I79951282
sg14
I223380
sg15
g16
sg17
g512
sg20
g21
sg22
g509
sg23
S'mstrgk5aa4'
p516
sg25
I4
sa(dp517
g3
g4
(g5
g6
VCorporate - Gold
tRp518
(dp519
g9
Nsg10
I00
sbsg11
S'a3315d5c-d31f-47fe-9bd0-b52ecc753c3a'
p520
sg13
I80018305
sg14
I223381
sg15
g16
sg17
g18
(S'\x07\xdf\x03\x1e\t %\x0b\x98\xc0'
tRp521
sg20
g21
sg22
g518
sg23
S'vstnjb2aa3'
p522
sg25
I3
sa(dp523
g3
g518
sg11
S'2923b201-6ad3-42dc-8733-1c15954d98e5'
p524
sg13
I80018305
sg14
I223381
sg15
g28
sg17
g521
sg20
g21
sg22
g518
sg23
S'vstnsb5aa5'
p525
sg25
I5
sa(dp526
g3
g4
(g5
g6
VCorporate - Gold
tRp527
(dp528
g9
Nsg10
I00
sbsg11
S'87f83d5c-8ba2-46ed-8cab-0dbd449a0ae6'
p529
sg13
I80033203
sg14
I223381
sg15
g16
sg17
g18
(S'\x07\xdf\x03\x1e\r&\x15\x01S\xd8'
tRp530
sg20
g21
sg22
g527
sg23
S'mrktnc2aa3'
p531
sg25
I3
sa(dp532
g3
g527
sg11
S'ae32e945-6124-4f07-ab0d-4053a994f9db'
p533
sg13
I80033203
sg14
I223381
sg15
g28
sg17
g530
sg20
g21
sg22
g527
sg23
S'mrktrszaa5'
p534
sg25
I5
sa(dp535
g3
g4
(g5
g6
VAcademic - Silver
tRp536
(dp537
g9
Nsg10
I00
sbsg11
S'61d117f2-4cb7-454d-9a94-03e0bdd93de4'
p538
sg13
I80133227
sg14
I223384
sg15
g350
sg17
g18
(S'\x07\xdf\x04\x01\x0c.\x16\x00\xb7\x98'
tRp539
sg20
g21
sg22
g536
sg23
S'nrth6j5aa2'
p540
sg25
I2
sa(dp541
g3
g536
sg11
S'3cf01b90-3695-44dc-ad1e-10db15a6944b'
p542
sg13
I80133227
sg14
I223384
sg15
g355
sg17
g539
sg20
g356
sg22
g536
sg23
S'nrth5sqa5a'
p543
sg25
I50
sa(dp544
g3
g4
(g5
g6
VCorporate - Silver
tRp545
(dp546
g9
Nsg10
I00
sbsg11
S'435530c6-6485-4bfc-8668-43e6cb51637a'
p547
sg13
I80144405
sg14
I223382
sg15
g28
sg17
g18
(S'\x07\xdf\x04\x01\x10*0\x00\xa7\xf8'
tRp548
sg20
g21
sg22
g545
sg23
S'thmbvtwaa3'
p549
sg25
I3
sa(dp550
g3
g545
sg11
S'7ead34db-956c-4ba2-a1d3-3aef48fe8c20'
p551
sg13
I80144405
sg14
I223382
sg15
g16
sg17
g548
sg20
g21
sg22
g545
sg23
S'thmbbvwaa2'
p552
sg25
I2
sa(dp553
g3
g4
(g5
g6
VCorporate - Gold
tRp554
(dp555
g9
Nsg10
I00
sbsg11
S'0f46ba38-414d-489b-98d5-2b584e947d4e'
p556
sg13
I80166458
sg14
I223381
sg15
g16
sg17
g18
(S'\x07\xdf\x04\x02\x08:\x0f\r\xa0H'
tRp557
sg20
g21
sg22
g554
sg23
S'trpdzsjaa3'
p558
sg25
I3
sa(dp559
g3
g554
sg11
S'008a36b3-2fc5-465f-b024-760ea38961fb'
p560
sg13
I80166458
sg14
I223381
sg15
g28
sg17
g557
sg20
g21
sg22
g554
sg23
S'trpdytqaa5'
p561
sg25
I5
sa(dp562
g3
g4
(g5
g6
VCorporate - Silver
tRp563
(dp564
g9
Nsg10
I00
sbsg11
S'71e8a978-9b07-432d-9a25-11c9a068149a'
p565
sg13
I80171568
sg14
I223382
sg15
g28
sg17
g18
(S'\x07\xdf\x04\x02\n%\x01\x081\xa8'
tRp566
sg20
g21
sg22
g563
sg23
S'ppraq84aa3'
p567
sg25
I3
sa(dp568
g3
g563
sg11
S'20b6c61f-c8eb-45d4-a57e-c7ebe227b75a'
p569
sg13
I80171568
sg14
I223382
sg15
g16
sg17
g566
sg20
g21
sg22
g563
sg23
S'ppratkmaa2'
p570
sg25
I2
sa(dp571
g3
g4
(g5
g6
VCorporate - Silver
tRp572
(dp573
g9
Nsg10
I00
sbsg11
S'e07e5217-506b-4ea1-b761-5731f5fc9ed4'
p574
sg13
I80173047
sg14
I223382
sg15
g28
sg17
g18
(S'\x07\xdf\x04\x02\n9\x00\x05~@'
tRp575
sg20
g21
sg22
g572
sg23
S'nrth7xjaa3'
p576
sg25
I3
sa(dp577
g3
g572
sg11
S'50262ffd-108f-448b-9ded-2124b304a319'
p578
sg13
I80173047
sg14
I223382
sg15
g16
sg17
g575
sg20
g21
sg22
g572
sg23
S'nrthp6baa2'
p579
sg25
I2
sa(dp580
g3
g4
(g5
g6
VCorporate - Silver
tRp581
(dp582
g9
Nsg10
I00
sbsg11
S'b9bfabb9-9cfc-4f46-a016-27078ee8506e'
p583
sg13
I80173980
sg14
I223382
sg15
g28
sg17
g18
(S'\x07\xdf\x04\x02\x0b\x12\x12\x0c\xf8P'
tRp584
sg20
g21
sg22
g581
sg23
S'ptmzghzaa3'
p585
sg25
I3
sa(dp586
g3
g581
sg11
S'0410aa34-d07d-4b03-896e-53aa40240522'
p587
sg13
I80173980
sg14
I223382
sg15
g16
sg17
g584
sg20
g21
sg22
g581
sg23
S'ptmztrnaa2'
p588
sg25
I2
sa(dp589
g3
g4
(g5
g6
VABI Partners Only - Platinum
tRp590
(dp591
g9
Nsg10
I00
sbsg11
S'0cf39a5d-f489-4645-b3ee-05e659676810'
p592
sg13
I80216188
sg14
I223380
sg15
g28
sg17
g18
(S'\x07\xdf\x04\x03\x0f,\r\x01\x1d('
tRp593
sg20
g21
sg22
g590
sg23
S'rbnbngdaba'
p594
sg25
I10
sa(dp595
g3
g590
sg11
S'74f80b83-b37d-4a86-a5d5-493eb5390387'
p596
sg13
I80216188
sg14
I223380
sg15
g16
sg17
g593
sg20
g21
sg22
g590
sg23
S'rbnbtpcaa4'
p597
sg25
I4
sa(dp598
g3
g4
(g5
g6
VCorporate - Gold
tRp599
(dp600
g9
Nsg10
I00
sbsg11
S'58b90f12-e165-4c56-a7a6-27d581fd04c7'
p601
sg13
I80219214
sg14
I223381
sg15
g16
sg17
g18
(S'\x07\xdf\x04\x03\x11\x05\x18\r\xe2\xb0'
tRp602
sg20
g21
sg22
g599
sg23
S'brtysxmaa3'
p603
sg25
I3
sa(dp604
g3
g599
sg11
S'f2ac5e63-b92e-438c-9cd5-1b3ca7b0a09b'
p605
sg13
I80219214
sg14
I223381
sg15
g28
sg17
g602
sg20
g21
sg22
g599
sg23
S'brty2h9aa5'
p606
sg25
I5
sa(dp607
g3
g4
(g5
g6
VAcademic - Bronze
tRp608
(dp609
g9
Nsg10
I00
sbsg11
S'154254fe-407e-43cf-b51e-2597fa1689bc'
p610
sg13
I80257688
sg14
I223385
sg15
g350
sg17
g18
(S'\x07\xdf\x04\x06\t\x0c\x15\x0b\x8d\x08'
tRp611
sg20
g21
sg22
g608
sg23
S'nvrsyxyaab'
p612
sg25
I1
sa(dp613
g3
g608
sg11
S'099dd1d9-6823-4e33-a955-dd9fa0362404'
p614
sg13
I80257688
sg14
I223385
sg15
S'student_10'
p615
sg17
g611
sg20
S'-10%'
p616
sg22
g608
sg23
S'nvrsvdta25'
p617
sg25
I25
sa(dp618
g3
g4
(g5
g6
VCorporate - Gold
tRp619
(dp620
g9
Nsg10
I00
sbsg11
S'ef762e10-9dc6-4da2-88d7-d8fc62e5466d'
p621
sg13
I80275681
sg14
I223381
sg15
g16
sg17
g18
(S'\x07\xdf\x04\x06\x0e\x1a\x14\x06\xb6\xc0'
tRp622
sg20
g21
sg22
g619
sg23
S'myna642aa3'
p623
sg25
I3
sa(dp624
g3
g619
sg11
S'691d1b1f-121e-4520-99b5-339ab533d224'
p625
sg13
I80275681
sg14
I223381
sg15
g28
sg17
g622
sg20
g21
sg22
g619
sg23
S'mynat8waa5'
p626
sg25
I5
sa(dp627
g3
g4
(g5
g6
VCorporate - Silver
tRp628
(dp629
g9
Nsg10
I00
sbsg11
S'83bced0f-323d-4856-a801-3f44ceab0060'
p630
sg13
I80282733
sg14
I223382
sg15
g28
sg17
g18
(S'\x07\xdf\x04\x06\x12\x034\x07z\x10'
tRp631
sg20
g21
sg22
g628
sg23
S'smsn8nmaa3'
p632
sg25
I3
sa(dp633
g3
g628
sg11
S'5db0323c-5c5a-440a-ae8b-bb0cdf1008cf'
p634
sg13
I80282733
sg14
I223382
sg15
g16
sg17
g631
sg20
g21
sg22
g628
sg23
S'smsnvtdaa2'
p635
sg25
I2
sa(dp636
g3
g4
(g5
g6
VCorporate - Gold
tRp637
(dp638
g9
Nsg10
I00
sbsg11
S'71e2345b-d812-4ba0-9d27-4d7f4aace934'
p639
sg13
I80330099
sg14
I223381
sg15
g16
sg17
g18
(S'\x07\xdf\x04\x07\x0e9\x1f\x0bq\xb0'
tRp640
sg20
g21
sg22
g637
sg23
S'bmbrbb7aa3'
p641
sg25
I3
sa(dp642
g3
g637
sg11
S'a2473ce3-18e4-466a-a34b-927f1e189179'
p643
sg13
I80330099
sg14
I223381
sg15
g28
sg17
g640
sg20
g21
sg22
g637
sg23
S'bmbrk4gaa5'
p644
sg25
I5
sa(dp645
g3
g4
(g5
g6
VCorporate - Gold
tRp646
(dp647
g9
Nsg10
I00
sbsg11
S'c0a9c2f2-5083-4de3-b646-75a767f04b7b'
p648
sg13
I80332293
sg14
I223381
sg15
g16
sg17
g18
(S'\x07\xdf\x04\x07\x0f2\x15\n\xd5p'
tRp649
sg20
g21
sg22
g646
sg23
S'znpyd25aa3'
p650
sg25
I3
sa(dp651
g3
g646
sg11
S'4dcf2ab1-e7ad-4de7-bdce-541a040ae131'
p652
sg13
I80332293
sg14
I223381
sg15
g28
sg17
g649
sg20
g21
sg22
g646
sg23
S'znpymjvaa5'
p653
sg25
I5
sa(dp654
g3
g4
(g5
g6
VCorporate - Gold
tRp655
(dp656
g9
Nsg10
I00
sbsg11
S'01ff4ab9-5e09-4e0b-9ac9-977401a1b02d'
p657
sg13
I80376014
sg14
I223381
sg15
g16
sg17
g18
(S'\x07\xdf\x04\x08\r#\x1d\x00\x00\x00'
tRp658
sg20
g21
sg22
g655
sg23
S'grpnjqraa3'
p659
sg25
I3
sa(dp660
g3
g655
sg11
S'68d345c0-a00f-43d2-9d8d-77f4c6853b30'
p661
sg13
I80376014
sg14
I223381
sg15
g28
sg17
g658
sg20
g21
sg22
g655
sg23
S'grpnjdvaa5'
p662
sg25
I5
sa(dp663
g3
g4
(g5
g6
VCorporate - Gold
tRp664
(dp665
g9
Nsg10
I00
sbsg11
S'0d7d1fef-08a8-4925-9436-d2df085ef94e'
p666
sg13
I80426701
sg14
I223381
sg15
g16
sg17
g18
(S'\x07\xdf\x04\t\x0e -\nk\xf8'
tRp667
sg20
g21
sg22
g664
sg23
S'brntsfbaa3'
p668
sg25
I3
sa(dp669
g3
g664
sg11
S'1482028e-d5d7-4a4a-bd0a-431f0487ad6f'
p670
sg13
I80426701
sg14
I223381
sg15
g28
sg17
g667
sg20
g21
sg22
g664
sg23
S'brntk2qaa5'
p671
sg25
I5
sa(dp672
g3
g4
(g5
g6
VCorporate - Gold
tRp673
(dp674
g9
Nsg10
I00
sbsg11
S'94a011f4-43cb-4598-9e21-ca52d0b89bd1'
p675
sg13
I80458976
sg14
I223381
sg15
g16
sg17
g18
(S'\x07\xdf\x04\n\x088(\x08\xd9\xa0'
tRp676
sg20
g21
sg22
g673
sg23
S'pwca78vaa3'
p677
sg25
I3
sa(dp678
g3
g673
sg11
S'85102c3f-e0e8-41dd-a81a-3f3d592a7211'
p679
sg13
I80458976
sg14
I223381
sg15
g28
sg17
g676
sg20
g21
sg22
g673
sg23
S'pwcafk3aa5'
p680
sg25
I5
sa(dp681
g3
g4
(g5
g6
VCorporate - Silver
tRp682
(dp683
g9
Nsg10
I00
sbsg11
S'382ac631-1ebd-4a76-8129-4ac865bca7a6'
p684
sg13
I80479404
sg14
I223382
sg15
g28
sg17
g18
(S'\x07\xdf\x04\n\x0e#\x10\x0e\xd8\xc8'
tRp685
sg20
g21
sg22
g682
sg23
S'sqcpxd9aa3'
p686
sg25
I3
sa(dp687
g3
g682
sg11
S'0bcd9cf3-b58b-4f31-96b6-bff1df1aae3e'
p688
sg13
I80479404
sg14
I223382
sg15
g16
sg17
g685
sg20
g21
sg22
g682
sg23
S'sqcpfxpaa2'
p689
sg25
I2
sa(dp690
g3
g4
(g5
g6
VCorporate - Gold
tRp691
(dp692
g9
Nsg10
I00
sbsg11
S'94ba609f-e41f-412a-be1d-51b869b9b307'
p693
sg13
I80535579
sg14
I223381
sg15
g16
sg17
g18
(S'\x07\xdf\x04\r\t\x03\x05\x07z\x10'
tRp694
sg20
g21
sg22
g691
sg23
S'dtscx2zaa3'
p695
sg25
I3
sa(dp696
g3
g691
sg11
S'639c28ef-cb92-4f56-ab7d-479553ffe9c3'
p697
sg13
I80535579
sg14
I223381
sg15
g28
sg17
g694
sg20
g21
sg22
g691
sg23
S'dtschm9aa5'
p698
sg25
I5
sa(dp699
g3
g4
(g5
g6
VCorporate - Silver
tRp700
(dp701
g9
Nsg10
I00
sbsg11
S'61bb1621-af45-44ef-b05d-b8663fd397da'
p702
sg13
I80541412
sg14
I223382
sg15
g28
sg17
g18
(S'\x07\xdf\x04\r\t4\x18\x04\xe2\x00'
tRp703
sg20
g21
sg22
g700
sg23
S'dttawdfaa3'
p704
sg25
I3
sa(dp705
g3
g700
sg11
S'edb20de7-7ca3-445c-93a2-4820f26c5356'
p706
sg13
I80541412
sg14
I223382
sg15
g16
sg17
g703
sg20
g21
sg22
g700
sg23
S'dttacvqaa2'
p707
sg25
I2
sa(dp708
g3
g4
(g5
g6
VCorporate - Silver
tRp709
(dp710
g9
Nsg10
I00
sbsg11
S'eb8d9c1f-5c45-420e-b391-b459d0ca9ec7'
p711
sg13
I80544565
sg14
I223382
sg15
g28
sg17
g18
(S'\x07\xdf\x04\r\n9\x07\r\xc7X'
tRp712
sg20
g21
sg22
g709
sg23
S'spcwsb4aa3'
p713
sg25
I3
sa(dp714
g3
g709
sg11
S'b6955b55-cdc7-4526-ac3a-7b32a6555c03'
p715
sg13
I80544565
sg14
I223382
sg15
g16
sg17
g712
sg20
g21
sg22
g709
sg23
S'spcw3z2aa2'
p716
sg25
I2
sa(dp717
g3
g4
(g5
g6
VAcademic - Gold
tRp718
(dp719
g9
Nsg10
I00
sbsg11
S'a5a23ffa-b84f-469e-a41f-461dd32ecab7'
p720
sg13
I80605148
sg14
I223383
sg15
g350
sg17
g18
(S'\x07\xdf\x04\x0e\r$\x07\x07\x95h'
tRp721
sg20
g21
sg22
g718
sg23
S'prdntpjaa3'
p722
sg25
I3
sa(dp723
g3
g718
sg11
S'937c912f-d82a-41c3-8286-48c02c130eb3'
p724
sg13
I80605148
sg14
I223383
sg15
S'student_20'
p725
sg17
g721
sg20
S'-20%'
p726
sg22
g718
sg23
S'prdnmkzbaa'
p727
sg25
I100
sa(dp728
g3
g4
(g5
g6
VLab & Non-Profit - Gold
tRp729
(dp730
g9
Nsg10
I00
sbsg11
S'15bafd6f-410d-44fd-b744-6caad04b6f65'
p731
sg13
I80614404
sg14
I226851
sg15
g28
sg17
g18
(S'\x07\xdf\x04\x0e\x10,"\t\xdfX'
tRp732
sg20
g21
sg22
g729
sg23
S'dgnt6jraa3'
p733
sg25
I3
sa(dp734
g3
g4
(g5
g6
VCorporate - Silver
tRp735
(dp736
g9
Nsg10
I00
sbsg11
S'bc3b8af6-a372-45d4-b854-fce7f2d8adff'
p737
sg13
I80617786
sg14
I223382
sg15
g28
sg17
g18
(S'\x07\xdf\x04\x0e\x1245\x02\xe60'
tRp738
sg20
g21
sg22
g735
sg23
S'braatn3aa3'
p739
sg25
I3
sa(dp740
g3
g735
sg11
S'd4080d70-246f-4ab4-a8aa-07c2e467103e'
p741
sg13
I80617786
sg14
I223382
sg15
g16
sg17
g738
sg20
g21
sg22
g735
sg23
S'braatydaa2'
p742
sg25
I2
sa(dp743
g3
g4
(g5
g6
VCorporate - Silver
tRp744
(dp745
g9
Nsg10
I00
sbsg11
S'c428726a-7788-4a46-ad97-f64b1efc295f'
p746
sg13
I80649549
sg14
I223382
sg15
g28
sg17
g18
(S'\x07\xdf\x04\x0f\x0b $\x0e~\xf0'
tRp747
sg20
g21
sg22
g744
sg23
S'pntxv34aa3'
p748
sg25
I3
sa(dp749
g3
g744
sg11
S'b3c391f5-1223-49fc-8ce4-4e369a6c5e4a'
p750
sg13
I80649549
sg14
I223382
sg15
g16
sg17
g747
sg20
g21
sg22
g744
sg23
S'pntx5nkaa2'
p751
sg25
I2
sa(dp752
g3
g4
(g5
g6
VCorporate - Silver
tRp753
(dp754
g9
Nsg10
I00
sbsg11
S'45e5e88d-329b-4c8b-bd32-e9d36b2fa4e8'
p755
sg13
I80660768
sg14
I223382
sg15
g28
sg17
g18
(S'\x07\xdf\x04\x0f\x0f\x00\x05\x0c\xdc\xf8'
tRp756
sg20
g21
sg22
g753
sg23
S'haaar54aa3'
p757
sg25
I3
sa(dp758
g3
g753
sg11
S'3aa1154e-2303-43de-b436-4e5b5ca85afb'
p759
sg13
I80660768
sg14
I223382
sg15
g16
sg17
g756
sg20
g21
sg22
g753
sg23
S'haaa3xfaa2'
p760
sg25
I2
sa(dp761
g3
g4
(g5
g6
VCorporate - Silver
tRp762
(dp763
g9
Nsg10
I00
sbsg11
S'a29efca3-0c49-44b9-80b2-441433265733'
p764
sg13
I80666758
sg14
I223382
sg15
g28
sg17
g18
(S'\x07\xdf\x04\x0f\x11;,\x05\t\x10'
tRp765
sg20
g21
sg22
g762
sg23
S'brcdvw7aa3'
p766
sg25
I3
sa(dp767
g3
g762
sg11
S'7ad5d834-aef2-41c4-b5c3-986168067e5a'
p768
sg13
I80666758
sg14
I223382
sg15
g16
sg17
g765
sg20
g21
sg22
g762
sg23
S'brcd5hqaa2'
p769
sg25
I2
sa(dp770
g3
g4
(g5
g6
VAcademic - Bronze
tRp771
(dp772
g9
Nsg10
I00
sbsg11
S'0b46d19f-054b-44ce-a171-dfa8456d1b2a'
p773
sg13
I80692237
sg14
I223385
sg15
g350
sg17
g18
(S'\x07\xdf\x04\x10\x08\x067\x05\x99\x98'
tRp774
sg20
g21
sg22
g771
sg23
S'brwn8sqaab'
p775
sg25
I1
sa(dp776
g3
g771
sg11
S'c33773e5-2c92-4bfe-87f6-550d6d0c5e82'
p777
sg13
I80692237
sg14
I223385
sg15
g615
sg17
g774
sg20
g616
sg22
g771
sg23
S'brwng55a25'
p778
sg25
I25
sa(dp779
g3
g4
(g5
g6
VAcademic - Silver
tRp780
(dp781
g9
Nsg10
I00
sbsg11
S'59a36a78-7884-4ee2-b116-c86a7ac30a8a'
p782
sg13
I80705093
sg14
I223384
sg15
g350
sg17
g18
(S'\x07\xdf\x04\x10\x0b,.\x01\xb9h'
tRp783
sg20
g21
sg22
g780
sg23
S'mtaazm9aa2'
p784
sg25
I2
sa(dp785
g3
g780
sg11
S'd0837de6-0bf0-4d4b-bfba-3053150976df'
p786
sg13
I80705093
sg14
I223384
sg15
g355
sg17
g783
sg20
g356
sg22
g780
sg23
S'mtaaxx3a5a'
p787
sg25
I50
sa(dp788
g3
g4
(g5
g6
VCorporate - Gold
tRp789
(dp790
g9
Nsg10
I00
sbsg11
S'fe3ce123-3a23-419d-8373-f0e7b04837da'
p791
sg13
I80710866
sg14
I223381
sg15
g16
sg17
g18
(S'\x07\xdf\x04\x10\x0c4.\x0cg\xc8'
tRp792
sg20
g21
sg22
g789
sg23
S'tssnjd7aa3'
p793
sg25
I3
sa(dp794
g3
g789
sg11
S'f9f93405-cb74-4018-81fd-6303500b65ce'
p795
sg13
I80710866
sg14
I223381
sg15
g28
sg17
g792
sg20
g21
sg22
g789
sg23
S'tssn2rraa5'
p796
sg25
I5
sa(dp797
g3
g4
(g5
g6
VAcademic - Bronze
tRp798
(dp799
g9
Nsg10
I00
sbsg11
S'ea97aa4b-6bdf-49d0-8187-d01dc246c8c4'
p800
sg13
I80715877
sg14
I223385
sg15
g350
sg17
g18
(S"\x07\xdf\x04\x10\r'\x07\x06h\xa0"
tRp801
sg20
g21
sg22
g798
sg23
S'nvrs6hsaab'
p802
sg25
I1
sa(dp803
g3
g798
sg11
S'b46689bd-8b7e-4227-926e-7c54fda36c82'
p804
sg13
I80715877
sg14
I223385
sg15
g615
sg17
g801
sg20
g616
sg22
g798
sg23
S'nvrs9xba25'
p805
sg25
I25
sa(dp806
g3
g4
(g5
g6
VAcademic - Silver
tRp807
(dp808
g9
Nsg10
I00
sbsg11
S'9c976221-137d-443d-be9e-5b02ef3b0388'
p809
sg13
I80722918
sg14
I223384
sg15
g350
sg17
g18
(S'\x07\xdf\x04\x10\x0f\x0c\x02\x07\xc80'
tRp810
sg20
g21
sg22
g807
sg23
S'ctchdyfaa2'
p811
sg25
I2
sa(dp812
g3
g807
sg11
S'e4fb4d57-6631-47a0-b049-5d3fa4f08011'
p813
sg13
I80722918
sg14
I223384
sg15
g355
sg17
g810
sg20
g356
sg22
g807
sg23
S'ctchrv4a5a'
p814
sg25
I50
sa(dp815
g3
g4
(g5
g6
VCorporate - Gold
tRp816
(dp817
g9
Nsg10
I00
sbsg11
S'6d2b3550-ead8-4f48-8cbc-b6dea4ec7eba'
p818
sg13
I80723273
sg14
I223381
sg15
g16
sg17
g18
(S'\x07\xdf\x04\x10\x0f\x13:\x01\xfb\xd0'
tRp819
sg20
g21
sg22
g816
sg23
S'prdnjzbaa3'
p820
sg25
I3
sa(dp821
g3
g816
sg11
S'12f1b8f0-d19e-4e6d-9909-efe70d94ee54'
p822
sg13
I80723273
sg14
I223381
sg15
g28
sg17
g819
sg20
g21
sg22
g816
sg23
S'prdnmx3aa5'
p823
sg25
I5
sa(dp824
g3
g4
(g5
g6
VAcademic - Gold
tRp825
(dp826
g9
Nsg10
I00
sbsg11
S'b1415125-82b3-43e6-aa09-c74264b8c359'
p827
sg13
I80725493
sg14
I223383
sg15
g350
sg17
g18
(S'\x07\xdf\x04\x10\x10\x122\x03\xb58'
tRp828
sg20
g21
sg22
g825
sg23
S'hrvy8ggaa3'
p829
sg25
I3
sa(dp830
g3
g825
sg11
S'e33b4a0d-fcec-4db6-a1ff-469582d2c906'
p831
sg13
I80725493
sg14
I223383
sg15
g725
sg17
g828
sg20
g726
sg22
g825
sg23
S'hrvymhhbaa'
p832
sg25
I100
sa(dp833
g3
g4
(g5
g6
VCorporate - Gold
tRp834
(dp835
g9
Nsg10
I00
sbsg11
S'b48b4a5a-35e8-4303-9f8f-9fc418b96f76'
p836
sg13
I80751863
sg14
I223381
sg15
g16
sg17
g18
(S'\x07\xdf\x04\x11\t\x14+\x05\xc0\xa8'
tRp837
sg20
g21
sg22
g834
sg23
S'tdsksgzaa3'
p838
sg25
I3
sa(dp839
g3
g834
sg11
S'65cf5c45-2bf1-420f-a446-59ef2939a20d'
p840
sg13
I80751863
sg14
I223381
sg15
g28
sg17
g837
sg20
g21
sg22
g834
sg23
S'tdskhjdaa5'
p841
sg25
I5
sa(dp842
g3
g4
(g5
g6
VABI Partners Only - Platinum
tRp843
(dp844
g9
Nsg10
I00
sbsg11
S'e34fafec-7bfa-4c26-9a34-62d3872d5db1'
p845
sg13
I80757386
sg14
I223380
sg15
g16
sg17
g18
(S'\x07\xdf\x04\x11\x0c\x10\x08\x00Bh'
tRp846
sg20
g21
sg22
g843
sg23
S'ntta2k8aa4'
p847
sg25
I4
sa(dp848
g3
g843
sg11
S'24c93593-9825-4c30-835b-db25b8802689'
p849
sg13
I80757386
sg14
I223380
sg15
g28
sg17
g846
sg20
g21
sg22
g843
sg23
S'nttakpxaba'
p850
sg25
I10
sa(dp851
g3
g843
sg11
S'4a194d40-daf0-43c2-8265-c1fcb8a11e64'
p852
sg13
I80757386
sg14
I223380
sg15
g28
sg17
g846
sg20
g21
sg22
g38
sg23
S'nttas5waba'
p853
sg25
I10
sa(dp854
g3
g843
sg11
S'5bebc3a7-8245-4078-a3a7-25de23a65716'
p855
sg13
I80757386
sg14
I223380
sg15
g28
sg17
g846
sg20
g21
sg22
g38
sg23
S'nttam6raba'
p856
sg25
I10
sa(dp857
g3
g843
sg11
S'bc894554-1739-443a-a87a-bf112ddb0420'
p858
sg13
I80757386
sg14
I223380
sg15
g28
sg17
g846
sg20
g21
sg22
g38
sg23
S'nttanjpaba'
p859
sg25
I10
sa(dp860
g3
g843
sg11
S'4d38443d-7b59-41cb-9e17-6d34550ceaaa'
p861
sg13
I80757386
sg14
I223380
sg15
g28
sg17
g846
sg20
g21
sg22
g38
sg23
S'nttafbfaba'
p862
sg25
I10
sa(dp863
g3
g843
sg11
S'615e7e8f-d95f-4538-b6a2-ac9fa85d84a9'
p864
sg13
I80757386
sg14
I223380
sg15
g28
sg17
g846
sg20
g21
sg22
g38
sg23
S'nttawyyaba'
p865
sg25
I10
sa(dp866
g3
g843
sg11
S'e1d1c030-87cf-4dfd-b3d2-64c2c4ecd166'
p867
sg13
I80757386
sg14
I223380
sg15
g28
sg17
g846
sg20
g21
sg22
g38
sg23
S'nttap5zaba'
p868
sg25
I10
sa(dp869
g3
g843
sg11
S'13fbc79b-6daf-42db-b93c-6e896f5b3de2'
p870
sg13
I80757386
sg14
I223380
sg15
g28
sg17
g846
sg20
g21
sg22
g38
sg23
S'ntta6x9aba'
p871
sg25
I10
sa(dp872
g3
g843
sg11
S'dc1b76b5-2254-4fb9-9cce-9f006d4ad5eb'
p873
sg13
I80757386
sg14
I223380
sg15
g28
sg17
g846
sg20
g21
sg22
g38
sg23
S'nttapsnaba'
p874
sg25
I10
sa(dp875
g3
g843
sg11
S'f5f9ddbf-3e1e-4cef-b95a-4cd2d284891d'
p876
sg13
I80757386
sg14
I223380
sg15
g28
sg17
g846
sg20
g21
sg22
g38
sg23
S'nttaj5qaba'
p877
sg25
I10
sa(dp878
g3
g843
sg11
S'0e5a4a00-b2ad-499b-bc1c-7f0f297520c9'
p879
sg13
I80757386
sg14
I223380
sg15
g28
sg17
g846
sg20
g21
sg22
g38
sg23
S'nttaqstaba'
p880
sg25
I10
sa(dp881
g3
g843
sg11
S'87c625b0-897f-4502-951d-e30f61a69209'
p882
sg13
I80757386
sg14
I223380
sg15
g28
sg17
g846
sg20
g21
sg22
g38
sg23
S'nttazsraba'
p883
sg25
I10
sa(dp884
g3
g843
sg11
S'7bfc5341-f6c2-4101-89cf-0e97b467b5d9'
p885
sg13
I80757386
sg14
I223380
sg15
g28
sg17
g846
sg20
g21
sg22
g38
sg23
S'ntta8twaba'
p886
sg25
I10
sa(dp887
g3
g843
sg11
S'd6ae8b6d-3667-4ce5-b23c-e470a3f0bf63'
p888
sg13
I80757386
sg14
I223380
sg15
g28
sg17
g846
sg20
g21
sg22
g38
sg23
S'nttaz5naba'
p889
sg25
I10
sa(dp890
g3
g843
sg11
S'7b0c5e52-eb0b-4fb8-b065-77cbd61c571a'
p891
sg13
I80757386
sg14
I223380
sg15
g28
sg17
g846
sg20
g21
sg22
g38
sg23
S'ntta988aba'
p892
sg25
I10
sa(dp893
g3
g843
sg11
S'deb86cd5-7d53-4429-9a44-c8456812c89c'
p894
sg13
I80757386
sg14
I223380
sg15
g28
sg17
g846
sg20
g21
sg22
g38
sg23
S'nttawy7aba'
p895
sg25
I10
sa(dp896
g3
g843
sg11
S'c906515e-5722-474f-956a-1ee01403346c'
p897
sg13
I80757386
sg14
I223380
sg15
g28
sg17
g846
sg20
g21
sg22
g38
sg23
S'nttasrdaba'
p898
sg25
I10
sa(dp899
g3
g843
sg11
S'0eefd878-7250-4135-aa95-62e833671fbd'
p900
sg13
I80757386
sg14
I223380
sg15
g28
sg17
g846
sg20
g21
sg22
g38
sg23
S'nttagwnaba'
p901
sg25
I10
sa(dp902
g3
g843
sg11
S'e9f4ef3a-178b-4937-9464-889888638c3d'
p903
sg13
I80757386
sg14
I223380
sg15
g28
sg17
g846
sg20
g21
sg22
g38
sg23
S'nttaqb3aba'
p904
sg25
I10
sa(dp905
g3
g843
sg11
S'46527028-aa73-42ab-80aa-407523b701db'
p906
sg13
I80757386
sg14
I223380
sg15
g28
sg17
g846
sg20
g21
sg22
g38
sg23
S'nttad44aba'
p907
sg25
I10
sa(dp908
g3
g843
sg11
S'1c0c4c3d-043a-4f5d-9624-758eb6af3cae'
p909
sg13
I80757386
sg14
I223380
sg15
g28
sg17
g846
sg20
g21
sg22
g38
sg23
S'nttax2xaba'
p910
sg25
I10
sa(dp911
g3
g4
(g5
g6
VABI Partners Only - Platinum
tRp912
(dp913
g9
Nsg10
I00
sbsg11
S'24d81161-6452-4a2b-8e39-31d05ebf4a58'
p914
sg13
I80766185
sg14
I223380
sg15
g16
sg17
g18
(S'\x07\xdf\x04\x11\x0e\x03$\rm\x80'
tRp915
sg20
g21
sg22
g912
sg23
S'rcss2fraa4'
p916
sg25
I4
sa(dp917
g3
g912
sg11
S'c4a07265-2782-4018-a5a8-89976922ee2b'
p918
sg13
I80766185
sg14
I223380
sg15
g28
sg17
g915
sg20
g21
sg22
g912
sg23
S'rcsssctaba'
p919
sg25
I10
sa(dp920
g3
g912
sg11
S'6c69b07b-59ca-4535-8820-6fbf8b5c6678'
p921
sg13
I80766185
sg14
I223380
sg15
g28
sg17
g915
sg20
g21
sg22
g38
sg23
S'rcssgy2aba'
p922
sg25
I10
sa(dp923
g3
g912
sg11
S'8ca94200-d6f7-4097-be36-f66e1c3b0614'
p924
sg13
I80766185
sg14
I223380
sg15
g28
sg17
g915
sg20
g21
sg22
g38
sg23
S'rcssfn4aba'
p925
sg25
I10
sa(dp926
g3
g912
sg11
S'c665e35b-6293-4354-b430-997de036620f'
p927
sg13
I80766185
sg14
I223380
sg15
g28
sg17
g915
sg20
g21
sg22
g38
sg23
S'rcssp2vaba'
p928
sg25
I10
sa(dp929
g3
g912
sg11
S'81206dba-d0e7-4fbb-8920-80c1ab550841'
p930
sg13
I80766185
sg14
I223380
sg15
g28
sg17
g915
sg20
g21
sg22
g38
sg23
S'rcss6jbaba'
p931
sg25
I10
sa(dp932
g3
g912
sg11
S'759bc920-0b0c-4ae7-bf53-7b66864595f0'
p933
sg13
I80766185
sg14
I223380
sg15
g28
sg17
g915
sg20
g21
sg22
g38
sg23
S'rcssd6caba'
p934
sg25
I10
sa(dp935
g3
g4
(g5
g6
VAcademic - Silver
tRp936
(dp937
g9
Nsg10
I00
sbsg11
S'b48192bb-3e09-468a-b684-f3c90494deb3'
p938
sg13
I80837474
sg14
I223384
sg15
g350
sg17
g18
(S'\x07\xdf\x04\x14\t\x164\x0e\xf4 '
tRp939
sg20
g21
sg22
g936
sg23
S'schfgpwaa2'
p940
sg25
I2
sa(dp941
g3
g936
sg11
S'83243af7-a07b-4f7e-afcb-04aa45c5cf23'
p942
sg13
I80837474
sg14
I223384
sg15
g355
sg17
g939
sg20
g356
sg22
g936
sg23
S'schf2v5a5a'
p943
sg25
I50
sa(dp944
g3
g4
(g5
g6
VCorporate - Silver
tRp945
(dp946
g9
Nsg10
I00
sbsg11
S'cc082b12-c915-431c-94cf-5340583f3ee4'
p947
sg13
I80843521
sg14
I223382
sg15
g28
sg17
g18
(S'\x07\xdf\x04\x14\x0b\x13#\x081\xa8'
tRp948
sg20
g21
sg22
g945
sg23
S'pwra7ffaa3'
p949
sg25
I3
sa(dp950
g3
g945
sg11
S'd3f2bff8-cf78-4747-959e-576221158ac3'
p951
sg13
I80843521
sg14
I223382
sg15
g16
sg17
g948
sg20
g21
sg22
g945
sg23
S'pwrasf4aa2'
p952
sg25
I2
sa(dp953
g3
g4
(g5
g6
VAcademic - Bronze
tRp954
(dp955
g9
Nsg10
I00
sbsg11
S'0f5ad97b-f486-4512-b3a8-7c7276013741'
p956
sg13
I80907398
sg14
I223385
sg15
g350
sg17
g18
(S'\x07\xdf\x04\x15\x0e$2\x00\xc3P'
tRp957
sg20
g21
sg22
g954
sg23
S'rchsbh8aab'
p958
sg25
I1
sa(dp959
g3
g954
sg11
S'857d8c4e-dbbf-4fc3-a6aa-d868a70df1d9'
p960
sg13
I80907398
sg14
I223385
sg15
g615
sg17
g957
sg20
g616
sg22
g954
sg23
S'rchsgq3a25'
p961
sg25
I25
sa(dp962
g3
g4
(g5
g6
VCorporate - Silver
tRp963
(dp964
g9
Nsg10
I00
sbsg11
S'cd737012-16ad-476a-89c5-3edf6e8978eb'
p965
sg13
I80951114
sg14
I223382
sg15
g28
sg17
g18
(S'\x07\xdf\x04\x16\x0b7$\x07\xd3\xe8'
tRp966
sg20
g21
sg22
g963
sg23
S'cmpr3vraa3'
p967
sg25
I3
sa(dp968
g3
g963
sg11
S'6bbeaabb-8887-4558-aee9-2d6797229e73'
p969
sg13
I80951114
sg14
I223382
sg15
g16
sg17
g966
sg20
g21
sg22
g963
sg23
S'cmpr257aa2'
p970
sg25
I2
sa(dp971
g3
g4
(g5
g6
VCorporate - Silver
tRp972
(dp973
g9
Nsg10
I00
sbsg11
S'c1634081-c559-469c-b46d-25c6c1792328'
p974
sg13
I80965581
sg14
I223382
sg15
g28
sg17
g18
(S'\x07\xdf\x04\x16\x11\x13\x19\x01_\x90'
tRp975
sg20
g21
sg22
g972
sg23
S'strpmspaa3'
p976
sg25
I3
sa(dp977
g3
g972
sg11
S'd38feec2-d2b4-48f5-99e8-57b490fae7b0'
p978
sg13
I80965581
sg14
I223382
sg15
g16
sg17
g975
sg20
g21
sg22
g972
sg23
S'strp97daa2'
p979
sg25
I2
sa(dp980
g3
g4
(g5
g6
VABI Partners Only - Platinum
tRp981
(dp982
g9
Nsg10
I00
sbsg11
S'f0f37877-e668-4380-9658-8ede2d6a4d7e'
p983
sg13
I81051813
sg14
I223380
sg15
g16
sg17
g18
(S'\x07\xdf\x04\x18\x0b$\x1a\x06\xc2x'
tRp984
sg20
g21
sg22
g981
sg23
S'yhaabgtaa4'
p985
sg25
I4
sa(dp986
g3
g981
sg11
S'825d5ac1-3413-4f1b-af01-d5713e58a0b8'
p987
sg13
I81051813
sg14
I223380
sg15
g28
sg17
g984
sg20
g21
sg22
g981
sg23
S'yhaacr8aba'
p988
sg25
I10
sa(dp989
g3
g981
sg11
S'd5667367-1b1a-4a8c-bcd6-4e233a950335'
p990
sg13
I81051813
sg14
I223380
sg15
g28
sg17
g984
sg20
g21
sg22
g38
sg23
S'yhaa7jxaba'
p991
sg25
I10
sa(dp992
g3
g981
sg11
S'2a6ab961-616b-44eb-9947-b3618014ae3b'
p993
sg13
I81051813
sg14
I223380
sg15
g28
sg17
g984
sg20
g21
sg22
g38
sg23
S'yhaaq8gaba'
p994
sg25
I10
sa(dp995
g3
g981
sg11
S'1cf224e3-4368-4c5a-b0ea-7683c2f57183'
p996
sg13
I81051813
sg14
I223380
sg15
g28
sg17
g984
sg20
g21
sg22
g38
sg23
S'yhaag9saba'
p997
sg25
I10
sa(dp998
g3
g981
sg11
S'f45e557a-92c5-4c6d-91b0-357139882f0e'
p999
sg13
I81051813
sg14
I223380
sg15
g28
sg17
g984
sg20
g21
sg22
g38
sg23
S'yhaax6vaba'
p1000
sg25
I10
sa(dp1001
g3
g981
sg11
S'c8527d95-4611-42b8-bb63-b6db9236fdc3'
p1002
sg13
I81051813
sg14
I223380
sg15
g28
sg17
g984
sg20
g21
sg22
g38
sg23
S'yhaaz3jaba'
p1003
sg25
I10
sa(dp1004
g3
g981
sg11
S'674b6d5b-259a-4b54-bbb5-71988e20f112'
p1005
sg13
I81051813
sg14
I223380
sg15
g28
sg17
g984
sg20
g21
sg22
g38
sg23
S'yhaabjmaba'
p1006
sg25
I10
sa(dp1007
g3
g981
sg11
S'72524e4b-201f-4805-ba6e-de019912530a'
p1008
sg13
I81051813
sg14
I223380
sg15
g28
sg17
g984
sg20
g21
sg22
g38
sg23
S'yhaawdhaba'
p1009
sg25
I10
sa(dp1010
g3
g981
sg11
S'696f15d5-8d79-4f17-98e7-d9d234416ce2'
p1011
sg13
I81051813
sg14
I223380
sg15
g28
sg17
g984
sg20
g21
sg22
g38
sg23
S'yhaasm7aba'
p1012
sg25
I10
sa(dp1013
g3
g981
sg11
S'b431abbf-4870-470a-821f-351ac4c9845d'
p1014
sg13
I81051813
sg14
I223380
sg15
g28
sg17
g984
sg20
g21
sg22
g38
sg23
S'yhaa7pmaba'
p1015
sg25
I10
sa(dp1016
g3
g981
sg11
S'f3fb8a1b-fc9b-415c-9d3f-1c12f4acb84c'
p1017
sg13
I81051813
sg14
I223380
sg15
g28
sg17
g984
sg20
g21
sg22
g38
sg23
S'yhaaprkaba'
p1018
sg25
I10
sa(dp1019
g3
g981
sg11
S'2d3896b7-8bfa-4917-a721-e458f8d5e4fe'
p1020
sg13
I81051813
sg14
I223380
sg15
g28
sg17
g984
sg20
g21
sg22
g38
sg23
S'yhaakm8aba'
p1021
sg25
I10
sa(dp1022
g3
g981
sg11
S'4065cb78-d1bc-4eed-83a2-02f7ab8f8d0d'
p1023
sg13
I81051813
sg14
I223380
sg15
g28
sg17
g984
sg20
g21
sg22
g38
sg23
S'yhaa58gaba'
p1024
sg25
I10
sa(dp1025
g3
g981
sg11
S'd8761c20-0982-4ed5-a2e8-5228eb4e022e'
p1026
sg13
I81051813
sg14
I223380
sg15
g28
sg17
g984
sg20
g21
sg22
g38
sg23
S'yhaanb5aba'
p1027
sg25
I10
sa(dp1028
g3
g4
(g5
g6
VCorporate - Silver
tRp1029
(dp1030
g9
Nsg10
I00
sbsg11
S'3e73e3be-01a7-43f2-a08f-033d9b84a1c4'
p1031
sg13
I81153506
sg14
I223382
sg15
g28
sg17
g18
(S'\x07\xdf\x04\x1b\x0c\x03\x0f\x06\xb6\xc0'
tRp1032
sg20
g21
sg22
g1029
sg23
S'vngsc45aa3'
p1033
sg25
I3
sa(dp1034
g3
g1029
sg11
S'f1cfdee4-57e9-44ca-a968-b51aab64f25d'
p1035
sg13
I81153506
sg14
I223382
sg15
g16
sg17
g1032
sg20
g21
sg22
g1029
sg23
S'vngs9yfaa2'
p1036
sg25
I2
sa(dp1037
g3
g4
(g5
g6
VAcademic - Gold
tRp1038
(dp1039
g9
Nsg10
I00
sbsg11
S'38f29040-5bb3-4eee-90ca-b88129e7ee19'
p1040
sg13
I81203930
sg14
I223383
sg15
g350
sg17
g18
(S'\x07\xdf\x04\x1c\t(\x1d\x0c\xb5\xe8'
tRp1041
sg20
g21
sg22
g1038
sg23
S'mntndstaa3'
p1042
sg25
I3
sa(dp1043
g3
g1038
sg11
S'9279cde7-e24a-4f70-a4d9-4ee0b1174738'
p1044
sg13
I81203930
sg14
I223383
sg15
g725
sg17
g1041
sg20
g726
sg22
g1038
sg23
S'mntnzktbaa'
p1045
sg25
I100
sa(dp1046
g3
g4
(g5
g6
VCorporate - Silver
tRp1047
(dp1048
g9
Nsg10
I00
sbsg11
S'1894df90-cef4-4db9-957f-b9ba47387c17'
p1049
sg13
I81219018
sg14
I223382
sg15
g28
sg17
g18
(S'\x07\xdf\x04\x1c\x0e\x031\x07\xfa\xf8'
tRp1050
sg20
g21
sg22
g1047
sg23
S'tbsf39jaa3'
p1051
sg25
I3
sa(dp1052
g3
g1047
sg11
S'be301a00-5758-40ca-af8f-493ba5a98c5d'
p1053
sg13
I81219018
sg14
I223382
sg15
g16
sg17
g1050
sg20
g21
sg22
g1047
sg23
S'tbsf3yfaa2'
p1054
sg25
I2
sa(dp1055
g3
g4
(g5
g6
VCorporate - Gold
tRp1056
(dp1057
g9
Nsg10
I00
sbsg11
S'b4ce8752-ace4-4328-9b8e-d54b8ca1e48e'
p1058
sg13
I81269116
sg14
I223381
sg15
g16
sg17
g18
(S'\x07\xdf\x04\x1d\r!0\x01\x11p'
tRp1059
sg20
g21
sg22
g1056
sg23
S'qraa75naa3'
p1060
sg25
I3
sa(dp1061
g3
g1056
sg11
S'b1bf1f98-995f-4937-a616-6c9fcf17c20a'
p1062
sg13
I81269116
sg14
I223381
sg15
g28
sg17
g1059
sg20
g21
sg22
g1056
sg23
S'qraazsxaa5'
p1063
sg25
I5
sa(dp1064
g3
g4
(g5
g6
VCorporate - Silver
tRp1065
(dp1066
g9
Nsg10
I00
sbsg11
S'57e4ea02-b014-4e79-9ea7-cdf15fde7282'
p1067
sg13
I81294822
sg14
I223382
sg15
g28
sg17
g18
(S'\x07\xdf\x04\x1e\x05$\x18\r\x94\x90'
tRp1068
sg20
g21
sg22
g1065
sg23
S'ntnsk29aa3'
p1069
sg25
I3
sa(dp1070
g3
g1065
sg11
S'1f3c6769-1e0c-4211-885b-52751e25b152'
p1071
sg13
I81294822
sg14
I223382
sg15
g16
sg17
g1068
sg20
g21
sg22
g1065
sg23
S'ntns5byaa2'
p1072
sg25
I2
sa(dp1073
g3
g4
(g5
g6
VCorporate - Silver
tRp1074
(dp1075
g9
Nsg10
I00
sbsg11
S'89033c06-b6ea-4300-bb67-aa937b537bd2'
p1076
sg13
I81295016
sg14
I223382
sg15
g28
sg17
g18
(S'\x07\xdf\x04\x1e\x05(\x0f\x06\xb6\xc0'
tRp1077
sg20
g21
sg22
g1074
sg23
S'ntnsbh6aa3'
p1078
sg25
I3
sa(dp1079
g3
g1074
sg11
S'4fb17b0c-46a0-4f86-9a0d-14845560dc63'
p1080
sg13
I81295016
sg14
I223382
sg15
g16
sg17
g1077
sg20
g21
sg22
g1074
sg23
S'ntns7phaa2'
p1081
sg25
I2
sa(dp1082
g3
g4
(g5
g6
VCorporate - Silver
tRp1083
(dp1084
g9
Nsg10
I00
sbsg11
S'c4aa1b6c-2368-4127-8aaf-8289ccb5ae2d'
p1085
sg13
I81303320
sg14
I223382
sg15
g28
sg17
g18
(S'\x07\xdf\x04\x1e\x088.\t\xa8\xa8'
tRp1086
sg20
g21
sg22
g1083
sg23
S'crnrss6aa3'
p1087
sg25
I3
sa(dp1088
g3
g1083
sg11
S'99389a2b-dca0-40cb-a531-28683062b46d'
p1089
sg13
I81303320
sg14
I223382
sg15
g16
sg17
g1086
sg20
g21
sg22
g1083
sg23
S'crnrphsaa2'
p1090
sg25
I2
sa(dp1091
g3
g4
(g5
g6
VCorporate - Gold
tRp1092
(dp1093
g9
Nsg10
I00
sbsg11
S'88f67937-e7d3-46b2-b6d5-b1d09c0fc90d'
p1094
sg13
I81315890
sg14
I223381
sg15
g16
sg17
g18
(S'\x07\xdf\x04\x1e\x0c)3\x0c\\\x10'
tRp1095
sg20
g21
sg22
g1092
sg23
S'trgtfjgaa3'
p1096
sg25
I3
sa(dp1097
g3
g1092
sg11
S'9f75282a-c89a-4828-82ed-898ace771881'
p1098
sg13
I81315890
sg14
I223381
sg15
g28
sg17
g1095
sg20
g21
sg22
g1092
sg23
S'trgtm5faa5'
p1099
sg25
I5
sa(dp1100
g3
g4
(g5
g6
VLab & Non-Profit - Silver
tRp1101
(dp1102
g9
Nsg10
I00
sbsg11
S'e016ac79-cf86-4a50-8a11-0ede3a2298dc'
p1103
sg13
I81322044
sg14
I226852
sg15
g28
sg17
g18
(S'\x07\xdf\x04\x1e\x10\x1c!\r\xd6\xf8'
tRp1104
sg20
g21
sg22
g1101
sg23
S'frbsm8taa2'
p1105
sg25
I2
sa(dp1106
g3
g4
(g5
g6
VCorporate - Silver
tRp1107
(dp1108
g9
Nsg10
I00
sbsg11
S'eb3eb3d3-1e8d-423e-9be6-9daa4db6bebc'
p1109
sg13
I81332136
sg14
I223382
sg15
g28
sg17
g18
(S'\x07\xdf\x04\x1e\x12\x07\x08\x0e\t\xc0'
tRp1110
sg20
g21
sg22
g1107
sg23
S'nvda9yhaa3'
p1111
sg25
I3
sa(dp1112
g3
g1107
sg11
S'807cf6e9-2827-49d4-a89e-f00d27a7fd4f'
p1113
sg13
I81332136
sg14
I223382
sg15
g16
sg17
g1110
sg20
g21
sg22
g1107
sg23
S'nvdahzjaa2'
p1114
sg25
I2
sa(dp1115
g3
g4
(g5
g6
VABI Partners Only - Platinum
tRp1116
(dp1117
g9
Nsg10
I00
sbsg11
S'e1f1715e-7ad3-407b-858c-f83b860b875d'
p1118
sg13
I81365703
sg14
I223380
sg15
g28
sg17
g18
(S'\x07\xdf\x05\x01\x0c1\x01\rm\x80'
tRp1119
sg20
g21
sg22
g1116
sg23
S'twsgszmaba'
p1120
sg25
I10
sa(dp1121
g3
g1116
sg11
S'cc04f19c-6e18-4c4c-9ef3-1463b45c7ce3'
p1122
sg13
I81365703
sg14
I223380
sg15
g16
sg17
g1119
sg20
g21
sg22
g1116
sg23
S'twsg6wqaa4'
p1123
sg25
I4
sa(dp1124
g3
g4
(g5
g6
VAcademic - Bronze
tRp1125
(dp1126
g9
Nsg10
I00
sbsg11
S'77fed08c-8839-46ae-96a1-a97ca029d8b3'
p1127
sg13
I81367464
sg14
I223385
sg15
g350
sg17
g18
(S"\x07\xdf\x05\x01\r\x1d'\x00Bh"
tRp1128
sg20
g21
sg22
g1125
sg23
S'wsttrbbaab'
p1129
sg25
I1
sa(dp1130
g3
g1125
sg11
S'cecdc038-7c75-4add-bd9e-ebbeb7293bb6'
p1131
sg13
I81367464
sg14
I223385
sg15
g615
sg17
g1128
sg20
g616
sg22
g1125
sg23
S'wsttvs4a25'
p1132
sg25
I25
sa(dp1133
g3
g4
(g5
g6
VABI Partners Only - Platinum
tRp1134
(dp1135
g9
Nsg10
I00
sbsg11
S'31be203e-5a70-4db7-b584-103d5e7d2139'
p1136
sg13
I81373609
sg14
I223380
sg15
g28
sg17
g18
(S'\x07\xdf\x05\x01\x10\x06:\tN\xd0'
tRp1137
sg20
g21
sg22
g1134
sg23
S'mznaz4faba'
p1138
sg25
I10
sa(dp1139
g3
g1134
sg11
S'85de93ac-175f-4303-94d0-9d0c12cde40e'
p1140
sg13
I81373609
sg14
I223380
sg15
g16
sg17
g1137
sg20
g21
sg22
g1134
sg23
S'mznac4xaa4'
p1141
sg25
I4
sa(dp1142
g3
g4
(g5
g6
VCorporate - Silver
tRp1143
(dp1144
g9
Nsg10
I00
sbsg11
S'2e6b1928-87c4-4c2a-93a0-b184373e0ea2'
p1145
sg13
I81398086
sg14
I223382
sg15
g28
sg17
g18
(S'\x07\xdf\x05\x03\t$\x13\x06\\\xe8'
tRp1146
sg20
g21
sg22
g1143
sg23
S'bckrxjqaa3'
p1147
sg25
I3
sa(dp1148
g3
g1143
sg11
S'55302cae-c2d2-41c0-b994-e4e5b4ebc11b'
p1149
sg13
I81398086
sg14
I223382
sg15
g16
sg17
g1146
sg20
g21
sg22
g1143
sg23
S'bckrggxaa2'
p1150
sg25
I2
sa(dp1151
g3
g4
(g5
g6
VABI Partners Only - Platinum
tRp1152
(dp1153
g9
Nsg10
I00
sbsg11
S'adc46df9-f88c-4b5a-9bc5-78a99d78e314'
p1154
sg13
I81432405
sg14
I223380
sg15
g16
sg17
g18
(S'\x07\xdf\x05\x04\x0b5\x16\t\x918'
tRp1155
sg20
g21
sg22
g1152
sg23
S'thghd5baa4'
p1156
sg25
I4
sa(dp1157
g3
g1152
sg11
S'5e093882-0c02-4651-a64a-cc5f6fdf8074'
p1158
sg13
I81432405
sg14
I223380
sg15
g28
sg17
g1155
sg20
g21
sg22
g1152
sg23
S'thghmx9aba'
p1159
sg25
I10
sa(dp1160
g3
g1152
sg11
S'7aa6f888-37d6-4c10-b116-c128ee806a6a'
p1161
sg13
I81432405
sg14
I223380
sg15
g28
sg17
g1155
sg20
g21
sg22
g38
sg23
S'thghmbbaba'
p1162
sg25
I10
sa(dp1163
g3
g1152
sg11
S'cfe05fec-5325-427d-abea-61750e4cd9a0'
p1164
sg13
I81432405
sg14
I223380
sg15
g28
sg17
g1155
sg20
g21
sg22
g38
sg23
S'thghds2aba'
p1165
sg25
I10
sa(dp1166
g3
g1152
sg11
S'6750ae17-f843-4e2c-ab5d-801d227e0490'
p1167
sg13
I81432405
sg14
I223380
sg15
g28
sg17
g1155
sg20
g21
sg22
g38
sg23
S'thghrb2aba'
p1168
sg25
I10
sa(dp1169
g3
g4
(g5
g6
VCorporate - Gold
tRp1170
(dp1171
g9
Nsg10
I00
sbsg11
S'8acec52c-9802-409e-a4e6-162269239ce8'
p1172
sg13
I81447714
sg14
I223381
sg15
g16
sg17
g18
(S'\x07\xdf\x05\x04\x12\x06\x02\x00\xcf\x08'
tRp1173
sg20
g21
sg22
g1170
sg23
S'thwtqs3aa3'
p1174
sg25
I3
sa(dp1175
g3
g1170
sg11
S'a236c0a7-b605-481e-b633-d815b3417e67'
p1176
sg13
I81447714
sg14
I223381
sg15
g28
sg17
g1173
sg20
g21
sg22
g1170
sg23
S'thwt6f3aa5'
p1177
sg25
I5
sa(dp1178
g3
g4
(g5
g6
VCorporate - Silver
tRp1179
(dp1180
g9
Nsg10
I00
sbsg11
S'25f29f6c-ba1a-4efd-9ff4-19d5a352c8d1'
p1181
sg13
I81481281
sg14
I223382
sg15
g28
sg17
g18
(S'\x07\xdf\x05\x05\r\x05\x10\x08\xe5X'
tRp1182
sg20
g21
sg22
g1179
sg23
S'gsnnctbaa3'
p1183
sg25
I3
sa(dp1184
g3
g1179
sg11
S'3bd655cd-85f2-4726-9a0b-6f2b375e514d'
p1185
sg13
I81481281
sg14
I223382
sg15
g16
sg17
g1182
sg20
g21
sg22
g1179
sg23
S'gsnnkktaa2'
p1186
sg25
I2
sa(dp1187
g3
g4
(g5
g6
VCorporate - Gold
tRp1188
(dp1189
g9
Nsg10
I00
sbsg11
S'e69d497d-c580-4206-96a2-435e29282a91'
p1190
sg13
I81484417
sg14
I223381
sg15
g16
sg17
g18
(S'\x07\xdf\x05\x05\x0e,\x06\x01\x1d('
tRp1191
sg20
g21
sg22
g1188
sg23
S'bmaaxtraa3'
p1192
sg25
I3
sa(dp1193
g3
g1188
sg11
S'2982adbf-ac99-44d2-8625-92adb4ed4459'
p1194
sg13
I81484417
sg14
I223381
sg15
g28
sg17
g1191
sg20
g21
sg22
g1188
sg23
S'bmaa3r2aa5'
p1195
sg25
I5
sa(dp1196
VRegistrationType
p1197
VCorporate - Gold
p1198
sVSponsorID
p1199
I79600826
sVregonline_str
p1200
V-100%
p1201
sVRegTypeID
p1202
I223381
sVbadge_type
p1203
Vspeaker_full
p1204
sVcreated_date
p1205
VWed, 06 May 2015 21:22:13 UTC
p1206
sVcode_source
p1207
VShow Management
p1208
sVID
p1209
V896caa36-82a0-41a6-8900-de144aad4b9c
p1210
sVdiscount_code
p1211
Vttaannha99
p1212
sVquantity
p1213
I99
sa(dp1214
S'RegistrationType'
p1215
g4
(g5
g6
VAcademic - Bronze
tRp1216
(dp1217
g9
Nsg10
I00
sbsS'SponsorID'
p1218
I81510483
sS'RegTypeID'
p1219
I223385
sS'badge_type'
p1220
S'academic_full'
p1221
sS'created_date'
p1222
g18
(S'\x07\xdf\x05\x06\x07\x0b\x08\x01\x92X'
tRp1223
sS'code_source'
p1224
g1216
sS'regonline_str'
p1225
S'-100%'
p1226
sS'ID'
p1227
S'fa6c823b-69f1-49b0-b725-4e8d61a82826'
p1228
sS'discount_code'
p1229
S'stvnfbzaab'
p1230
sS'quantity'
p1231
I1
sa(dp1232
g1215
g1216
sg1218
I81510483
sg1219
I223385
sg1220
S'student_10'
p1233
sg1222
g1223
sg1224
g1216
sg1225
S'-10%'
p1234
sg1227
S'b67fd086-5f55-4582-a582-da969b522b4f'
p1235
sg1229
S'stvn89ra25'
p1236
sg1231
I25
sa(dp1237
g1215
g4
(g5
g6
VAcademic - Gold
tRp1238
(dp1239
g9
Nsg10
I00
sbsg1218
I81526681
sg1219
I223383
sg1220
g1221
sg1222
g18
(S'\x07\xdf\x05\x06\x0c\x16\x1a\x0c\xaa0'
tRp1240
sg1224
g1238
sg1225
g1226
sg1227
S'd8abf7ef-8ba3-479a-ab16-594a9596a8fa'
p1241
sg1229
S'nwyr4n2aa3'
p1242
sg1231
I3
sa(dp1243
g1215
g1238
sg1218
I81526681
sg1219
I223383
sg1220
S'student_20'
p1244
sg1222
g1240
sg1224
g1238
sg1225
S'-20%'
p1245
sg1227
S'd0da48d6-9827-4496-ba0b-39439241e480'
p1246
sg1229
S'nwyrsq2baa'
p1247
sg1231
I100
sa(dp1248
g1215
g4
(g5
g6
VAcademic - Silver
tRp1249
(dp1250
g9
Nsg10
I00
sbsg1218
I81526695
sg1219
I223384
sg1220
g1221
sg1222
g18
(S'\x07\xdf\x05\x06\x0c\x13\x07\x07\xef@'
tRp1251
sg1224
g1249
sg1225
g1226
sg1227
S'3743a360-dd30-4aca-8bee-b6d6e5ccb39f'
p1252
sg1229
S'cmbnh7zaa2'
p1253
sg1231
I2
sa(dp1254
g1215
g1249
sg1218
I81526695
sg1219
I223384
sg1220
S'student_15'
p1255
sg1222
g1251
sg1224
g1249
sg1225
S'-15%'
p1256
sg1227
S'7c68a183-97e2-4088-a959-5e3971e7b498'
p1257
sg1229
S'cmbnvzga5a'
p1258
sg1231
I50
sa(dp1259
g1215
g4
(g5
g6
VCorporate - Gold
tRp1260
(dp1261
g9
Nsg10
I00
sbsg1218
I81532271
sg1219
I223381
sg1220
S'booth'
p1262
sg1222
g18
(S'\x07\xdf\x05\x06\x0e\x19*\x07\xe3\x88'
tRp1263
sg1224
g1260
sg1225
g1226
sg1227
S'889f1c2d-f43c-436e-be05-1e1c8eb3a369'
p1264
sg1229
S'rcaa5vpaa3'
p1265
sg1231
I3
sa(dp1266
g1215
g1260
sg1218
I81532271
sg1219
I223381
sg1220
S'general_full'
p1267
sg1222
g1263
sg1224
g1260
sg1225
g1226
sg1227
S'f4ba9037-ce57-416d-aab0-f1ef513afe17'
p1268
sg1229
S'rcaa48qaa5'
p1269
sg1231
I5
sa(dp1270
S'RegistrationType'
p1271
g4
(g5
g6
VABI Partners Only - Platinum
tRp1272
(dp1273
g9
Nsg10
I00
sbsS'ID'
p1274
S'25ba43a5-02ef-439a-a335-bce47de505a0'
p1275
sS'SponsorID'
p1276
I81373609
sS'RegTypeID'
p1277
I223380
sS'badge_type'
p1278
S'general_full'
p1279
sS'created_date'
p1280
g18
(S'\x07\xdf\x05\x01\x10\x06:\tN\xd0'
tRp1281
sS'regonline_str'
p1282
S'-100%'
p1283
sS'code_source'
p1284
S'Enterprise Pack'
p1285
sS'discount_code'
p1286
S'mznat3paba'
p1287
sS'quantity'
p1288
I10
sa(dp1289
g1271
g1272
sg1274
S'cb34133d-f6ba-4635-8216-68b8a646b0e1'
p1290
sg1276
I81373609
sg1277
I223380
sg1278
g1279
sg1280
g1281
sg1282
g1283
sg1284
g1285
sg1286
S'mzna32jaba'
p1291
sg1288
I10
sa(dp1292
g1271
g1272
sg1274
S'c36bba39-1e36-4ceb-81e7-bb0517a292df'
p1293
sg1276
I81373609
sg1277
I223380
sg1278
g1279
sg1280
g1281
sg1282
g1283
sg1284
g1285
sg1286
S'mzna48gaba'
p1294
sg1288
I10
sa(dp1295
g1271
g1272
sg1274
S'674aca0c-cb52-42f9-b962-112c75ea5a35'
p1296
sg1276
I81373609
sg1277
I223380
sg1278
g1279
sg1280
g1281
sg1282
g1283
sg1284
g1285
sg1286
S'mzna8k4aba'
p1297
sg1288
I10
sa(dp1298
g1271
g1272
sg1274
S'828345f6-20d9-4658-a8cb-d04cf4384d31'
p1299
sg1276
I81373609
sg1277
I223380
sg1278
g1279
sg1280
g1281
sg1282
g1283
sg1284
g1285
sg1286
S'mzna5w4aba'
p1300
sg1288
I10
sa(dp1301
g1271
g1272
sg1274
S'79d0a91b-58bc-46b6-8732-4c940f6aa8c5'
p1302
sg1276
I81373609
sg1277
I223380
sg1278
g1279
sg1280
g1281
sg1282
g1283
sg1284
g1285
sg1286
S'mznafcfaba'
p1303
sg1288
I10
sa(dp1304
g1271
g1272
sg1274
S'cabd4d7e-4a77-46c0-b191-39bbae9fb587'
p1305
sg1276
I81373609
sg1277
I223380
sg1278
g1279
sg1280
g1281
sg1282
g1283
sg1284
g1285
sg1286
S'mznadp4aba'
p1306
sg1288
I10
sa(dp1307
g1271
g1272
sg1274
S'7d812ce8-5087-4cf3-960a-a26674c3482d'
p1308
sg1276
I81373609
sg1277
I223380
sg1278
g1279
sg1280
g1281
sg1282
g1283
sg1284
g1285
sg1286
S'mznagscaba'
p1309
sg1288
I10
sa(dp1310
g1271
g1272
sg1274
S'a66aab9e-920d-4ff9-905e-7f6c927b526f'
p1311
sg1276
I81373609
sg1277
I223380
sg1278
g1279
sg1280
g1281
sg1282
g1283
sg1284
g1285
sg1286
S'mznaz42aba'
p1312
sg1288
I10
sa(dp1313
g1271
g1272
sg1274
S'1c44d24f-6e01-4263-b3ec-3f068fa92564'
p1314
sg1276
I81373609
sg1277
I223380
sg1278
g1279
sg1280
g1281
sg1282
g1283
sg1284
g1285
sg1286
S'mznazxjaba'
p1315
sg1288
I10
sa(dp1316
g1271
g1272
sg1274
S'af6bd2be-d428-4e2b-92fc-6783824fd902'
p1317
sg1276
I81373609
sg1277
I223380
sg1278
g1279
sg1280
g1281
sg1282
g1283
sg1284
g1285
sg1286
S'mznamchaba'
p1318
sg1288
I10
sa(dp1319
g1271
g1272
sg1274
S'627ca5ad-e1cd-4cfc-90f5-483a09877e84'
p1320
sg1276
I81373609
sg1277
I223380
sg1278
g1279
sg1280
g1281
sg1282
g1283
sg1284
g1285
sg1286
S'mznak2kaba'
p1321
sg1288
I10
sa(dp1322
g1271
g1272
sg1274
S'503b50e1-0ee1-475c-9157-1fe2e9288a7c'
p1323
sg1276
I81373609
sg1277
I223380
sg1278
g1279
sg1280
g1281
sg1282
g1283
sg1284
g1285
sg1286
S'mznarkgaba'
p1324
sg1288
I10
sa(dp1325
g1271
g1272
sg1274
S'1a873c0f-2eb8-4fc8-8e04-b5ec7dc923eb'
p1326
sg1276
I81373609
sg1277
I223380
sg1278
g1279
sg1280
g1281
sg1282
g1283
sg1284
g1285
sg1286
S'mzna4kqaba'
p1327
sg1288
I10
sa(dp1328
g1271
g1272
sg1274
S'178935ec-7545-437c-b89a-b50d4309e903'
p1329
sg1276
I81373609
sg1277
I223380
sg1278
g1279
sg1280
g1281
sg1282
g1283
sg1284
g1285
sg1286
S'mznas8haba'
p1330
sg1288
I10
sa(dp1331
g1271
g1272
sg1274
S'81336ea8-a504-47bb-94e1-47776e9ca2b9'
p1332
sg1276
I81373609
sg1277
I223380
sg1278
g1279
sg1280
g1281
sg1282
g1283
sg1284
g1285
sg1286
S'mzna77waba'
p1333
sg1288
I10
sa(dp1334
g1271
g1272
sg1274
S'fe9ebe5e-0d35-42cc-a8a7-fb56e3aa6a66'
p1335
sg1276
I81373609
sg1277
I223380
sg1278
g1279
sg1280
g1281
sg1282
g1283
sg1284
g1285
sg1286
S'mznab9kaba'
p1336
sg1288
I10
sa(dp1337
g1271
g1272
sg1274
S'14ec27b0-61d9-4ad3-bd4e-2d99ec8eb8ad'
p1338
sg1276
I81373609
sg1277
I223380
sg1278
g1279
sg1280
g1281
sg1282
g1283
sg1284
g1285
sg1286
S'mznarmdaba'
p1339
sg1288
I10
sa(dp1340
g1271
g1272
sg1274
S'893b90db-f126-4864-9384-b95da62b0d16'
p1341
sg1276
I81373609
sg1277
I223380
sg1278
g1279
sg1280
g1281
sg1282
g1283
sg1284
g1285
sg1286
S'mznagvzaba'
p1342
sg1288
I10
sa(dp1343
g1271
g1272
sg1274
S'eeb7070f-c503-46cf-84f0-ec3332407d7c'
p1344
sg1276
I81373609
sg1277
I223380
sg1278
g1279
sg1280
g1281
sg1282
g1283
sg1284
g1285
sg1286
S'mznamzpaba'
p1345
sg1288
I10
sa(dp1346
VRegistrationType
p1347
VCorporate - Gold
p1348
sVSponsorID
p1349
I79600826
sVregonline_str
p1350
V-100%
p1351
sVRegTypeID
p1352
I223381
sVbadge_type
p1353
Vacademic_full
p1354
sVcreated_date
p1355
VThu, 07 May 2015 10:26:59 UTC
p1356
sVcode_source
p1357
VShow Management
p1358
sVID
p1359
V1510d6a7-d6f5-4b85-a011-d7bb0c322e4b
p1360
sVdiscount_code
p1361
Vttaawqmaab
p1362
sVquantity
p1363
I1
sa(dp1364
VRegistrationType
p1365
VCorporate - Gold
p1366
sVID
p1367
V5f9c49a5-c39f-48ac-a375-2cf3cd121c17
p1368
sVSponsorID
p1369
I79600826
sVRegTypeID
p1370
I223381
sVbadge_type
p1371
Vacademic_full
p1372
sVcreated_date
p1373
VThu, 07 May 2015 10:27:57 UTC
p1374
sVcode_source
p1375
VShow Management
p1376
sVregonline_str
p1377
V-100%
p1378
sVdiscount_code
p1379
Vttaaxj5aab
p1380
sVquantity
p1381
I1
sa(dp1382
VRegistrationType
p1383
VCorporate - Gold
p1384
sVSponsorID
p1385
I79600826
sVRegTypeID
p1386
I223381
sVbadge_type
p1387
Vacademic_full
p1388
sVcreated_date
p1389
VThu, 07 May 2015 10:28:29 UTC
p1390
sVcode_source
p1391
VShow Management
p1392
sVregonline_str
p1393
V-100%
p1394
sVID
p1395
V235b1aac-561a-4afb-98b0-c5c1b96af469
p1396
sVdiscount_code
p1397
Vttaa2kjaab
p1398
sVquantity
p1399
I1
sa(dp1400
S'RegistrationType'
p1401
g4
(g5
g6
VAcademic - Silver
tRp1402
(dp1403
g9
Nsg10
I00
sbsS'code_source'
p1404
g1402
sS'badge_type_name'
p1405
S'Academic'
p1406
sS'SponsorID'
p1407
I81556060
sS'discount_search_url'
p1408
S'http://ec2-52-12-132-124.us-west-2.compute.amazonaws.com/discount_code/?code=prnd4wsaa2'
p1409
sS'RegTypeID'
p1410
I223384
sS'badge_type'
p1411
S'academic_full'
p1412
sS'created_date'
p1413
g18
(S'\x07\xdf\x05\x07\x07(\t\r\xe2\xb0'
tRp1414
sS'regonline_url'
p1415
S'https://www.regonline.com?eventID=1702108&rTypeID=228783'
p1416
sS'regonline_str'
p1417
S'-100%'
p1418
sS'ID'
p1419
S'e8821d64-4a99-4a67-ac94-52513cfbaba5'
p1420
sS'discount_code'
p1421
S'prnd4wsaa2'
p1422
sS'quantity'
p1423
I2
sa(dp1424
g1401
g1402
sg1404
g1402
sg1405
S'Student 15% Off'
p1425
sg1407
I81556060
sg1408
S'http://ec2-52-12-132-124.us-west-2.compute.amazonaws.com/discount_code/?code=prndmz4a5a'
p1426
sg1410
I223384
sg1411
S'student_15'
p1427
sg1413
g1414
sg1415
S'https://www.regonline.com?eventID=1702108&rTypeID=228782'
p1428
sg1417
S'-15%'
p1429
sg1419
S'25ff6c50-9d5f-4166-9583-739f42d0cc49'
p1430
sg1421
S'prndmz4a5a'
p1431
sg1423
I50
sa(dp1432
S'RegistrationType'
p1433
g4
(g5
g6
VCorporate - Gold
tRp1434
(dp1435
g9
Nsg10
I00
sbsS'discount_search_url'
p1436
S'http://ec2-52-12-132-124.us-west-2.compute.amazonaws.com/discount_code/?code=rdht3ffaa3'
p1437
sS'ID'
p1438
S'cecc965e-8511-4104-88a6-05806cf833cb'
p1439
sS'SponsorID'
p1440
I81579619
sS'badge_type_name'
p1441
S'Booth Staff Only'
p1442
sS'RegTypeID'
p1443
I223381
sS'badge_type'
p1444
S'booth'
p1445
sS'created_date'
p1446
g18
(S"\x07\xdf\x05\x07\x11\x00'\x06\xb6\xc0"
tRp1447
sS'regonline_url'
p1448
S'https://www.regonline.com?eventID=1702108&rTypeID=228807'
p1449
sS'regonline_str'
p1450
S'-100%'
p1451
sS'code_source'
p1452
g1434
sS'discount_code'
p1453
S'rdht3ffaa3'
p1454
sS'quantity'
p1455
I3
sa(dp1456
g1433
g1434
sg1436
S'http://ec2-52-12-132-124.us-west-2.compute.amazonaws.com/discount_code/?code=rdhtkkkaa5'
p1457
sg1438
S'8fd99140-87ec-4393-b0b9-c91ce93c4719'
p1458
sg1440
I81579619
sg1441
S'General'
p1459
sg1443
I223381
sg1444
S'general_full'
p1460
sg1446
g1447
sg1448
S'https://www.regonline.com?eventID=1702108&rTypeID=228781'
p1461
sg1450
g1451
sg1452
g1434
sg1453
S'rdhtkkkaa5'
p1462
sg1455
I5
sa(dp1463
S'regonline_str'
p1464
S'-100%'
p1465
sS'RegistrationType'
p1466
g4
(g5
g6
VAcademic - Silver
tRp1467
(dp1468
g9
Nsg10
I00
sbsS'badge_type_name'
p1469
S'Academic'
p1470
sS'SponsorID'
p1471
I81595325
sS'discount_search_url'
p1472
S'http://ec2-52-12-132-124.us-west-2.compute.amazonaws.com/discount_code/?code=nvrsbffaa2'
p1473
sS'RegTypeID'
p1474
I223384
sS'badge_type'
p1475
S'academic_full'
p1476
sS'created_date'
p1477
g18
(S'\x07\xdf\x05\x08\x07\x1a\x07\x0e<\x88'
tRp1478
sS'regonline_url'
p1479
S'https://www.regonline.com?eventID=1702108&rTypeID=228783'
p1480
sS'code_source'
p1481
g1467
sS'ID'
p1482
S'5ec599f7-3545-475d-a6f8-3a6f97c8285a'
p1483
sS'discount_code'
p1484
S'nvrsbffaa2'
p1485
sS'quantity'
p1486
I2
sa(dp1487
g1464
S'-15%'
p1488
sg1466
g1467
sg1469
S'Student 15% Off'
p1489
sg1471
I81595325
sg1472
S'http://ec2-52-12-132-124.us-west-2.compute.amazonaws.com/discount_code/?code=nvrsh6va5a'
p1490
sg1474
I223384
sg1475
S'student_15'
p1491
sg1477
g1478
sg1479
S'https://www.regonline.com?eventID=1702108&rTypeID=228782'
p1492
sg1481
g1467
sg1482
S'14035ca7-bf52-40a4-9908-b7ae1b199a09'
p1493
sg1484
S'nvrsh6va5a'
p1494
sg1486
I50
sa(dp1495
S'RegistrationType'
p1496
g4
(g5
g6
VABI Partners Only - Platinum
tRp1497
(dp1498
g9
Nsg10
I00
sbsS'discount_search_url'
p1499
S'http://ec2-52-12-132-124.us-west-2.compute.amazonaws.com/discount_code/?code=bnkfq5yaba'
p1500
sS'ID'
p1501
S'0da1c5a7-5462-4b1a-bb25-fdf9eeb547a6'
p1502
sS'SponsorID'
p1503
I79402913
sS'badge_type_name'
p1504
S'General'
p1505
sS'RegTypeID'
p1506
I223380
sS'badge_type'
p1507
S'general_full'
p1508
sS'created_date'
p1509
g18
(S'\x07\xdf\x03\r\x0b!\x07\x0e\xa6\x00'
tRp1510
sS'regonline_url'
p1511
S'https://www.regonline.com?eventID=1702108&rTypeID=228781'
p1512
sS'code_source'
p1513
S'Enterprise Pack'
p1514
sS'regonline_str'
p1515
S'-100%'
p1516
sS'discount_code'
p1517
S'bnkfq5yaba'
p1518
sS'quantity'
p1519
I10
sa(dp1520
g1496
g1497
sg1499
S'http://ec2-52-12-132-124.us-west-2.compute.amazonaws.com/discount_code/?code=bnkfc42aba'
p1521
sg1501
S'b1fee360-d034-444d-a553-8bfb60981df1'
p1522
sg1503
I79402913
sg1504
g1505
sg1506
I223380
sg1507
g1508
sg1509
g1510
sg1511
g1512
sg1513
g1514
sg1515
g1516
sg1517
S'bnkfc42aba'
p1523
sg1519
I10
sa(dp1524
g1496
g1497
sg1499
S'http://ec2-52-12-132-124.us-west-2.compute.amazonaws.com/discount_code/?code=bnkf44naba'
p1525
sg1501
S'69d8f907-a2bd-467c-9f2e-3948ace53948'
p1526
sg1503
I79402913
sg1504
g1505
sg1506
I223380
sg1507
g1508
sg1509
g1510
sg1511
g1512
sg1513
g1514
sg1515
g1516
sg1517
S'bnkf44naba'
p1527
sg1519
I10
sa(dp1528
g1496
g1497
sg1499
S'http://ec2-52-12-132-124.us-west-2.compute.amazonaws.com/discount_code/?code=bnkfnpgaba'
p1529
sg1501
S'160b13df-8378-49af-93f5-0cb08a8b288f'
p1530
sg1503
I79402913
sg1504
g1505
sg1506
I223380
sg1507
g1508
sg1509
g1510
sg1511
g1512
sg1513
g1514
sg1515
g1516
sg1517
S'bnkfnpgaba'
p1531
sg1519
I10
sa(dp1532
g1496
g1497
sg1499
S'http://ec2-52-12-132-124.us-west-2.compute.amazonaws.com/discount_code/?code=bnkfb35aba'
p1533
sg1501
S'4dfae7a8-e5da-4705-827c-74af5dbe61f4'
p1534
sg1503
I79402913
sg1504
g1505
sg1506
I223380
sg1507
g1508
sg1509
g1510
sg1511
g1512
sg1513
g1514
sg1515
g1516
sg1517
S'bnkfb35aba'
p1535
sg1519
I10
sa(dp1536
S'regonline_str'
p1537
S'-100%'
p1538
sS'RegistrationType'
p1539
g4
(g5
g6
VAcademic - Bronze
tRp1540
(dp1541
g9
Nsg10
I00
sbsS'badge_type_name'
p1542
S'Academic'
p1543
sS'SponsorID'
p1544
I81602634
sS'discount_search_url'
p1545
S'http://ec2-52-12-132-124.us-west-2.compute.amazonaws.com/discount_code/?code=dprtt2paab'
p1546
sS'RegTypeID'
p1547
I223385
sS'badge_type'
p1548
S'academic_full'
p1549
sS'created_date'
p1550
g18
(S'\x07\xdf\x05\x08\n\x14\x1b\t\x9c\xf0'
tRp1551
sS'regonline_url'
p1552
S'https://www.regonline.com?eventID=1702108&rTypeID=228783'
p1553
sS'code_source'
p1554
g1540
sS'ID'
p1555
S'77885721-4bb0-4488-8c60-57f09c7dbf99'
p1556
sS'discount_code'
p1557
S'dprtt2paab'
p1558
sS'quantity'
p1559
I1
sa(dp1560
g1537
S'-10%'
p1561
sg1539
g1540
sg1542
S'Student 10% Off'
p1562
sg1544
I81602634
sg1545
S'http://ec2-52-12-132-124.us-west-2.compute.amazonaws.com/discount_code/?code=dprtzsya25'
p1563
sg1547
I223385
sg1548
S'student_10'
p1564
sg1550
g1551
sg1552
S'https://www.regonline.com?eventID=1702108&rTypeID=228782'
p1565
sg1554
g1540
sg1555
S'3ba1bbe1-2f93-4d25-aea1-f2a9db697f84'
p1566
sg1557
S'dprtzsya25'
p1567
sg1559
I25
sa(dp1568
S'RegistrationType'
p1569
g4
(g5
g6
VCorporate - Silver
tRp1570
(dp1571
g9
Nsg10
I00
sbsS'discount_search_url'
p1572
S'http://ec2-52-12-132-124.us-west-2.compute.amazonaws.com/discount_code/?code=prmrm32aa3'
p1573
sS'ID'
p1574
S'58b9a37b-f6dc-4a19-8e81-7e7ade2c1272'
p1575
sS'SponsorID'
p1576
I81604560
sS'badge_type_name'
p1577
S'General'
p1578
sS'RegTypeID'
p1579
I223382
sS'badge_type'
p1580
S'general_full'
p1581
sS'created_date'
p1582
g18
(S'\x07\xdf\x05\x08\x0b\r/\x00Y\xd8'
tRp1583
sS'regonline_url'
p1584
S'https://www.regonline.com?eventID=1702108&rTypeID=228781'
p1585
sS'regonline_str'
p1586
S'-100%'
p1587
sS'code_source'
p1588
g1570
sS'discount_code'
p1589
S'prmrm32aa3'
p1590
sS'quantity'
p1591
I3
sa(dp1592
g1569
g1570
sg1572
S'http://ec2-52-12-132-124.us-west-2.compute.amazonaws.com/discount_code/?code=prmrmy6aa2'
p1593
sg1574
S'62b4fd9e-0891-4997-b3e3-9aace75591f1'
p1594
sg1576
I81604560
sg1577
S'Booth Staff Only'
p1595
sg1579
I223382
sg1580
S'booth'
p1596
sg1582
g1583
sg1584
S'https://www.regonline.com?eventID=1702108&rTypeID=228807'
p1597
sg1586
g1587
sg1588
g1570
sg1589
S'prmrmy6aa2'
p1598
sg1591
I2
sa(dp1599
g1569
g4
(g5
g6
VAcademic - Gold
tRp1600
(dp1601
g9
Nsg10
I00
sbsg1572
S'http://ec2-52-12-132-124.us-west-2.compute.amazonaws.com/discount_code/?code=grgt23raa3'
p1602
sg1574
S'ea63ec52-a8a0-40a5-8dfd-e2fb842a6a08'
p1603
sg1576
I81604792
sg1577
S'Academic'
p1604
sg1579
I223383
sg1580
S'academic_full'
p1605
sg1582
g18
(S'\x07\xdf\x05\x08\x0b\x0b3\x05\xb1\x08'
tRp1606
sg1584
S'https://www.regonline.com?eventID=1702108&rTypeID=228783'
p1607
sg1586
g1587
sg1588
g1600
sg1589
S'grgt23raa3'
p1608
sg1591
I3
sa(dp1609
g1569
g1600
sg1572
S'http://ec2-52-12-132-124.us-west-2.compute.amazonaws.com/discount_code/?code=grgt49fbaa'
p1610
sg1574
S'77117399-771a-4467-bdf1-a2dc8d398c8f'
p1611
sg1576
I81604792
sg1577
S'Student 20% Off'
p1612
sg1579
I223383
sg1580
S'student_20'
p1613
sg1582
g1606
sg1584
S'https://www.regonline.com?eventID=1702108&rTypeID=228782'
p1614
sg1586
S'-20%'
p1615
sg1588
g1600
sg1589
S'grgt49fbaa'
p1616
sg1591
I100
sa(dp1617
S'regonline_str'
p1618
S'-100%'
p1619
sS'RegistrationType'
p1620
g4
(g5
g6
VCorporate - Gold
tRp1621
(dp1622
g9
Nsg10
I00
sbsS'badge_type_name'
p1623
S'Booth Staff Only'
p1624
sS'SponsorID'
p1625
I81605421
sS'discount_search_url'
p1626
S'http://ec2-52-12-132-124.us-west-2.compute.amazonaws.com/discount_code/?code=aaaavqvaa3'
p1627
sS'RegTypeID'
p1628
I223381
sS'badge_type'
p1629
S'booth'
p1630
sS'created_date'
p1631
g18
(S'\x07\xdf\x05\x08\x0b\x1f4\r\x88\xd8'
tRp1632
sS'regonline_url'
p1633
S'https://www.regonline.com?eventID=1702108&rTypeID=228807'
p1634
sS'code_source'
p1635
g1621
sS'ID'
p1636
S'e9089f97-0516-4485-a6db-fb8891359986'
p1637
sS'discount_code'
p1638
S'aaaavqvaa3'
p1639
sS'quantity'
p1640
I3
sa(dp1641
g1618
g1619
sg1620
g1621
sg1623
S'General'
p1642
sg1625
I81605421
sg1626
S'http://ec2-52-12-132-124.us-west-2.compute.amazonaws.com/discount_code/?code=aaaapcjaa5'
p1643
sg1628
I223381
sg1629
S'general_full'
p1644
sg1631
g1632
sg1633
S'https://www.regonline.com?eventID=1702108&rTypeID=228781'
p1645
sg1635
g1621
sg1636
S'5202f6d5-502b-4e36-b789-92d961a27253'
p1646
sg1638
S'aaaapcjaa5'
p1647
sg1640
I5
sa(dp1648
S'RegistrationType'
p1649
g4
(g5
g6
VCorporate - Silver
tRp1650
(dp1651
g9
Nsg10
I00
sbsS'discount_search_url'
p1652
S'http://ec2-52-12-132-124.us-west-2.compute.amazonaws.com/discount_code/?code=jnstz6yaa3'
p1653
sS'ID'
p1654
S'd58ffc60-fd86-4d3f-8eec-7e37965b0b1e'
p1655
sS'SponsorID'
p1656
I81609610
sS'badge_type_name'
p1657
S'General'
p1658
sS'RegTypeID'
p1659
I223382
sS'badge_type'
p1660
S'general_full'
p1661
sS'created_date'
p1662
g18
(S'\x07\xdf\x05\x08\r\x145\x04\x1e\xb0'
tRp1663
sS'regonline_url'
p1664
S'https://www.regonline.com?eventID=1702108&rTypeID=228781'
p1665
sS'regonline_str'
p1666
S'-100%'
p1667
sS'code_source'
p1668
g1650
sS'discount_code'
p1669
S'jnstz6yaa3'
p1670
sS'quantity'
p1671
I3
sa(dp1672
g1649
g1650
sg1652
S'http://ec2-52-12-132-124.us-west-2.compute.amazonaws.com/discount_code/?code=jnst3shaa2'
p1673
sg1654
S'59f0f19c-ef54-49f0-a247-d808d34d015c'
p1674
sg1656
I81609610
sg1657
S'Booth Staff Only'
p1675
sg1659
I223382
sg1660
S'booth'
p1676
sg1662
g1663
sg1664
S'https://www.regonline.com?eventID=1702108&rTypeID=228807'
p1677
sg1666
g1667
sg1668
g1650
sg1669
S'jnst3shaa2'
p1678
sg1671
I2
sa(dp1679
S'RegistrationType'
p1680
g4
(g5
g6
VAcademic - Silver
tRp1681
(dp1682
g9
Nsg10
I00
sbsS'discount_search_url'
p1683
S'http://ec2-52-12-132-124.us-west-2.compute.amazonaws.com/discount_code/?code=wshn2t5aa2'
p1684
sS'ID'
p1685
S'd8faf34c-2b35-4367-a10d-d26861475a15'
p1686
sS'SponsorID'
p1687
I81610009
sS'badge_type_name'
p1688
S'Academic'
p1689
sS'RegTypeID'
p1690
I223384
sS'badge_type'
p1691
S'academic_full'
p1692
sS'created_date'
p1693
g18
(S'\x07\xdf\x05\x08\x0e\r8\x00u0'
tRp1694
sS'regonline_url'
p1695
S'https://www.regonline.com?eventID=1702108&rTypeID=228783'
p1696
sS'code_source'
p1697
g1681
sS'regonline_str'
p1698
S'-100%'
p1699
sS'discount_code'
p1700
S'wshn2t5aa2'
p1701
sS'quantity'
p1702
I2
sa(dp1703
g1680
g1681
sg1683
S'http://ec2-52-12-132-124.us-west-2.compute.amazonaws.com/discount_code/?code=wshndhna5a'
p1704
sg1685
S'989e6fb3-4ae7-4080-b14e-adb971fb6c84'
p1705
sg1687
I81610009
sg1688
S'Student 15% Off'
p1706
sg1690
I223384
sg1691
S'student_15'
p1707
sg1693
g1694
sg1695
S'https://www.regonline.com?eventID=1702108&rTypeID=228782'
p1708
sg1697
g1681
sg1698
S'-15%'
p1709
sg1700
S'wshndhna5a'
p1710
sg1702
I50
sa(dp1711
S'regonline_str'
p1712
S'-100%'
p1713
sS'RegistrationType'
p1714
g4
(g5
g6
VAcademic - Silver
tRp1715
(dp1716
g9
Nsg10
I00
sbsS'badge_type_name'
p1717
S'Academic'
p1718
sS'SponsorID'
p1719
I81612858
sS'discount_search_url'
p1720
S'http://ec2-52-12-132-124.us-west-2.compute.amazonaws.com/discount_code/?code=rzns6h7aa2'
p1721
sS'RegTypeID'
p1722
I223384
sS'badge_type'
p1723
S'academic_full'
p1724
sS'created_date'
p1725
g18
(S'\x07\xdf\x05\x08\x0e9(\x0b#\x90'
tRp1726
sS'regonline_url'
p1727
S'https://www.regonline.com?eventID=1702108&rTypeID=228783'
p1728
sS'code_source'
p1729
g1715
sS'ID'
p1730
S'6eaa7ba1-fea7-4d92-8400-1f5fb4ce53a8'
p1731
sS'discount_code'
p1732
S'rzns6h7aa2'
p1733
sS'quantity'
p1734
I2
sa(dp1735
g1712
S'-15%'
p1736
sg1714
g1715
sg1717
S'Student 15% Off'
p1737
sg1719
I81612858
sg1720
S'http://ec2-52-12-132-124.us-west-2.compute.amazonaws.com/discount_code/?code=rznswyqa5a'
p1738
sg1722
I223384
sg1723
S'student_15'
p1739
sg1725
g1726
sg1727
S'https://www.regonline.com?eventID=1702108&rTypeID=228782'
p1740
sg1729
g1715
sg1730
S'9015ed42-7934-4dac-bbba-95c65a4c0a26'
p1741
sg1732
S'rznswyqa5a'
p1742
sg1734
I50
sa.