(lp1
(dp2
S'RegistrationType'
p3
S'Corporate - Gold'
p4
sS'ID'
p5
VAccenCGOLD15BGenR2Q15o
p6
sS'SponsorID'
p7
I77845613
sS'RegTypeID'
p8
I223381
sS'badge_type'
p9
VGeneral
p10
sS'created_date'
p11
S'Wed, 13 May 2015 03:36:37 UTC'
p12
sS'code_source'
p13
g4
sS'regonline_str'
p14
F0
sS'discount_code'
p15
g6
sS'quantity'
p16
F5
sa(dp17
g3
g4
sg5
VAccenCGOLD15BBoSR2Q15o
p18
sg7
I77845613
sg8
I223381
sg9
VBooth
p19
sg11
S'Wed, 13 May 2015 03:36:37 UTC'
p20
sg13
g4
sg14
F0
sg15
g18
sg16
F2
sa(dp21
g3
g4
sg5
VAccenCGOLD15BPrRec2Q15o
p22
sg7
I77845613
sg8
I223381
sg9
Nsg11
S'Wed, 13 May 2015 03:36:37 UTC'
p23
sg13
g4
sg14
F0
sg15
g22
sg16
F2
sa(dp24
g3
S'ABI Partners Only - Diamond'
p25
sg5
VCapit152Q118
p26
sg7
I77845651
sg8
I223379
sg9
VOne Day
p27
sg11
S'Wed, 13 May 2015 03:34:55 UTC'
p28
sg13
g25
sg14
F0
sg15
g26
sg16
F1
sa(dp29
g3
g25
sg5
VCapitDIA15BGenR2Q118
p30
sg7
I77845651
sg8
I223379
sg9
VGeneral
p31
sg11
S'Wed, 13 May 2015 03:34:55 UTC'
p32
sg13
g25
sg14
F0
sg15
g30
sg16
F20
sa(dp33
g3
g25
sg5
VCapitDIA15BBoSR2Q118
p34
sg7
I77845651
sg8
I223379
sg9
VBooth
p35
sg11
S'Wed, 13 May 2015 03:34:55 UTC'
p36
sg13
g25
sg14
F0
sg15
g34
sg16
F8
sa(dp37
g3
g25
sg5
VCapitDIA15BPrRec2Q118
p38
sg7
I77845651
sg8
I223379
sg9
Nsg11
S'Wed, 13 May 2015 03:34:55 UTC'
p39
sg13
g25
sg14
F0
sg15
g38
sg16
F6
sa(dp40
g3
g25
sg5
VCapit1510DGenR2Q118
p41
sg7
I77845651
sg8
I223379
sg9
VGeneral
p42
sg11
S'Wed, 13 May 2015 03:34:55 UTC'
p43
sg13
g25
sg14
F0
sg15
g41
sg16
F120
sa(dp44
g3
S'Corporate - Gold'
p45
sg5
VBoxCGOLD15BGenR2Q15k
p46
sg7
I77859939
sg8
I223381
sg9
VGeneral
p47
sg11
S'Wed, 13 May 2015 03:36:39 UTC'
p48
sg13
g45
sg14
F0
sg15
g46
sg16
F5
sa(dp49
g3
g45
sg5
VBoxCGOLD15BBoSR2Q15k
p50
sg7
I77859939
sg8
I223381
sg9
VBooth
p51
sg11
S'Wed, 13 May 2015 03:36:39 UTC'
p52
sg13
g45
sg14
F0
sg15
g50
sg16
F2
sa(dp53
g3
g45
sg5
VBoxCGOLD15BPrRec2Q15k
p54
sg7
I77859939
sg8
I223381
sg9
Nsg11
S'Wed, 13 May 2015 03:36:39 UTC'
p55
sg13
g45
sg14
F0
sg15
g54
sg16
F2
sa(dp56
g3
S'Corporate - Silver'
p57
sg5
VMongoCSIL15BGenR2Q16X
p58
sg7
I77866379
sg8
I223382
sg9
VGeneral
p59
sg11
S'Wed, 13 May 2015 03:36:54 UTC'
p60
sg13
g57
sg14
F0
sg15
g58
sg16
F3
sa(dp61
g3
g57
sg5
VMongoCSIL15BBoSR2Q16X
p62
sg7
I77866379
sg8
I223382
sg9
VBooth
p63
sg11
S'Wed, 13 May 2015 03:36:54 UTC'
p64
sg13
g57
sg14
F0
sg15
g62
sg16
F3
sa(dp65
g3
g57
sg5
VMongoCSIL15BPrRec2Q16X
p66
sg7
I77866379
sg8
I223382
sg9
Nsg11
S'Wed, 13 May 2015 03:36:54 UTC'
p67
sg13
g57
sg14
F0
sg15
g66
sg16
F1
sa(dp68
g3
S'Corporate - Gold'
p69
sg5
VGE SoCGOLD15BGenR2Q14m
p70
sg7
I77874390
sg8
I223381
sg9
VGeneral
p71
sg11
S'Wed, 13 May 2015 03:36:40 UTC'
p72
sg13
g69
sg14
F0
sg15
g70
sg16
F5
sa(dp73
g3
g69
sg5
VGE SoCGOLD15BBoSR2Q14m
p74
sg7
I77874390
sg8
I223381
sg9
VBooth
p75
sg11
S'Wed, 13 May 2015 03:36:40 UTC'
p76
sg13
g69
sg14
F0
sg15
g74
sg16
F2
sa(dp77
g3
g69
sg5
VGE SoCGOLD15BPrRec2Q14m
p78
sg7
I77874390
sg8
I223381
sg9
Nsg11
S'Wed, 13 May 2015 03:36:40 UTC'
p79
sg13
g69
sg14
F0
sg15
g78
sg16
F2
sa(dp80
g3
S'Corporate - Gold'
p81
sg5
VPalanCGOLD15BGenR2Q15t
p82
sg7
I77902004
sg8
I223381
sg9
VGeneral
p83
sg11
S'Wed, 13 May 2015 03:36:42 UTC'
p84
sg13
g81
sg14
F0
sg15
g82
sg16
F5
sa(dp85
g3
g81
sg5
VPalanCGOLD15BBoSR2Q15t
p86
sg7
I77902004
sg8
I223381
sg9
VBooth
p87
sg11
S'Wed, 13 May 2015 03:36:42 UTC'
p88
sg13
g81
sg14
F0
sg15
g86
sg16
F2
sa(dp89
g3
g81
sg5
VPalanCGOLD15BPrRec2Q15t
p90
sg7
I77902004
sg8
I223381
sg9
Nsg11
S'Wed, 13 May 2015 03:36:42 UTC'
p91
sg13
g81
sg14
F0
sg15
g90
sg16
F2
sa(dp92
g3
S'Corporate - Gold'
p93
sg5
VMorgaCGOLD15BGenR2Q15y
p94
sg7
I77928319
sg8
I223381
sg9
VGeneral
p95
sg11
S'Wed, 13 May 2015 03:36:43 UTC'
p96
sg13
g93
sg14
F0
sg15
g94
sg16
F5
sa(dp97
g3
g93
sg5
VMorgaCGOLD15BBoSR2Q15y
p98
sg7
I77928319
sg8
I223381
sg9
VBooth
p99
sg11
S'Wed, 13 May 2015 03:36:43 UTC'
p100
sg13
g93
sg14
F0
sg15
g98
sg16
F2
sa(dp101
g3
g93
sg5
VMorgaCGOLD15BPrRec2Q15y
p102
sg7
I77928319
sg8
I223381
sg9
Nsg11
S'Wed, 13 May 2015 03:36:43 UTC'
p103
sg13
g93
sg14
F0
sg15
g102
sg16
F2
sa(dp104
g3
S'Corporate - Gold'
p105
sg5
VMacysCGOLD15BGenR2Q163
p106
sg7
I78012105
sg8
I223381
sg9
VGeneral
p107
sg11
S'Wed, 13 May 2015 03:36:45 UTC'
p108
sg13
g105
sg14
F0
sg15
g106
sg16
F5
sa(dp109
g3
g105
sg5
VMacysCGOLD15BBoSR2Q163
p110
sg7
I78012105
sg8
I223381
sg9
VBooth
p111
sg11
S'Wed, 13 May 2015 03:36:45 UTC'
p112
sg13
g105
sg14
F0
sg15
g110
sg16
F2
sa(dp113
g3
g105
sg5
VMacysCGOLD15BPrRec2Q163
p114
sg7
I78012105
sg8
I223381
sg9
Nsg11
S'Wed, 13 May 2015 03:36:45 UTC'
p115
sg13
g105
sg14
F0
sg15
g114
sg16
F2
sa(dp116
g3
S'ABI Partners Only - Platinum'
p117
sg5
VJunip152Q11N
p118
sg7
I78012883
sg8
I223380
sg9
VOne Day
p119
sg11
S'Wed, 13 May 2015 03:35:02 UTC'
p120
sg13
g117
sg14
F0
sg15
g118
sg16
F1
sa(dp121
g3
g117
sg5
VJunipPLAT15BGenR2Q11N
p122
sg7
I78012883
sg8
I223380
sg9
VGeneral
p123
sg11
S'Wed, 13 May 2015 03:35:02 UTC'
p124
sg13
g117
sg14
F0
sg15
g122
sg16
F10
sa(dp125
g3
g117
sg5
VJunipPLAT15BBoSR2Q11N
p126
sg7
I78012883
sg8
I223380
sg9
VBooth
p127
sg11
S'Wed, 13 May 2015 03:35:02 UTC'
p128
sg13
g117
sg14
F0
sg15
g126
sg16
F8
sa(dp129
g3
g117
sg5
VJunipPLAT15BPrRec2Q11N
p130
sg7
I78012883
sg8
I223380
sg9
Nsg11
S'Wed, 13 May 2015 03:35:02 UTC'
p131
sg13
g117
sg14
F0
sg15
g130
sg16
F6
sa(dp132
g3
g117
sg5
VJunip152Q11N
p133
sg7
I78012883
sg8
I223380
sg9
VOne Day
p134
sg11
S'Wed, 13 May 2015 03:35:02 UTC'
p135
sg13
g117
sg14
F0
sg15
g133
sg16
F2
sa(dp136
g3
S'Corporate - Gold'
p137
sg5
VSquarCGOLD15BGenR2Q15K
p138
sg7
I78021784
sg8
I223381
sg9
VGeneral
p139
sg11
S'Wed, 13 May 2015 03:36:27 UTC'
p140
sg13
g137
sg14
F0
sg15
g138
sg16
F5
sa(dp141
g3
g137
sg5
VSquarCGOLD15BBoSR2Q15K
p142
sg7
I78021784
sg8
I223381
sg9
VBooth
p143
sg11
S'Wed, 13 May 2015 03:36:27 UTC'
p144
sg13
g137
sg14
F0
sg15
g142
sg16
F2
sa(dp145
g3
g137
sg5
VSquarCGOLD15BPrRec2Q15K
p146
sg7
I78021784
sg8
I223381
sg9
Nsg11
S'Wed, 13 May 2015 03:36:27 UTC'
p147
sg13
g137
sg14
F0
sg15
g146
sg16
F2
sa(dp148
g3
S'Corporate - Gold'
p149
sg5
VJohnsCGOLD15BGenR2Q13E
p150
sg7
I78038806
sg8
I223381
sg9
VGeneral
p151
sg11
S'Wed, 13 May 2015 03:35:46 UTC'
p152
sg13
g149
sg14
F0
sg15
g150
sg16
F5
sa(dp153
g3
g149
sg5
VJohnsCGOLD15BBoSR2Q13E
p154
sg7
I78038806
sg8
I223381
sg9
VBooth
p155
sg11
S'Wed, 13 May 2015 03:35:46 UTC'
p156
sg13
g149
sg14
F0
sg15
g154
sg16
F2
sa(dp157
g3
g149
sg5
VJohnsCGOLD15BPrRec2Q13E
p158
sg7
I78038806
sg8
I223381
sg9
Nsg11
S'Wed, 13 May 2015 03:35:46 UTC'
p159
sg13
g149
sg14
F0
sg15
g158
sg16
F2
sa(dp160
g3
S'Corporate - Gold'
p161
sg5
VTraveCGOLD15BGenR2Q15P
p162
sg7
I78187521
sg8
I223381
sg9
VGeneral
p163
sg11
S'Wed, 13 May 2015 03:36:29 UTC'
p164
sg13
g161
sg14
F0
sg15
g162
sg16
F5
sa(dp165
g3
g161
sg5
VTraveCGOLD15BBoSR2Q15P
p166
sg7
I78187521
sg8
I223381
sg9
VBooth
p167
sg11
S'Wed, 13 May 2015 03:36:29 UTC'
p168
sg13
g161
sg14
F0
sg15
g166
sg16
F2
sa(dp169
g3
g161
sg5
VTraveCGOLD15BPrRec2Q15P
p170
sg7
I78187521
sg8
I223381
sg9
Nsg11
S'Wed, 13 May 2015 03:36:29 UTC'
p171
sg13
g161
sg14
F0
sg15
g170
sg16
F2
sa(dp172
g3
S'Corporate - Silver'
p173
sg5
VKnewtCSIL15BGenR2Q18J
p174
sg7
I78262005
sg8
I223382
sg9
VGeneral
p175
sg11
S'Wed, 13 May 2015 03:37:35 UTC'
p176
sg13
g173
sg14
F0
sg15
g174
sg16
F3
sa(dp177
g3
g173
sg5
VKnewtCSIL15BBoSR2Q18J
p178
sg7
I78262005
sg8
I223382
sg9
VBooth
p179
sg11
S'Wed, 13 May 2015 03:37:35 UTC'
p180
sg13
g173
sg14
F0
sg15
g178
sg16
F3
sa(dp181
g3
g173
sg5
VKnewtCSIL15BPrRec2Q18J
p182
sg7
I78262005
sg8
I223382
sg9
Nsg11
S'Wed, 13 May 2015 03:37:35 UTC'
p183
sg13
g173
sg14
F0
sg15
g182
sg16
F1
sa(dp184
g3
S'Corporate - Gold'
p185
sg5
VMailCCGOLD15BGenR2Q15U
p186
sg7
I78262635
sg8
I223381
sg9
VGeneral
p187
sg11
S'Wed, 13 May 2015 03:36:31 UTC'
p188
sg13
g185
sg14
F0
sg15
g186
sg16
F5
sa(dp189
g3
g185
sg5
VMailCCGOLD15BBoSR2Q15U
p190
sg7
I78262635
sg8
I223381
sg9
VBooth
p191
sg11
S'Wed, 13 May 2015 03:36:31 UTC'
p192
sg13
g185
sg14
F0
sg15
g190
sg16
F2
sa(dp193
g3
g185
sg5
VMailCCGOLD15BPrRec2Q15U
p194
sg7
I78262635
sg8
I223381
sg9
Nsg11
S'Wed, 13 May 2015 03:36:31 UTC'
p195
sg13
g185
sg14
F0
sg15
g194
sg16
F2
sa(dp196
g3
S'Corporate - Silver'
p197
sg5
VD. E.CSIL15BGenR2Q18O
p198
sg7
I78269185
sg8
I223382
sg9
VGeneral
p199
sg11
S'Wed, 13 May 2015 03:37:37 UTC'
p200
sg13
g197
sg14
F0
sg15
g198
sg16
F3
sa(dp201
g3
g197
sg5
VD. E.CSIL15BBoSR2Q18O
p202
sg7
I78269185
sg8
I223382
sg9
VBooth
p203
sg11
S'Wed, 13 May 2015 03:37:37 UTC'
p204
sg13
g197
sg14
F0
sg15
g202
sg16
F3
sa(dp205
g3
g197
sg5
VD. E.CSIL15BPrRec2Q18O
p206
sg7
I78269185
sg8
I223382
sg9
Nsg11
S'Wed, 13 May 2015 03:37:37 UTC'
p207
sg13
g197
sg14
F0
sg15
g206
sg16
F1
sa(dp208
g3
S'ABI Partners Only - Platinum'
p209
sg5
VNetApPLAT15BGenR2Q11S
p210
sg7
I78412181
sg8
I223380
sg9
VGeneral
p211
sg11
S'Wed, 13 May 2015 03:35:04 UTC'
p212
sg13
g209
sg14
F0
sg15
g210
sg16
F10
sa(dp213
g3
g209
sg5
VNetApPLAT15BBoSR2Q11S
p214
sg7
I78412181
sg8
I223380
sg9
VBooth
p215
sg11
S'Wed, 13 May 2015 03:35:04 UTC'
p216
sg13
g209
sg14
F0
sg15
g214
sg16
F8
sa(dp217
g3
g209
sg5
VNetApPLAT15BPrRec2Q11S
p218
sg7
I78412181
sg8
I223380
sg9
Nsg11
S'Wed, 13 May 2015 03:35:04 UTC'
p219
sg13
g209
sg14
F0
sg15
g218
sg16
F6
sa(dp220
g3
S'Corporate - Silver'
p221
sg5
VMarkLCSIL15BGenR2Q17M
p222
sg7
I78465630
sg8
I223382
sg9
VGeneral
p223
sg11
S'Wed, 13 May 2015 03:37:38 UTC'
p224
sg13
g221
sg14
F0
sg15
g222
sg16
F3
sa(dp225
g3
g221
sg5
VMarkLCSIL15BBoSR2Q17M
p226
sg7
I78465630
sg8
I223382
sg9
VBooth
p227
sg11
S'Wed, 13 May 2015 03:37:38 UTC'
p228
sg13
g221
sg14
F0
sg15
g226
sg16
F3
sa(dp229
g3
g221
sg5
VMarkLCSIL15BPrRec2Q17M
p230
sg7
I78465630
sg8
I223382
sg9
Nsg11
S'Wed, 13 May 2015 03:37:38 UTC'
p231
sg13
g221
sg14
F0
sg15
g230
sg16
F1
sa(dp232
g3
S'ABI Partners Only - Platinum'
p233
sg5
VDropbPLAT15BGenR2Q11X
p234
sg7
I78562705
sg8
I223380
sg9
VGeneral
p235
sg11
S'Wed, 13 May 2015 03:35:06 UTC'
p236
sg13
g233
sg14
F0
sg15
g234
sg16
F10
sa(dp237
g3
g233
sg5
VDropbPLAT15BBoSR2Q11X
p238
sg7
I78562705
sg8
I223380
sg9
VBooth
p239
sg11
S'Wed, 13 May 2015 03:35:06 UTC'
p240
sg13
g233
sg14
F0
sg15
g238
sg16
F8
sa(dp241
g3
g233
sg5
VDropbPLAT15BPrRec2Q11X
p242
sg7
I78562705
sg8
I223380
sg9
Nsg11
S'Wed, 13 May 2015 03:35:06 UTC'
p243
sg13
g233
sg14
F0
sg15
g242
sg16
F6
sa(dp244
g3
S'Corporate - Gold'
p245
sg5
VNetSuCGOLD15BGenR2Q15Z
p246
sg7
I78603554
sg8
I223381
sg9
VGeneral
p247
sg11
S'Wed, 13 May 2015 03:36:32 UTC'
p248
sg13
g245
sg14
F0
sg15
g246
sg16
F5
sa(dp249
g3
g245
sg5
VNetSuCGOLD15BBoSR2Q15Z
p250
sg7
I78603554
sg8
I223381
sg9
VBooth
p251
sg11
S'Wed, 13 May 2015 03:36:32 UTC'
p252
sg13
g245
sg14
F0
sg15
g250
sg16
F2
sa(dp253
g3
g245
sg5
VNetSuCGOLD15BPrRec2Q15Z
p254
sg7
I78603554
sg8
I223381
sg9
Nsg11
S'Wed, 13 May 2015 03:36:32 UTC'
p255
sg13
g245
sg14
F0
sg15
g254
sg16
F2
sa(dp256
g3
S'Corporate - Silver'
p257
sg5
VFireECSIL15BGenR2Q18T
p258
sg7
I78623682
sg8
I223382
sg9
VGeneral
p259
sg11
S'Wed, 13 May 2015 03:37:40 UTC'
p260
sg13
g257
sg14
F0
sg15
g258
sg16
F3
sa(dp261
g3
g257
sg5
VFireECSIL15BBoSR2Q18T
p262
sg7
I78623682
sg8
I223382
sg9
VBooth
p263
sg11
S'Wed, 13 May 2015 03:37:40 UTC'
p264
sg13
g257
sg14
F0
sg15
g262
sg16
F3
sa(dp265
g3
g257
sg5
VFireECSIL15BPrRec2Q18T
p266
sg7
I78623682
sg8
I223382
sg9
Nsg11
S'Wed, 13 May 2015 03:37:40 UTC'
p267
sg13
g257
sg14
F0
sg15
g266
sg16
F1
sa(dp268
g3
S'Corporate - Silver'
p269
sg5
VBloomCSIL15BGenR2Q18Y
p270
sg7
I78637801
sg8
I223382
sg9
VGeneral
p271
sg11
S'Wed, 13 May 2015 03:37:42 UTC'
p272
sg13
g269
sg14
F0
sg15
g270
sg16
F3
sa(dp273
g3
g269
sg5
VBloomCSIL15BBoSR2Q18Y
p274
sg7
I78637801
sg8
I223382
sg9
VBooth
p275
sg11
S'Wed, 13 May 2015 03:37:42 UTC'
p276
sg13
g269
sg14
F0
sg15
g274
sg16
F3
sa(dp277
g3
g269
sg5
VBloomCSIL15BPrRec2Q18Y
p278
sg7
I78637801
sg8
I223382
sg9
Nsg11
S'Wed, 13 May 2015 03:37:42 UTC'
p279
sg13
g269
sg14
F0
sg15
g278
sg16
F1
sa(dp280
g3
S'Corporate - Silver'
p281
sg5
VPURE CSIL15BGenR2Q18U
p282
sg7
I78731228
sg8
I223382
sg9
VGeneral
p283
sg11
S'Wed, 13 May 2015 03:37:43 UTC'
p284
sg13
g281
sg14
F0
sg15
g282
sg16
F3
sa(dp285
g3
g281
sg5
VPURE CSIL15BBoSR2Q18U
p286
sg7
I78731228
sg8
I223382
sg9
VBooth
p287
sg11
S'Wed, 13 May 2015 03:37:43 UTC'
p288
sg13
g281
sg14
F0
sg15
g286
sg16
F3
sa(dp289
g3
g281
sg5
VPURE CSIL15BPrRec2Q18U
p290
sg7
I78731228
sg8
I223382
sg9
Nsg11
S'Wed, 13 May 2015 03:37:43 UTC'
p291
sg13
g281
sg14
F0
sg15
g290
sg16
F1
sa(dp292
g3
S'Corporate - Gold'
p293
sg5
VSymanCGOLD15BGenR2Q15e
p294
sg7
I78735834
sg8
I223381
sg9
VGeneral
p295
sg11
S'Wed, 13 May 2015 03:36:34 UTC'
p296
sg13
g293
sg14
F0
sg15
g294
sg16
F5
sa(dp297
g3
g293
sg5
VSymanCGOLD15BBoSR2Q15e
p298
sg7
I78735834
sg8
I223381
sg9
VBooth
p299
sg11
S'Wed, 13 May 2015 03:36:34 UTC'
p300
sg13
g293
sg14
F0
sg15
g298
sg16
F2
sa(dp301
g3
g293
sg5
VSymanCGOLD15BPrRec2Q15e
p302
sg7
I78735834
sg8
I223381
sg9
Nsg11
S'Wed, 13 May 2015 03:36:34 UTC'
p303
sg13
g293
sg14
F0
sg15
g302
sg16
F2
sa(dp304
g3
S'ABI Partners Only - Platinum'
p305
sg5
VIntelPLAT15BGenR2Q12Q
p306
sg7
I78943484
sg8
I223380
sg9
VGeneral
p307
sg11
S'Wed, 13 May 2015 03:35:27 UTC'
p308
sg13
g305
sg14
F0
sg15
g306
sg16
F10
sa(dp309
g3
g305
sg5
VIntelPLAT15BBoSR2Q12Q
p310
sg7
I78943484
sg8
I223380
sg9
VBooth
p311
sg11
S'Wed, 13 May 2015 03:35:27 UTC'
p312
sg13
g305
sg14
F0
sg15
g310
sg16
F8
sa(dp313
g3
g305
sg5
VIntelPLAT15BPrRec2Q12Q
p314
sg7
I78943484
sg8
I223380
sg9
Nsg11
S'Wed, 13 May 2015 03:35:27 UTC'
p315
sg13
g305
sg14
F0
sg15
g314
sg16
F6
sa(dp316
g3
S'Corporate - Silver'
p317
sg5
VT. RoCSIL15BGenR2Q17p
p318
sg7
I79019098
sg8
I223382
sg9
VGeneral
p319
sg11
S'Wed, 13 May 2015 03:37:25 UTC'
p320
sg13
g317
sg14
F0
sg15
g318
sg16
F3
sa(dp321
g3
g317
sg5
VT. RoCSIL15BBoSR2Q17p
p322
sg7
I79019098
sg8
I223382
sg9
VBooth
p323
sg11
S'Wed, 13 May 2015 03:37:25 UTC'
p324
sg13
g317
sg14
F0
sg15
g322
sg16
F3
sa(dp325
g3
g317
sg5
VT. RoCSIL15BPrRec2Q17p
p326
sg7
I79019098
sg8
I223382
sg9
Nsg11
S'Wed, 13 May 2015 03:37:25 UTC'
p327
sg13
g317
sg14
F0
sg15
g326
sg16
F1
sa(dp328
g3
S'Corporate - Silver'
p329
sg5
VHubSpCSIL15BGenR2Q17u
p330
sg7
I79027154
sg8
I223382
sg9
VGeneral
p331
sg11
S'Wed, 13 May 2015 03:37:27 UTC'
p332
sg13
g329
sg14
F0
sg15
g330
sg16
F3
sa(dp333
g3
g329
sg5
VHubSpCSIL15BBoSR2Q17u
p334
sg7
I79027154
sg8
I223382
sg9
VBooth
p335
sg11
S'Wed, 13 May 2015 03:37:27 UTC'
p336
sg13
g329
sg14
F0
sg15
g334
sg16
F3
sa(dp337
g3
g329
sg5
VHubSpCSIL15BPrRec2Q17u
p338
sg7
I79027154
sg8
I223382
sg9
Nsg11
S'Wed, 13 May 2015 03:37:27 UTC'
p339
sg13
g329
sg14
F0
sg15
g338
sg16
F1
sa(dp340
g3
S'Corporate - Gold'
p341
sg5
VYelpCGOLD15BGenR2Q15j
p342
sg7
I79043680
sg8
I223381
sg9
VGeneral
p343
sg11
S'Wed, 13 May 2015 03:36:36 UTC'
p344
sg13
g341
sg14
F0
sg15
g342
sg16
F5
sa(dp345
g3
g341
sg5
VYelpCGOLD15BBoSR2Q15j
p346
sg7
I79043680
sg8
I223381
sg9
VBooth
p347
sg11
S'Wed, 13 May 2015 03:36:36 UTC'
p348
sg13
g341
sg14
F0
sg15
g346
sg16
F2
sa(dp349
g3
g341
sg5
VYelpCGOLD15BPrRec2Q15j
p350
sg7
I79043680
sg8
I223381
sg9
Nsg11
S'Wed, 13 May 2015 03:36:36 UTC'
p351
sg13
g341
sg14
F0
sg15
g350
sg16
F2
sa(dp352
g3
S'Corporate - Gold'
p353
sg5
VSalesCGOLD15BGenR2Q14q
p354
sg7
I79141580
sg8
I223381
sg9
VGeneral
p355
sg11
S'Wed, 13 May 2015 03:36:18 UTC'
p356
sg13
g353
sg14
F0
sg15
g354
sg16
F5
sa(dp357
g3
g353
sg5
VSalesCGOLD15BBoSR2Q14q
p358
sg7
I79141580
sg8
I223381
sg9
VBooth
p359
sg11
S'Wed, 13 May 2015 03:36:18 UTC'
p360
sg13
g353
sg14
F0
sg15
g358
sg16
F2
sa(dp361
g3
g353
sg5
VSalesCGOLD15BPrRec2Q14q
p362
sg7
I79141580
sg8
I223381
sg9
Nsg11
S'Wed, 13 May 2015 03:36:18 UTC'
p363
sg13
g353
sg14
F0
sg15
g362
sg16
F2
sa(dp364
g3
g353
sg5
VSales1510DGenR2Q14q
p365
sg7
I79141580
sg8
I223381
sg9
VGeneral
p366
sg11
S'Wed, 13 May 2015 03:36:18 UTC'
p367
sg13
g353
sg14
F0
sg15
g365
sg16
F20
sa(dp368
g3
S'Lab & Non-Profit - Bronze'
p369
sg5
VBlackL&NBRZ15BGenR2Q1Af
p370
sg7
I79177074
sg8
I226853
sg9
VGeneral
p371
sg11
S'Wed, 13 May 2015 03:38:29 UTC'
p372
sg13
g369
sg14
F0
sg15
g370
sg16
F1
sa(dp373
g3
g369
sg5
VBlackL&NBRZ15BPrRec2Q1Af
p374
sg7
I79177074
sg8
I226853
sg9
Nsg11
S'Wed, 13 May 2015 03:38:29 UTC'
p375
sg13
g369
sg14
F0
sg15
g374
sg16
F1
sa(dp376
g3
S'Corporate - Gold'
p377
sg5
VStateCGOLD15BGenR2Q14v
p378
sg7
I79196510
sg8
I223381
sg9
VGeneral
p379
sg11
S'Wed, 13 May 2015 03:36:19 UTC'
p380
sg13
g377
sg14
F0
sg15
g378
sg16
F5
sa(dp381
g3
g377
sg5
VStateCGOLD15BBoSR2Q14v
p382
sg7
I79196510
sg8
I223381
sg9
VBooth
p383
sg11
S'Wed, 13 May 2015 03:36:19 UTC'
p384
sg13
g377
sg14
F0
sg15
g382
sg16
F2
sa(dp385
g3
g377
sg5
VStateCGOLD15BPrRec2Q14v
p386
sg7
I79196510
sg8
I223381
sg9
Nsg11
S'Wed, 13 May 2015 03:36:19 UTC'
p387
sg13
g377
sg14
F0
sg15
g386
sg16
F2
sa(dp388
g3
S'Corporate - Gold'
p389
sg5
VBNY MCGOLD15BGenR2Q150
p390
sg7
I79208313
sg8
I223381
sg9
VGeneral
p391
sg11
S'Wed, 13 May 2015 03:36:21 UTC'
p392
sg13
g389
sg14
F0
sg15
g390
sg16
F5
sa(dp393
g3
g389
sg5
VBNY MCGOLD15BBoSR2Q150
p394
sg7
I79208313
sg8
I223381
sg9
VBooth
p395
sg11
S'Wed, 13 May 2015 03:36:21 UTC'
p396
sg13
g389
sg14
F0
sg15
g394
sg16
F2
sa(dp397
g3
g389
sg5
VBNY MCGOLD15BPrRec2Q150
p398
sg7
I79208313
sg8
I223381
sg9
Nsg11
S'Wed, 13 May 2015 03:36:21 UTC'
p399
sg13
g389
sg14
F0
sg15
g398
sg16
F2
sa(dp400
g3
S'ABI Partners Only - Platinum'
p401
sg5
VCA TePLAT15BGenR2Q12V
p402
sg7
I79217975
sg8
I223380
sg9
VGeneral
p403
sg11
S'Wed, 13 May 2015 03:35:29 UTC'
p404
sg13
g401
sg14
F0
sg15
g402
sg16
F10
sa(dp405
g3
g401
sg5
VCA TePLAT15BBoSR2Q12V
p406
sg7
I79217975
sg8
I223380
sg9
VBooth
p407
sg11
S'Wed, 13 May 2015 03:35:29 UTC'
p408
sg13
g401
sg14
F0
sg15
g406
sg16
F8
sa(dp409
g3
g401
sg5
VCA TePLAT15BPrRec2Q12V
p410
sg7
I79217975
sg8
I223380
sg9
Nsg11
S'Wed, 13 May 2015 03:35:29 UTC'
p411
sg13
g401
sg14
F0
sg15
g410
sg16
F6
sa(dp412
g3
g401
sg5
VCA Te152Q12V
p413
sg7
I79217975
sg8
I223380
sg9
VOne Day
p414
sg11
S'Wed, 13 May 2015 03:35:29 UTC'
p415
sg13
g401
sg14
F0
sg15
g413
sg16
F1
sa(dp416
g3
g401
sg5
VCA Te1510DGenR2Q12V
p417
sg7
I79217975
sg8
I223380
sg9
VGeneral
p418
sg11
S'Wed, 13 May 2015 03:35:29 UTC'
p419
sg13
g401
sg14
F0
sg15
g417
sg16
F10
sa(dp420
g3
S'Academic - Silver'
p421
sg5
VUT-DaACASIL15BBoSR2Q19C
p422
sg7
I79255748
sg8
I223384
sg9
VBooth
p423
sg11
S'Wed, 13 May 2015 03:37:57 UTC'
p424
sg13
g421
sg14
F0
sg15
g422
sg16
F3
sa(dp425
g3
g421
sg5
VUT-DaACASIL15BPrRec2Q19C
p426
sg7
I79255748
sg8
I223384
sg9
Nsg11
S'Wed, 13 May 2015 03:37:57 UTC'
p427
sg13
g421
sg14
F0
sg15
g426
sg16
F2
sa(dp428
g3
g421
sg5
VUT-DaACASIL15BStDc2Q19C
p429
sg7
I79255748
sg8
I223384
sg9
VStudent
p430
sg11
S'Wed, 13 May 2015 03:37:57 UTC'
p431
sg13
g421
sg14
F0
sg15
g429
sg16
F1
sa(dp432
g3
g421
sg5
VUT-DaACASIL15BFacR2Q19C
p433
sg7
I79255748
sg8
I223384
sg9
VAcademic
p434
sg11
S'Wed, 13 May 2015 03:37:57 UTC'
p435
sg13
g421
sg14
F0
sg15
g433
sg16
F2
sa(dp436
g3
S'Corporate - Silver'
p437
sg5
VSearsCSIL15BGenR2Q17z
p438
sg7
I79348115
sg8
I223382
sg9
VGeneral
p439
sg11
S'Wed, 13 May 2015 03:37:28 UTC'
p440
sg13
g437
sg14
F0
sg15
g438
sg16
F3
sa(dp441
g3
g437
sg5
VSearsCSIL15BBoSR2Q17z
p442
sg7
I79348115
sg8
I223382
sg9
VBooth
p443
sg11
S'Wed, 13 May 2015 03:37:28 UTC'
p444
sg13
g437
sg14
F0
sg15
g442
sg16
F3
sa(dp445
g3
g437
sg5
VSearsCSIL15BPrRec2Q17z
p446
sg7
I79348115
sg8
I223382
sg9
Nsg11
S'Wed, 13 May 2015 03:37:28 UTC'
p447
sg13
g437
sg14
F0
sg15
g446
sg16
F1
sa(dp448
g3
S'Lab & Non-Profit - Gold'
p449
sg5
VMIT LL&NGOLD15BGenR2Q1AU
p450
sg7
I79396333
sg8
I226851
sg9
VGeneral
p451
sg11
S'Wed, 13 May 2015 03:38:25 UTC'
p452
sg13
g449
sg14
F0
sg15
g450
sg16
F3
sa(dp453
g3
g449
sg5
VMIT LL&NGOLD15BPrRec2Q1AU
p454
sg7
I79396333
sg8
I226851
sg9
Nsg11
S'Wed, 13 May 2015 03:38:25 UTC'
p455
sg13
g449
sg14
F0
sg15
g454
sg16
F3
sa(dp456
g3
S'ABI Partners Only - Platinum'
p457
sg5
VRacksPLAT15BGenR2Q12f
p458
sg7
I79479575
sg8
I223380
sg9
VGeneral
p459
sg11
S'Wed, 13 May 2015 03:35:33 UTC'
p460
sg13
g457
sg14
F0
sg15
g458
sg16
F10
sa(dp461
g3
g457
sg5
VRacksPLAT15BBoSR2Q12f
p462
sg7
I79479575
sg8
I223380
sg9
VBooth
p463
sg11
S'Wed, 13 May 2015 03:35:33 UTC'
p464
sg13
g457
sg14
F0
sg15
g462
sg16
F8
sa(dp465
g3
g457
sg5
VRacksPLAT15BPrRec2Q12f
p466
sg7
I79479575
sg8
I223380
sg9
Nsg11
S'Wed, 13 May 2015 03:35:33 UTC'
p467
sg13
g457
sg14
F0
sg15
g466
sg16
F6
sa(dp468
g3
S'Corporate - Gold'
p469
sg5
VCrediCGOLD15BGenR2Q155
p470
sg7
I79584463
sg8
I223381
sg9
VGeneral
p471
sg11
S'Wed, 13 May 2015 03:36:23 UTC'
p472
sg13
g469
sg14
F0
sg15
g470
sg16
F5
sa(dp473
g3
g469
sg5
VCrediCGOLD15BBoSR2Q155
p474
sg7
I79584463
sg8
I223381
sg9
VBooth
p475
sg11
S'Wed, 13 May 2015 03:36:23 UTC'
p476
sg13
g469
sg14
F0
sg15
g474
sg16
F2
sa(dp477
g3
g469
sg5
VCrediCGOLD15BPrRec2Q155
p478
sg7
I79584463
sg8
I223381
sg9
Nsg11
S'Wed, 13 May 2015 03:36:23 UTC'
p479
sg13
g469
sg14
F0
sg15
g478
sg16
F2
sa(dp480
g3
S'ABI Partners Only - Platinum'
p481
sg5
VThoms15TEF2Q12k
p482
sg7
I79599643
sg8
I223380
sg9
VOne Day
p483
sg11
S'Wed, 13 May 2015 03:35:35 UTC'
p484
sg13
g481
sg14
F0
sg15
g482
sg16
F1
sa(dp485
g3
g481
sg5
VThomsPLAT15BGenR2Q12k
p486
sg7
I79599643
sg8
I223380
sg9
VGeneral
p487
sg11
S'Wed, 13 May 2015 03:35:35 UTC'
p488
sg13
g481
sg14
F0
sg15
g486
sg16
F10
sa(dp489
g3
g481
sg5
VThomsPLAT15BBoSR2Q12k
p490
sg7
I79599643
sg8
I223380
sg9
VBooth
p491
sg11
S'Wed, 13 May 2015 03:35:35 UTC'
p492
sg13
g481
sg14
F0
sg15
g490
sg16
F8
sa(dp493
g3
g481
sg5
VThomsPLAT15BPrRec2Q12k
p494
sg7
I79599643
sg8
I223380
sg9
Nsg11
S'Wed, 13 May 2015 03:35:35 UTC'
p495
sg13
g481
sg14
F0
sg15
g494
sg16
F6
sa(dp496
g3
S'Corporate - Gold'
p497
sg5
VAT&TCGOLD15BGenR2Q15A
p498
sg7
I79600826
sg8
I223381
sg9
VGeneral
p499
sg11
S'Wed, 13 May 2015 03:36:24 UTC'
p500
sg13
g497
sg14
F0
sg15
g498
sg16
F5
sa(dp501
g3
g497
sg5
VAT&TCGOLD15BBoSR2Q15A
p502
sg7
I79600826
sg8
I223381
sg9
VBooth
p503
sg11
S'Wed, 13 May 2015 03:36:24 UTC'
p504
sg13
g497
sg14
F0
sg15
g502
sg16
F2
sa(dp505
g3
g497
sg5
VAT&TCGOLD15BPrRec2Q15A
p506
sg7
I79600826
sg8
I223381
sg9
Nsg11
S'Wed, 13 May 2015 03:36:24 UTC'
p507
sg13
g497
sg14
F0
sg15
g506
sg16
F2
sa(dp508
g3
S'ABI Partners Only - Platinum'
p509
sg5
VVMwarPLAT15BGenR2Q12p
p510
sg7
I79609919
sg8
I223380
sg9
VGeneral
p511
sg11
S'Wed, 13 May 2015 03:35:37 UTC'
p512
sg13
g509
sg14
F0
sg15
g510
sg16
F10
sa(dp513
g3
g509
sg5
VVMwarPLAT15BBoSR2Q12p
p514
sg7
I79609919
sg8
I223380
sg9
VBooth
p515
sg11
S'Wed, 13 May 2015 03:35:37 UTC'
p516
sg13
g509
sg14
F0
sg15
g514
sg16
F8
sa(dp517
g3
g509
sg5
VVMwarPLAT15BPrRec2Q12p
p518
sg7
I79609919
sg8
I223380
sg9
Nsg11
S'Wed, 13 May 2015 03:35:37 UTC'
p519
sg13
g509
sg14
F0
sg15
g518
sg16
F6
sa(dp520
g3
S'ABI Partners Only - Platinum'
p521
sg5
VLinkePLAT15BGenR2Q121
p522
sg7
I79699190
sg8
I223380
sg9
VGeneral
p523
sg11
S'Wed, 13 May 2015 03:35:18 UTC'
p524
sg13
g521
sg14
F0
sg15
g522
sg16
F10
sa(dp525
g3
g521
sg5
VLinkePLAT15BBoSR2Q121
p526
sg7
I79699190
sg8
I223380
sg9
VBooth
p527
sg11
S'Wed, 13 May 2015 03:35:18 UTC'
p528
sg13
g521
sg14
F0
sg15
g526
sg16
F8
sa(dp529
g3
g521
sg5
VLinkePLAT15BPrRec2Q121
p530
sg7
I79699190
sg8
I223380
sg9
Nsg11
S'Wed, 13 May 2015 03:35:18 UTC'
p531
sg13
g521
sg14
F0
sg15
g530
sg16
F6
sa(dp532
g3
S'ABI Partners Only - Diamond'
p533
sg5
VCiscoDIA15BGenR2Q10y
p534
sg7
I79781177
sg8
I223379
sg9
VGeneral
p535
sg11
S'Wed, 13 May 2015 03:34:52 UTC'
p536
sg13
g533
sg14
F0
sg15
g534
sg16
F20
sa(dp537
g3
g533
sg5
VCiscoDIA15BBoSR2Q10y
p538
sg7
I79781177
sg8
I223379
sg9
VBooth
p539
sg11
S'Wed, 13 May 2015 03:34:52 UTC'
p540
sg13
g533
sg14
F0
sg15
g538
sg16
F8
sa(dp541
g3
g533
sg5
VCiscoDIA15BPrRec2Q10y
p542
sg7
I79781177
sg8
I223379
sg9
Nsg11
S'Wed, 13 May 2015 03:34:52 UTC'
p543
sg13
g533
sg14
F0
sg15
g542
sg16
F6
sa(dp544
g3
S'ABI Partners Only - Diamond'
p545
sg5
VAppleDIA15BGenR2Q113
p546
sg7
I79788597
sg8
I223379
sg9
VGeneral
p547
sg11
S'Wed, 13 May 2015 03:34:54 UTC'
p548
sg13
g545
sg14
F0
sg15
g546
sg16
F20
sa(dp549
g3
g545
sg5
VAppleDIA15BBoSR2Q113
p550
sg7
I79788597
sg8
I223379
sg9
VBooth
p551
sg11
S'Wed, 13 May 2015 03:34:54 UTC'
p552
sg13
g545
sg14
F0
sg15
g550
sg16
F8
sa(dp553
g3
g545
sg5
VAppleDIA15BPrRec2Q113
p554
sg7
I79788597
sg8
I223379
sg9
Nsg11
S'Wed, 13 May 2015 03:34:54 UTC'
p555
sg13
g545
sg14
F0
sg15
g554
sg16
F6
sa(dp556
g3
S'Academic - Silver'
p557
sg5
VDuke ACASIL15BBoSR2Q19H
p558
sg7
I79831591
sg8
I223384
sg9
VBooth
p559
sg11
S'Wed, 13 May 2015 03:37:58 UTC'
p560
sg13
g557
sg14
F0
sg15
g558
sg16
F3
sa(dp561
g3
g557
sg5
VDuke ACASIL15BPrRec2Q19H
p562
sg7
I79831591
sg8
I223384
sg9
Nsg11
S'Wed, 13 May 2015 03:37:58 UTC'
p563
sg13
g557
sg14
F0
sg15
g562
sg16
F2
sa(dp564
g3
g557
sg5
VDuke ACASIL15BStDc2Q19H
p565
sg7
I79831591
sg8
I223384
sg9
VStudent
p566
sg11
S'Wed, 13 May 2015 03:37:58 UTC'
p567
sg13
g557
sg14
F0
sg15
g565
sg16
F1
sa(dp568
g3
g557
sg5
VDuke ACASIL15BFacR2Q19H
p569
sg7
I79831591
sg8
I223384
sg9
VAcademic
p570
sg11
S'Wed, 13 May 2015 03:37:58 UTC'
p571
sg13
g557
sg14
F0
sg15
g569
sg16
F2
sa(dp572
g3
S'ABI Partners Only - Platinum'
p573
sg5
VHewlePLAT15BGenR2Q12B
p574
sg7
I79855196
sg8
I223380
sg9
VGeneral
p575
sg11
S'Wed, 13 May 2015 03:35:21 UTC'
p576
sg13
g573
sg14
F0
sg15
g574
sg16
F10
sa(dp577
g3
g573
sg5
VHewlePLAT15BBoSR2Q12B
p578
sg7
I79855196
sg8
I223380
sg9
VBooth
p579
sg11
S'Wed, 13 May 2015 03:35:21 UTC'
p580
sg13
g573
sg14
F0
sg15
g578
sg16
F8
sa(dp581
g3
g573
sg5
VHewlePLAT15BPrRec2Q12B
p582
sg7
I79855196
sg8
I223380
sg9
Nsg11
S'Wed, 13 May 2015 03:35:21 UTC'
p583
sg13
g573
sg14
F0
sg15
g582
sg16
F6
sa(dp584
g3
g573
sg5
VHewle1510DGenR2Q12B
p585
sg7
I79855196
sg8
I223380
sg9
VGeneral
p586
sg11
S'Wed, 13 May 2015 03:35:21 UTC'
p587
sg13
g573
sg14
F0
sg15
g585
sg16
F60
sa(dp588
g3
S'ABI Partners Only - Diamond'
p589
sg5
VMicroDIA15BGenR2Q11D
p590
sg7
I79858835
sg8
I223379
sg9
VGeneral
p591
sg11
S'Wed, 13 May 2015 03:34:57 UTC'
p592
sg13
g589
sg14
F0
sg15
g590
sg16
F20
sa(dp593
g3
g589
sg5
VMicroDIA15BBoSR2Q11D
p594
sg7
I79858835
sg8
I223379
sg9
VBooth
p595
sg11
S'Wed, 13 May 2015 03:34:57 UTC'
p596
sg13
g589
sg14
F0
sg15
g594
sg16
F8
sa(dp597
g3
g589
sg5
VMicroDIA15BPrRec2Q11D
p598
sg7
I79858835
sg8
I223379
sg9
Nsg11
S'Wed, 13 May 2015 03:34:57 UTC'
p599
sg13
g589
sg14
F0
sg15
g598
sg16
F6
sa(dp600
g3
S'Corporate - Silver'
p601
sg5
VFast CSIL15BGenR2Q184
p602
sg7
I79882696
sg8
I223382
sg9
VGeneral
p603
sg11
S'Wed, 13 May 2015 03:37:30 UTC'
p604
sg13
g601
sg14
F0
sg15
g602
sg16
F3
sa(dp605
g3
g601
sg5
VFast CSIL15BBoSR2Q184
p606
sg7
I79882696
sg8
I223382
sg9
VBooth
p607
sg11
S'Wed, 13 May 2015 03:37:30 UTC'
p608
sg13
g601
sg14
F0
sg15
g606
sg16
F3
sa(dp609
g3
g601
sg5
VFast CSIL15BPrRec2Q184
p610
sg7
I79882696
sg8
I223382
sg9
Nsg11
S'Wed, 13 May 2015 03:37:30 UTC'
p611
sg13
g601
sg14
F0
sg15
g610
sg16
F1
sa(dp612
g3
S'Corporate - Gold'
p613
sg5
VBookiCGOLD15BGenR2Q15F
p614
sg7
I79894238
sg8
I223381
sg9
VGeneral
p615
sg11
S'Wed, 13 May 2015 03:36:26 UTC'
p616
sg13
g613
sg14
F0
sg15
g614
sg16
F5
sa(dp617
g3
g613
sg5
VBookiCGOLD15BBoSR2Q15F
p618
sg7
I79894238
sg8
I223381
sg9
VBooth
p619
sg11
S'Wed, 13 May 2015 03:36:26 UTC'
p620
sg13
g613
sg14
F0
sg15
g618
sg16
F2
sa(dp621
g3
g613
sg5
VBookiCGOLD15BPrRec2Q15F
p622
sg7
I79894238
sg8
I223381
sg9
Nsg11
S'Wed, 13 May 2015 03:36:26 UTC'
p623
sg13
g613
sg14
F0
sg15
g622
sg16
F2
sa(dp624
g3
S'ABI Partners Only - Platinum'
p625
sg5
VMastePLAT15BGenR2Q12L
p626
sg7
I79951282
sg8
I223380
sg9
VGeneral
p627
sg11
S'Wed, 13 May 2015 03:35:24 UTC'
p628
sg13
g625
sg14
F0
sg15
g626
sg16
F10
sa(dp629
g3
g625
sg5
VMastePLAT15BBoSR2Q12L
p630
sg7
I79951282
sg8
I223380
sg9
VBooth
p631
sg11
S'Wed, 13 May 2015 03:35:24 UTC'
p632
sg13
g625
sg14
F0
sg15
g630
sg16
F8
sa(dp633
g3
g625
sg5
VMastePLAT15BPrRec2Q12L
p634
sg7
I79951282
sg8
I223380
sg9
Nsg11
S'Wed, 13 May 2015 03:35:24 UTC'
p635
sg13
g625
sg14
F0
sg15
g634
sg16
F6
sa(dp636
g3
S'Corporate - Gold'
p637
sg5
VViaSaCGOLD15BGenR2Q14M
p638
sg7
I80018305
sg8
I223381
sg9
VGeneral
p639
sg11
S'Wed, 13 May 2015 03:36:07 UTC'
p640
sg13
g637
sg14
F0
sg15
g638
sg16
F5
sa(dp641
g3
g637
sg5
VViaSaCGOLD15BBoSR2Q14M
p642
sg7
I80018305
sg8
I223381
sg9
VBooth
p643
sg11
S'Wed, 13 May 2015 03:36:07 UTC'
p644
sg13
g637
sg14
F0
sg15
g642
sg16
F2
sa(dp645
g3
g637
sg5
VViaSaCGOLD15BPrRec2Q14M
p646
sg7
I80018305
sg8
I223381
sg9
Nsg11
S'Wed, 13 May 2015 03:36:07 UTC'
p647
sg13
g637
sg14
F0
sg15
g646
sg16
F2
sa(dp648
g3
S'Corporate - Gold'
p649
sg5
VMarkeCGOLD15BGenR2Q14R
p650
sg7
I80033203
sg8
I223381
sg9
VGeneral
p651
sg11
S'Wed, 13 May 2015 03:36:09 UTC'
p652
sg13
g649
sg14
F0
sg15
g650
sg16
F5
sa(dp653
g3
g649
sg5
VMarkeCGOLD15BBoSR2Q14R
p654
sg7
I80033203
sg8
I223381
sg9
VBooth
p655
sg11
S'Wed, 13 May 2015 03:36:09 UTC'
p656
sg13
g649
sg14
F0
sg15
g654
sg16
F2
sa(dp657
g3
g649
sg5
VMarkeCGOLD15BPrRec2Q14R
p658
sg7
I80033203
sg8
I223381
sg9
Nsg11
S'Wed, 13 May 2015 03:36:09 UTC'
p659
sg13
g649
sg14
F0
sg15
g658
sg16
F2
sa(dp660
g3
S'Academic - Silver'
p661
sg5
VNorthACASIL15BBoSR2Q19M
p662
sg7
I80133227
sg8
I223384
sg9
VBooth
p663
sg11
S'Wed, 13 May 2015 03:38:00 UTC'
p664
sg13
g661
sg14
F0
sg15
g662
sg16
F3
sa(dp665
g3
g661
sg5
VNorthACASIL15BPrRec2Q19M
p666
sg7
I80133227
sg8
I223384
sg9
Nsg11
S'Wed, 13 May 2015 03:38:00 UTC'
p667
sg13
g661
sg14
F0
sg15
g666
sg16
F2
sa(dp668
g3
g661
sg5
VNorthACASIL15BStDc2Q19M
p669
sg7
I80133227
sg8
I223384
sg9
VStudent
p670
sg11
S'Wed, 13 May 2015 03:38:00 UTC'
p671
sg13
g661
sg14
F0
sg15
g669
sg16
F1
sa(dp672
g3
g661
sg5
VNorthACASIL15BFacR2Q19M
p673
sg7
I80133227
sg8
I223384
sg9
VAcademic
p674
sg11
S'Wed, 13 May 2015 03:38:00 UTC'
p675
sg13
g661
sg14
F0
sg15
g673
sg16
F2
sa(dp676
g3
S'Corporate - Silver'
p677
sg5
VThumbCSIL15BGenR2Q189
p678
sg7
I80144405
sg8
I223382
sg9
VGeneral
p679
sg11
S'Wed, 13 May 2015 03:37:32 UTC'
p680
sg13
g677
sg14
F0
sg15
g678
sg16
F3
sa(dp681
g3
g677
sg5
VThumbCSIL15BBoSR2Q189
p682
sg7
I80144405
sg8
I223382
sg9
VBooth
p683
sg11
S'Wed, 13 May 2015 03:37:32 UTC'
p684
sg13
g677
sg14
F0
sg15
g682
sg16
F3
sa(dp685
g3
g677
sg5
VThumbCSIL15BPrRec2Q189
p686
sg7
I80144405
sg8
I223382
sg9
Nsg11
S'Wed, 13 May 2015 03:37:32 UTC'
p687
sg13
g677
sg14
F0
sg15
g686
sg16
F1
sa(dp688
g3
S'Corporate - Gold'
p689
sg5
VTwittCGOLD15BGenR2Q14W
p690
sg7
I80146318
sg8
I223381
sg9
VGeneral
p691
sg11
S'Wed, 13 May 2015 03:36:11 UTC'
p692
sg13
g689
sg14
F0
sg15
g690
sg16
F5
sa(dp693
g3
g689
sg5
VTwittCGOLD15BBoSR2Q14W
p694
sg7
I80146318
sg8
I223381
sg9
VBooth
p695
sg11
S'Wed, 13 May 2015 03:36:11 UTC'
p696
sg13
g689
sg14
F0
sg15
g694
sg16
F2
sa(dp697
g3
g689
sg5
VTwittCGOLD15BPrRec2Q14W
p698
sg7
I80146318
sg8
I223381
sg9
Nsg11
S'Wed, 13 May 2015 03:36:11 UTC'
p699
sg13
g689
sg14
F0
sg15
g698
sg16
F2
sa(dp700
g3
S'Corporate - Gold'
p701
sg5
VTripACGOLD15BGenR2Q14b
p702
sg7
I80166458
sg8
I223381
sg9
VGeneral
p703
sg11
S'Wed, 13 May 2015 03:36:12 UTC'
p704
sg13
g701
sg14
F0
sg15
g702
sg16
F5
sa(dp705
g3
g701
sg5
VTripACGOLD15BBoSR2Q14b
p706
sg7
I80166458
sg8
I223381
sg9
VBooth
p707
sg11
S'Wed, 13 May 2015 03:36:12 UTC'
p708
sg13
g701
sg14
F0
sg15
g706
sg16
F2
sa(dp709
g3
g701
sg5
VTripACGOLD15BPrRec2Q14b
p710
sg7
I80166458
sg8
I223381
sg9
Nsg11
S'Wed, 13 May 2015 03:36:12 UTC'
p711
sg13
g701
sg14
F0
sg15
g710
sg16
F2
sa(dp712
g3
S'Corporate - Silver'
p713
sg5
VAppirCSIL15BGenR2Q18E
p714
sg7
I80171568
sg8
I223382
sg9
VGeneral
p715
sg11
S'Wed, 13 May 2015 03:37:34 UTC'
p716
sg13
g713
sg14
F0
sg15
g714
sg16
F3
sa(dp717
g3
g713
sg5
VAppirCSIL15BBoSR2Q18E
p718
sg7
I80171568
sg8
I223382
sg9
VBooth
p719
sg11
S'Wed, 13 May 2015 03:37:34 UTC'
p720
sg13
g713
sg14
F0
sg15
g718
sg16
F3
sa(dp721
g3
g713
sg5
VAppirCSIL15BPrRec2Q18E
p722
sg7
I80171568
sg8
I223382
sg9
Nsg11
S'Wed, 13 May 2015 03:37:34 UTC'
p723
sg13
g713
sg14
F0
sg15
g722
sg16
F1
sa(dp724
g3
S'Corporate - Silver'
p725
sg5
VNorthCSIL15BGenR2Q17Q
p726
sg7
I80173047
sg8
I223382
sg9
VGeneral
p727
sg11
S'Wed, 13 May 2015 03:37:16 UTC'
p728
sg13
g725
sg14
F0
sg15
g726
sg16
F3
sa(dp729
g3
g725
sg5
VNorthCSIL15BBoSR2Q17Q
p730
sg7
I80173047
sg8
I223382
sg9
VBooth
p731
sg11
S'Wed, 13 May 2015 03:37:16 UTC'
p732
sg13
g725
sg14
F0
sg15
g730
sg16
F3
sa(dp733
g3
g725
sg5
VNorthCSIL15BPrRec2Q17Q
p734
sg7
I80173047
sg8
I223382
sg9
Nsg11
S'Wed, 13 May 2015 03:37:16 UTC'
p735
sg13
g725
sg14
F0
sg15
g734
sg16
F1
sa(dp736
g3
S'Corporate - Silver'
p737
sg5
VOptimCSIL15BGenR2Q17V
p738
sg7
I80173980
sg8
I223382
sg9
VGeneral
p739
sg11
S'Wed, 13 May 2015 03:37:17 UTC'
p740
sg13
g737
sg14
F0
sg15
g738
sg16
F3
sa(dp741
g3
g737
sg5
VOptimCSIL15BBoSR2Q17V
p742
sg7
I80173980
sg8
I223382
sg9
VBooth
p743
sg11
S'Wed, 13 May 2015 03:37:17 UTC'
p744
sg13
g737
sg14
F0
sg15
g742
sg16
F3
sa(dp745
g3
g737
sg5
VOptimCSIL15BPrRec2Q17V
p746
sg7
I80173980
sg8
I223382
sg9
Nsg11
S'Wed, 13 May 2015 03:37:17 UTC'
p747
sg13
g737
sg14
F0
sg15
g746
sg16
F1
sa(dp748
g3
S'Corporate - Gold'
p749
sg5
VLiberCGOLD15BGenR2Q14g
p750
sg7
I80219214
sg8
I223381
sg9
VGeneral
p751
sg11
S'Wed, 13 May 2015 03:36:14 UTC'
p752
sg13
g749
sg14
F0
sg15
g750
sg16
F5
sa(dp753
g3
g749
sg5
VLiberCGOLD15BBoSR2Q14g
p754
sg7
I80219214
sg8
I223381
sg9
VBooth
p755
sg11
S'Wed, 13 May 2015 03:36:14 UTC'
p756
sg13
g749
sg14
F0
sg15
g754
sg16
F2
sa(dp757
g3
g749
sg5
VLiberCGOLD15BPrRec2Q14g
p758
sg7
I80219214
sg8
I223381
sg9
Nsg11
S'Wed, 13 May 2015 03:36:14 UTC'
p759
sg13
g749
sg14
F0
sg15
g758
sg16
F2
sa(dp760
g3
S'Academic - Bronze'
p761
sg5
VUniveACABRZ15BFacR2Q19l
p762
sg7
I80257688
sg8
I223385
sg9
VAcademic
p763
sg11
S'Wed, 13 May 2015 03:38:09 UTC'
p764
sg13
g761
sg14
F0
sg15
g762
sg16
F1
sa(dp765
g3
g761
sg5
VUniveACABRZ15BStDc2Q19l
p766
sg7
I80257688
sg8
I223385
sg9
VStudent
p767
sg11
S'Wed, 13 May 2015 03:38:09 UTC'
p768
sg13
g761
sg14
F0
sg15
g766
sg16
F1
sa(dp769
g3
g761
sg5
VUniveACABRZ15BPrRec2Q19l
p770
sg7
I80257688
sg8
I223385
sg9
Nsg11
S'Wed, 13 May 2015 03:38:09 UTC'
p771
sg13
g761
sg14
F0
sg15
g770
sg16
F1
sa(dp772
g3
S'Corporate - Gold'
p773
sg5
VMylanCGOLD15BGenR2Q14l
p774
sg7
I80275681
sg8
I223381
sg9
VGeneral
p775
sg11
S'Wed, 13 May 2015 03:36:16 UTC'
p776
sg13
g773
sg14
F0
sg15
g774
sg16
F5
sa(dp777
g3
g773
sg5
VMylanCGOLD15BBoSR2Q14l
p778
sg7
I80275681
sg8
I223381
sg9
VBooth
p779
sg11
S'Wed, 13 May 2015 03:36:16 UTC'
p780
sg13
g773
sg14
F0
sg15
g778
sg16
F2
sa(dp781
g3
g773
sg5
VMylanCGOLD15BPrRec2Q14l
p782
sg7
I80275681
sg8
I223381
sg9
Nsg11
S'Wed, 13 May 2015 03:36:16 UTC'
p783
sg13
g773
sg14
F0
sg15
g782
sg16
F2
sa(dp784
g3
S'Corporate - Silver'
p785
sg5
VSamsuCSIL15BGenR2Q17a
p786
sg7
I80282733
sg8
I223382
sg9
VGeneral
p787
sg11
S'Wed, 13 May 2015 03:37:19 UTC'
p788
sg13
g785
sg14
F0
sg15
g786
sg16
F3
sa(dp789
g3
g785
sg5
VSamsuCSIL15BBoSR2Q17a
p790
sg7
I80282733
sg8
I223382
sg9
VBooth
p791
sg11
S'Wed, 13 May 2015 03:37:19 UTC'
p792
sg13
g785
sg14
F0
sg15
g790
sg16
F3
sa(dp793
g3
g785
sg5
VSamsuCSIL15BPrRec2Q17a
p794
sg7
I80282733
sg8
I223382
sg9
Nsg11
S'Wed, 13 May 2015 03:37:19 UTC'
p795
sg13
g785
sg14
F0
sg15
g794
sg16
F1
sa(dp796
g3
S'Corporate - Gold'
p797
sg5
VZenPaCGOLD15BGenR2Q13x
p798
sg7
I80332293
sg8
I223381
sg9
VGeneral
p799
sg11
S'Wed, 13 May 2015 03:35:59 UTC'
p800
sg13
g797
sg14
F0
sg15
g798
sg16
F5
sa(dp801
g3
g797
sg5
VZenPaCGOLD15BBoSR2Q13x
p802
sg7
I80332293
sg8
I223381
sg9
VBooth
p803
sg11
S'Wed, 13 May 2015 03:35:59 UTC'
p804
sg13
g797
sg14
F0
sg15
g802
sg16
F2
sa(dp805
g3
g797
sg5
VZenPaCGOLD15BPrRec2Q13x
p806
sg7
I80332293
sg8
I223381
sg9
Nsg11
S'Wed, 13 May 2015 03:35:59 UTC'
p807
sg13
g797
sg14
F0
sg15
g806
sg16
F2
sa(dp808
g3
S'Corporate - Gold'
p809
sg5
VGroupCGOLD15BGenR2Q142
p810
sg7
I80376014
sg8
I223381
sg9
VGeneral
p811
sg11
S'Wed, 13 May 2015 03:36:00 UTC'
p812
sg13
g809
sg14
F0
sg15
g810
sg16
F5
sa(dp813
g3
g809
sg5
VGroupCGOLD15BBoSR2Q142
p814
sg7
I80376014
sg8
I223381
sg9
VBooth
p815
sg11
S'Wed, 13 May 2015 03:36:00 UTC'
p816
sg13
g809
sg14
F0
sg15
g814
sg16
F2
sa(dp817
g3
g809
sg5
VGroupCGOLD15BPrRec2Q142
p818
sg7
I80376014
sg8
I223381
sg9
Nsg11
S'Wed, 13 May 2015 03:36:00 UTC'
p819
sg13
g809
sg14
F0
sg15
g818
sg16
F2
sa(dp820
g3
S'Corporate - Gold'
p821
sg5
VBrainCGOLD15BGenR2Q147
p822
sg7
I80426701
sg8
I223381
sg9
VGeneral
p823
sg11
S'Wed, 13 May 2015 03:36:02 UTC'
p824
sg13
g821
sg14
F0
sg15
g822
sg16
F5
sa(dp825
g3
g821
sg5
VBrainCGOLD15BBoSR2Q147
p826
sg7
I80426701
sg8
I223381
sg9
VBooth
p827
sg11
S'Wed, 13 May 2015 03:36:02 UTC'
p828
sg13
g821
sg14
F0
sg15
g826
sg16
F2
sa(dp829
g3
g821
sg5
VBrainCGOLD15BPrRec2Q147
p830
sg7
I80426701
sg8
I223381
sg9
Nsg11
S'Wed, 13 May 2015 03:36:02 UTC'
p831
sg13
g821
sg14
F0
sg15
g830
sg16
F2
sa(dp832
g3
S'Corporate - Gold'
p833
sg5
VPwCCGOLD15BGenR2Q14C
p834
sg7
I80458976
sg8
I223381
sg9
VGeneral
p835
sg11
S'Wed, 13 May 2015 03:36:04 UTC'
p836
sg13
g833
sg14
F0
sg15
g834
sg16
F5
sa(dp837
g3
g833
sg5
VPwCCGOLD15BBoSR2Q14C
p838
sg7
I80458976
sg8
I223381
sg9
VBooth
p839
sg11
S'Wed, 13 May 2015 03:36:04 UTC'
p840
sg13
g833
sg14
F0
sg15
g838
sg16
F2
sa(dp841
g3
g833
sg5
VPwCCGOLD15BPrRec2Q14C
p842
sg7
I80458976
sg8
I223381
sg9
Nsg11
S'Wed, 13 May 2015 03:36:04 UTC'
p843
sg13
g833
sg14
F0
sg15
g842
sg16
F2
sa(dp844
g3
S'Corporate - Silver'
p845
sg5
VSequoCSIL15BGenR2Q17f
p846
sg7
I80479404
sg8
I223382
sg9
VGeneral
p847
sg11
S'Wed, 13 May 2015 03:37:20 UTC'
p848
sg13
g845
sg14
F0
sg15
g846
sg16
F3
sa(dp849
g3
g845
sg5
VSequoCSIL15BBoSR2Q17f
p850
sg7
I80479404
sg8
I223382
sg9
VBooth
p851
sg11
S'Wed, 13 May 2015 03:37:20 UTC'
p852
sg13
g845
sg14
F0
sg15
g850
sg16
F3
sa(dp853
g3
g845
sg5
VSequoCSIL15BPrRec2Q17f
p854
sg7
I80479404
sg8
I223382
sg9
Nsg11
S'Wed, 13 May 2015 03:37:20 UTC'
p855
sg13
g845
sg14
F0
sg15
g854
sg16
F1
sa(dp856
g3
S'Corporate - Gold'
p857
sg5
VDeutsCGOLD15BGenR2Q14H
p858
sg7
I80535579
sg8
I223381
sg9
VGeneral
p859
sg11
S'Wed, 13 May 2015 03:36:05 UTC'
p860
sg13
g857
sg14
F0
sg15
g858
sg16
F5
sa(dp861
g3
g857
sg5
VDeutsCGOLD15BBoSR2Q14H
p862
sg7
I80535579
sg8
I223381
sg9
VBooth
p863
sg11
S'Wed, 13 May 2015 03:36:05 UTC'
p864
sg13
g857
sg14
F0
sg15
g862
sg16
F2
sa(dp865
g3
g857
sg5
VDeutsCGOLD15BPrRec2Q14H
p866
sg7
I80535579
sg8
I223381
sg9
Nsg11
S'Wed, 13 May 2015 03:36:05 UTC'
p867
sg13
g857
sg14
F0
sg15
g866
sg16
F2
sa(dp868
g3
S'Corporate - Silver'
p869
sg5
VDeloiCSIL15BGenR2Q151
p870
sg7
I80541412
sg8
I223382
sg9
VGeneral
p871
sg11
S'Wed, 13 May 2015 03:37:22 UTC'
p872
sg13
g869
sg14
F0
sg15
g870
sg16
F3
sa(dp873
g3
g869
sg5
VDeloiCSIL15BBoSR2Q151
p874
sg7
I80541412
sg8
I223382
sg9
VBooth
p875
sg11
S'Wed, 13 May 2015 03:37:22 UTC'
p876
sg13
g869
sg14
F0
sg15
g874
sg16
F3
sa(dp877
g3
g869
sg5
VDeloiCSIL15BPrRec2Q151
p878
sg7
I80541412
sg8
I223382
sg9
Nsg11
S'Wed, 13 May 2015 03:37:22 UTC'
p879
sg13
g869
sg14
F0
sg15
g878
sg16
F1
sa(dp880
g3
S'Corporate - Silver'
p881
sg5
VSpiceCSIL15BGenR2Q17k
p882
sg7
I80544565
sg8
I223382
sg9
VGeneral
p883
sg11
S'Wed, 13 May 2015 03:37:23 UTC'
p884
sg13
g881
sg14
F0
sg15
g882
sg16
F3
sa(dp885
g3
g881
sg5
VSpiceCSIL15BBoSR2Q17k
p886
sg7
I80544565
sg8
I223382
sg9
VBooth
p887
sg11
S'Wed, 13 May 2015 03:37:23 UTC'
p888
sg13
g881
sg14
F0
sg15
g886
sg16
F3
sa(dp889
g3
g881
sg5
VSpiceCSIL15BPrRec2Q17k
p890
sg7
I80544565
sg8
I223382
sg9
Nsg11
S'Wed, 13 May 2015 03:37:23 UTC'
p891
sg13
g881
sg14
F0
sg15
g890
sg16
F1
sa(dp892
g3
S'Corporate - Silver'
p893
sg5
VFlatiCSIL15BGenR2Q176
p894
sg7
I80601987
sg8
I223382
sg9
VGeneral
p895
sg11
S'Wed, 13 May 2015 03:37:06 UTC'
p896
sg13
g893
sg14
F0
sg15
g894
sg16
F3
sa(dp897
g3
g893
sg5
VFlatiCSIL15BBoSR2Q176
p898
sg7
I80601987
sg8
I223382
sg9
VBooth
p899
sg11
S'Wed, 13 May 2015 03:37:06 UTC'
p900
sg13
g893
sg14
F0
sg15
g898
sg16
F3
sa(dp901
g3
g893
sg5
VFlatiCSIL15BPrRec2Q176
p902
sg7
I80601987
sg8
I223382
sg9
Nsg11
S'Wed, 13 May 2015 03:37:06 UTC'
p903
sg13
g893
sg14
F0
sg15
g902
sg16
F1
sa(dp904
g3
S'Academic - Gold'
p905
sg5
VPurduACAGOLD15BBoSR2Q18d
p906
sg7
I80605148
sg8
I223383
sg9
VBooth
p907
sg11
S'Wed, 13 May 2015 03:37:45 UTC'
p908
sg13
g905
sg14
F0
sg15
g906
sg16
F2
sa(dp909
g3
g905
sg5
VPurduACAGOLD15BPrRec2Q18d
p910
sg7
I80605148
sg8
I223383
sg9
Nsg11
S'Wed, 13 May 2015 03:37:45 UTC'
p911
sg13
g905
sg14
F0
sg15
g910
sg16
F3
sa(dp912
g3
g905
sg5
VPurduACAGOLD15BStDc2Q18d
p913
sg7
I80605148
sg8
I223383
sg9
VStudent
p914
sg11
S'Wed, 13 May 2015 03:37:45 UTC'
p915
sg13
g905
sg14
F0
sg15
g913
sg16
F1
sa(dp916
g3
g905
sg5
VPurduACAGOLD15BFacR2Q18d
p917
sg7
I80605148
sg8
I223383
sg9
VAcademic
p918
sg11
S'Wed, 13 May 2015 03:37:45 UTC'
p919
sg13
g905
sg14
F0
sg15
g917
sg16
F3
sa(dp920
g3
S'Lab & Non-Profit - Gold'
p921
sg5
VDigniL&NGOLD15BGenR2Q1AZ
p922
sg7
I80614404
sg8
I226851
sg9
VGeneral
p923
sg11
S'Wed, 13 May 2015 03:38:26 UTC'
p924
sg13
g921
sg14
F0
sg15
g922
sg16
F3
sa(dp925
g3
g921
sg5
VDigniL&NGOLD15BPrRec2Q1AZ
p926
sg7
I80614404
sg8
I226851
sg9
Nsg11
S'Wed, 13 May 2015 03:38:26 UTC'
p927
sg13
g921
sg14
F0
sg15
g926
sg16
F3
sa(dp928
g3
S'Corporate - Silver'
p929
sg5
VUberCSIL15BGenR2Q17B
p930
sg7
I80617786
sg8
I223382
sg9
VGeneral
p931
sg11
S'Wed, 13 May 2015 03:37:07 UTC'
p932
sg13
g929
sg14
F0
sg15
g930
sg16
F3
sa(dp933
g3
g929
sg5
VUberCSIL15BBoSR2Q17B
p934
sg7
I80617786
sg8
I223382
sg9
VBooth
p935
sg11
S'Wed, 13 May 2015 03:37:07 UTC'
p936
sg13
g929
sg14
F0
sg15
g934
sg16
F3
sa(dp937
g3
g929
sg5
VUberCSIL15BPrRec2Q17B
p938
sg7
I80617786
sg8
I223382
sg9
Nsg11
S'Wed, 13 May 2015 03:37:07 UTC'
p939
sg13
g929
sg14
F0
sg15
g938
sg16
F1
sa(dp940
g3
S'Corporate - Silver'
p941
sg5
VOpenTCSIL15BGenR2Q16s
p942
sg7
I80649549
sg8
I223382
sg9
VGeneral
p943
sg11
S'Wed, 13 May 2015 03:37:09 UTC'
p944
sg13
g941
sg14
F0
sg15
g942
sg16
F3
sa(dp945
g3
g941
sg5
VOpenTCSIL15BBoSR2Q16s
p946
sg7
I80649549
sg8
I223382
sg9
VBooth
p947
sg11
S'Wed, 13 May 2015 03:37:09 UTC'
p948
sg13
g941
sg14
F0
sg15
g946
sg16
F3
sa(dp949
g3
g941
sg5
VOpenTCSIL15BPrRec2Q16s
p950
sg7
I80649549
sg8
I223382
sg9
Nsg11
S'Wed, 13 May 2015 03:37:09 UTC'
p951
sg13
g941
sg14
F0
sg15
g950
sg16
F1
sa(dp952
g3
S'Corporate - Silver'
p953
sg5
VHuluCSIL15BGenR2Q17G
p954
sg7
I80660768
sg8
I223382
sg9
VGeneral
p955
sg11
S'Wed, 13 May 2015 03:37:11 UTC'
p956
sg13
g953
sg14
F0
sg15
g954
sg16
F3
sa(dp957
g3
g953
sg5
VHuluCSIL15BBoSR2Q17G
p958
sg7
I80660768
sg8
I223382
sg9
VBooth
p959
sg11
S'Wed, 13 May 2015 03:37:11 UTC'
p960
sg13
g953
sg14
F0
sg15
g958
sg16
F3
sa(dp961
g3
g953
sg5
VHuluCSIL15BPrRec2Q17G
p962
sg7
I80660768
sg8
I223382
sg9
Nsg11
S'Wed, 13 May 2015 03:37:11 UTC'
p963
sg13
g953
sg14
F0
sg15
g962
sg16
F1
sa(dp964
g3
S'Corporate - Silver'
p965
sg5
VBrocaCSIL15BGenR2Q17L
p966
sg7
I80666758
sg8
I223382
sg9
VGeneral
p967
sg11
S'Wed, 13 May 2015 03:37:13 UTC'
p968
sg13
g965
sg14
F0
sg15
g966
sg16
F3
sa(dp969
g3
g965
sg5
VBrocaCSIL15BBoSR2Q17L
p970
sg7
I80666758
sg8
I223382
sg9
VBooth
p971
sg11
S'Wed, 13 May 2015 03:37:13 UTC'
p972
sg13
g965
sg14
F0
sg15
g970
sg16
F3
sa(dp973
g3
g965
sg5
VBrocaCSIL15BPrRec2Q17L
p974
sg7
I80666758
sg8
I223382
sg9
Nsg11
S'Wed, 13 May 2015 03:37:13 UTC'
p975
sg13
g965
sg14
F0
sg15
g974
sg16
F1
sa(dp976
g3
S'Academic - Bronze'
p977
sg5
VBrownACABRZ15BFacR2Q19q
p978
sg7
I80692237
sg8
I223385
sg9
VAcademic
p979
sg11
S'Wed, 13 May 2015 03:38:10 UTC'
p980
sg13
g977
sg14
F0
sg15
g978
sg16
F1
sa(dp981
g3
g977
sg5
VBrownACABRZ15BStDc2Q19q
p982
sg7
I80692237
sg8
I223385
sg9
VStudent
p983
sg11
S'Wed, 13 May 2015 03:38:10 UTC'
p984
sg13
g977
sg14
F0
sg15
g982
sg16
F1
sa(dp985
g3
g977
sg5
VBrownACABRZ15BPrRec2Q19q
p986
sg7
I80692237
sg8
I223385
sg9
Nsg11
S'Wed, 13 May 2015 03:38:10 UTC'
p987
sg13
g977
sg14
F0
sg15
g986
sg16
F1
sa(dp988
g3
S'Academic - Silver'
p989
sg5
VMITACASIL15BBoSR2Q19R
p990
sg7
I80705093
sg8
I223384
sg9
VBooth
p991
sg11
S'Wed, 13 May 2015 03:38:02 UTC'
p992
sg13
g989
sg14
F0
sg15
g990
sg16
F3
sa(dp993
g3
g989
sg5
VMITACASIL15BPrRec2Q19R
p994
sg7
I80705093
sg8
I223384
sg9
Nsg11
S'Wed, 13 May 2015 03:38:02 UTC'
p995
sg13
g989
sg14
F0
sg15
g994
sg16
F2
sa(dp996
g3
g989
sg5
VMITACASIL15BStDc2Q19R
p997
sg7
I80705093
sg8
I223384
sg9
VStudent
p998
sg11
S'Wed, 13 May 2015 03:38:02 UTC'
p999
sg13
g989
sg14
F0
sg15
g997
sg16
F1
sa(dp1000
g3
g989
sg5
VMITACASIL15BFacR2Q19R
p1001
sg7
I80705093
sg8
I223384
sg9
VAcademic
p1002
sg11
S'Wed, 13 May 2015 03:38:02 UTC'
p1003
sg13
g989
sg14
F0
sg15
g1001
sg16
F2
sa(dp1004
g3
S'Corporate - Gold'
p1005
sg5
VAtlasCGOLD15BGenR2Q13J
p1006
sg7
I80710866
sg8
I223381
sg9
VGeneral
p1007
sg11
S'Wed, 13 May 2015 03:35:48 UTC'
p1008
sg13
g1005
sg14
F0
sg15
g1006
sg16
F5
sa(dp1009
g3
g1005
sg5
VAtlasCGOLD15BBoSR2Q13J
p1010
sg7
I80710866
sg8
I223381
sg9
VBooth
p1011
sg11
S'Wed, 13 May 2015 03:35:48 UTC'
p1012
sg13
g1005
sg14
F0
sg15
g1010
sg16
F2
sa(dp1013
g3
g1005
sg5
VAtlasCGOLD15BPrRec2Q13J
p1014
sg7
I80710866
sg8
I223381
sg9
Nsg11
S'Wed, 13 May 2015 03:35:48 UTC'
p1015
sg13
g1005
sg14
F0
sg15
g1014
sg16
F2
sa(dp1016
g3
S'Academic - Bronze'
p1017
sg5
VUniveACABRZ15BFacR2Q19v
p1018
sg7
I80715877
sg8
I223385
sg9
VAcademic
p1019
sg11
S'Wed, 13 May 2015 03:38:12 UTC'
p1020
sg13
g1017
sg14
F0
sg15
g1018
sg16
F1
sa(dp1021
g3
g1017
sg5
VUniveACABRZ15BStDc2Q19v
p1022
sg7
I80715877
sg8
I223385
sg9
VStudent
p1023
sg11
S'Wed, 13 May 2015 03:38:12 UTC'
p1024
sg13
g1017
sg14
F0
sg15
g1022
sg16
F1
sa(dp1025
g3
g1017
sg5
VUniveACABRZ15BPrRec2Q19v
p1026
sg7
I80715877
sg8
I223385
sg9
Nsg11
S'Wed, 13 May 2015 03:38:12 UTC'
p1027
sg13
g1017
sg14
F0
sg15
g1026
sg16
F1
sa(dp1028
g3
S'Academic - Silver'
p1029
sg5
VCalteACASIL15BBoSR2Q192
p1030
sg7
I80722918
sg8
I223384
sg9
VBooth
p1031
sg11
S'Wed, 13 May 2015 03:37:54 UTC'
p1032
sg13
g1029
sg14
F0
sg15
g1030
sg16
F3
sa(dp1033
g3
g1029
sg5
VCalteACASIL15BPrRec2Q192
p1034
sg7
I80722918
sg8
I223384
sg9
Nsg11
S'Wed, 13 May 2015 03:37:54 UTC'
p1035
sg13
g1029
sg14
F0
sg15
g1034
sg16
F2
sa(dp1036
g3
g1029
sg5
VCalteACASIL15BStDc2Q192
p1037
sg7
I80722918
sg8
I223384
sg9
VStudent
p1038
sg11
S'Wed, 13 May 2015 03:37:54 UTC'
p1039
sg13
g1029
sg14
F0
sg15
g1037
sg16
F1
sa(dp1040
g3
g1029
sg5
VCalteACASIL15BFacR2Q192
p1041
sg7
I80722918
sg8
I223384
sg9
VAcademic
p1042
sg11
S'Wed, 13 May 2015 03:37:54 UTC'
p1043
sg13
g1029
sg14
F0
sg15
g1041
sg16
F2
sa(dp1044
g3
S'Corporate - Gold'
p1045
sg5
VPrude152Q13O
p1046
sg7
I80723273
sg8
I223381
sg9
VOne Day
p1047
sg11
S'Wed, 13 May 2015 03:35:49 UTC'
p1048
sg13
g1045
sg14
F0
sg15
g1046
sg16
F1
sa(dp1049
g3
g1045
sg5
VPrudeCGOLD15BGenR2Q13O
p1050
sg7
I80723273
sg8
I223381
sg9
VGeneral
p1051
sg11
S'Wed, 13 May 2015 03:35:49 UTC'
p1052
sg13
g1045
sg14
F0
sg15
g1050
sg16
F5
sa(dp1053
g3
g1045
sg5
VPrudeCGOLD15BBoSR2Q13O
p1054
sg7
I80723273
sg8
I223381
sg9
VBooth
p1055
sg11
S'Wed, 13 May 2015 03:35:49 UTC'
p1056
sg13
g1045
sg14
F0
sg15
g1054
sg16
F2
sa(dp1057
g3
g1045
sg5
VPrudeCGOLD15BPrRec2Q13O
p1058
sg7
I80723273
sg8
I223381
sg9
Nsg11
S'Wed, 13 May 2015 03:35:49 UTC'
p1059
sg13
g1045
sg14
F0
sg15
g1058
sg16
F2
sa(dp1060
g3
S'GHC Event Sponsorships and Enterprise Packages'
p1061
sg5
VLockh152Q1Ao
p1062
sg7
I80724512
sg8
I227146
sg9
VOne Day
p1063
sg11
S'Wed, 13 May 2015 03:38:33 UTC'
p1064
sg13
g1061
sg14
F0
sg15
g1062
sg16
F1
sa(dp1065
g3
S'Academic - Gold'
p1066
sg5
VHarveACAGOLD15BBoSR2Q18o
p1067
sg7
I80725493
sg8
I223383
sg9
VBooth
p1068
sg11
S'Wed, 13 May 2015 03:37:50 UTC'
p1069
sg13
g1066
sg14
F0
sg15
g1067
sg16
F2
sa(dp1070
g3
g1066
sg5
VHarveACAGOLD15BPrRec2Q18o
p1071
sg7
I80725493
sg8
I223383
sg9
Nsg11
S'Wed, 13 May 2015 03:37:50 UTC'
p1072
sg13
g1066
sg14
F0
sg15
g1071
sg16
F3
sa(dp1073
g3
g1066
sg5
VHarveACAGOLD15BStDc2Q18o
p1074
sg7
I80725493
sg8
I223383
sg9
VStudent
p1075
sg11
S'Wed, 13 May 2015 03:37:50 UTC'
p1076
sg13
g1066
sg14
F0
sg15
g1074
sg16
F1
sa(dp1077
g3
g1066
sg5
VHarveACAGOLD15BFacR2Q18o
p1078
sg7
I80725493
sg8
I223383
sg9
VAcademic
p1079
sg11
S'Wed, 13 May 2015 03:37:50 UTC'
p1080
sg13
g1066
sg14
F0
sg15
g1078
sg16
F3
sa(dp1081
g3
S'Corporate - Gold'
p1082
sg5
VAutodCGOLD15BGenR2Q13T
p1083
sg7
I80751863
sg8
I223381
sg9
VGeneral
p1084
sg11
S'Wed, 13 May 2015 03:35:51 UTC'
p1085
sg13
g1082
sg14
F0
sg15
g1083
sg16
F5
sa(dp1086
g3
g1082
sg5
VAutodCGOLD15BBoSR2Q13T
p1087
sg7
I80751863
sg8
I223381
sg9
VBooth
p1088
sg11
S'Wed, 13 May 2015 03:35:51 UTC'
p1089
sg13
g1082
sg14
F0
sg15
g1087
sg16
F2
sa(dp1090
g3
g1082
sg5
VAutodCGOLD15BPrRec2Q13T
p1091
sg7
I80751863
sg8
I223381
sg9
Nsg11
S'Wed, 13 May 2015 03:35:51 UTC'
p1092
sg13
g1082
sg14
F0
sg15
g1091
sg16
F2
sa(dp1093
g3
S'ABI Partners Only - Platinum'
p1094
sg5
VIntuiPLAT15BGenR2Q11c
p1095
sg7
I80757386
sg8
I223380
sg9
VGeneral
p1096
sg11
S'Wed, 13 May 2015 03:35:08 UTC'
p1097
sg13
g1094
sg14
F0
sg15
g1095
sg16
F10
sa(dp1098
g3
g1094
sg5
VIntuiPLAT15BBoSR2Q11c
p1099
sg7
I80757386
sg8
I223380
sg9
VBooth
p1100
sg11
S'Wed, 13 May 2015 03:35:08 UTC'
p1101
sg13
g1094
sg14
F0
sg15
g1099
sg16
F8
sa(dp1102
g3
g1094
sg5
VIntuiPLAT15BPrRec2Q11c
p1103
sg7
I80757386
sg8
I223380
sg9
Nsg11
S'Wed, 13 May 2015 03:35:08 UTC'
p1104
sg13
g1094
sg14
F0
sg15
g1103
sg16
F6
sa(dp1105
g3
g1094
sg5
VIntui1510DGenR2Q11c
p1106
sg7
I80757386
sg8
I223380
sg9
VGeneral
p1107
sg11
S'Wed, 13 May 2015 03:35:08 UTC'
p1108
sg13
g1094
sg14
F0
sg15
g1106
sg16
F200
sa(dp1109
g3
S'ABI Partners Only - Platinum'
p1110
sg5
VEricsPLAT15BGenR2Q11h
p1111
sg7
I80766185
sg8
I223380
sg9
VGeneral
p1112
sg11
S'Wed, 13 May 2015 03:35:09 UTC'
p1113
sg13
g1110
sg14
F0
sg15
g1111
sg16
F10
sa(dp1114
g3
g1110
sg5
VEricsPLAT15BBoSR2Q11h
p1115
sg7
I80766185
sg8
I223380
sg9
VBooth
p1116
sg11
S'Wed, 13 May 2015 03:35:09 UTC'
p1117
sg13
g1110
sg14
F0
sg15
g1115
sg16
F8
sa(dp1118
g3
g1110
sg5
VEricsPLAT15BPrRec2Q11h
p1119
sg7
I80766185
sg8
I223380
sg9
Nsg11
S'Wed, 13 May 2015 03:35:09 UTC'
p1120
sg13
g1110
sg14
F0
sg15
g1119
sg16
F6
sa(dp1121
g3
g1110
sg5
VErics1510DGenR2Q11h
p1122
sg7
I80766185
sg8
I223380
sg9
VGeneral
p1123
sg11
S'Wed, 13 May 2015 03:35:09 UTC'
p1124
sg13
g1110
sg14
F0
sg15
g1122
sg16
F50
sa(dp1125
g3
S'Academic - Silver'
p1126
sg5
VIU-ScACASIL15BBoSR2Q19W
p1127
sg7
I80837474
sg8
I223384
sg9
VBooth
p1128
sg11
S'Wed, 13 May 2015 03:38:03 UTC'
p1129
sg13
g1126
sg14
F0
sg15
g1127
sg16
F3
sa(dp1130
g3
g1126
sg5
VIU-ScACASIL15BPrRec2Q19W
p1131
sg7
I80837474
sg8
I223384
sg9
Nsg11
S'Wed, 13 May 2015 03:38:03 UTC'
p1132
sg13
g1126
sg14
F0
sg15
g1131
sg16
F2
sa(dp1133
g3
g1126
sg5
VIU-ScACASIL15BStDc2Q19W
p1134
sg7
I80837474
sg8
I223384
sg9
VStudent
p1135
sg11
S'Wed, 13 May 2015 03:38:03 UTC'
p1136
sg13
g1126
sg14
F0
sg15
g1134
sg16
F1
sa(dp1137
g3
g1126
sg5
VIU-ScACASIL15BFacR2Q19W
p1138
sg7
I80837474
sg8
I223384
sg9
VAcademic
p1139
sg11
S'Wed, 13 May 2015 03:38:03 UTC'
p1140
sg13
g1126
sg14
F0
sg15
g1138
sg16
F2
sa(dp1141
g3
S'Corporate - Silver'
p1142
sg5
VOpoweCSIL15BGenR2Q14D
p1143
sg7
I80843521
sg8
I223382
sg9
VGeneral
p1144
sg11
S'Wed, 13 May 2015 03:37:14 UTC'
p1145
sg13
g1142
sg14
F0
sg15
g1143
sg16
F3
sa(dp1146
g3
g1142
sg5
VOpoweCSIL15BBoSR2Q14D
p1147
sg7
I80843521
sg8
I223382
sg9
VBooth
p1148
sg11
S'Wed, 13 May 2015 03:37:14 UTC'
p1149
sg13
g1142
sg14
F0
sg15
g1147
sg16
F3
sa(dp1150
g3
g1142
sg5
VOpoweCSIL15BPrRec2Q14D
p1151
sg7
I80843521
sg8
I223382
sg9
Nsg11
S'Wed, 13 May 2015 03:37:14 UTC'
p1152
sg13
g1142
sg14
F0
sg15
g1151
sg16
F1
sa(dp1153
g3
S'Academic - Bronze'
p1154
sg5
VRocheACABRZ15BFacR2Q1A0
p1155
sg7
I80907398
sg8
I223385
sg9
VAcademic
p1156
sg11
S'Wed, 13 May 2015 03:38:15 UTC'
p1157
sg13
g1154
sg14
F0
sg15
g1155
sg16
F1
sa(dp1158
g3
g1154
sg5
VRocheACABRZ15BStDc2Q1A0
p1159
sg7
I80907398
sg8
I223385
sg9
VStudent
p1160
sg11
S'Wed, 13 May 2015 03:38:15 UTC'
p1161
sg13
g1154
sg14
F0
sg15
g1159
sg16
F1
sa(dp1162
g3
g1154
sg5
VRocheACABRZ15BPrRec2Q1A0
p1163
sg7
I80907398
sg8
I223385
sg9
Nsg11
S'Wed, 13 May 2015 03:38:15 UTC'
p1164
sg13
g1154
sg14
F0
sg15
g1163
sg16
F1
sa(dp1165
g3
S'Corporate - Silver'
p1166
sg5
VCimprCSIL15BGenR2Q16c
p1167
sg7
I80951114
sg8
I223382
sg9
VGeneral
p1168
sg11
S'Wed, 13 May 2015 03:36:56 UTC'
p1169
sg13
g1166
sg14
F0
sg15
g1167
sg16
F3
sa(dp1170
g3
g1166
sg5
VCimprCSIL15BBoSR2Q16c
p1171
sg7
I80951114
sg8
I223382
sg9
VBooth
p1172
sg11
S'Wed, 13 May 2015 03:36:56 UTC'
p1173
sg13
g1166
sg14
F0
sg15
g1171
sg16
F3
sa(dp1174
g3
g1166
sg5
VCimprCSIL15BPrRec2Q16c
p1175
sg7
I80951114
sg8
I223382
sg9
Nsg11
S'Wed, 13 May 2015 03:36:56 UTC'
p1176
sg13
g1166
sg14
F0
sg15
g1175
sg16
F1
sa(dp1177
g3
S'Corporate - Silver'
p1178
sg5
VStripCSIL15BGenR2Q16h
p1179
sg7
I80965581
sg8
I223382
sg9
VGeneral
p1180
sg11
S'Wed, 13 May 2015 03:36:57 UTC'
p1181
sg13
g1178
sg14
F0
sg15
g1179
sg16
F3
sa(dp1182
g3
g1178
sg5
VStripCSIL15BBoSR2Q16h
p1183
sg7
I80965581
sg8
I223382
sg9
VBooth
p1184
sg11
S'Wed, 13 May 2015 03:36:57 UTC'
p1185
sg13
g1178
sg14
F0
sg15
g1183
sg16
F3
sa(dp1186
g3
g1178
sg5
VStripCSIL15BPrRec2Q16h
p1187
sg7
I80965581
sg8
I223382
sg9
Nsg11
S'Wed, 13 May 2015 03:36:57 UTC'
p1188
sg13
g1178
sg14
F0
sg15
g1187
sg16
F1
sa(dp1189
g3
S'ABI Partners Only - Platinum'
p1190
sg5
VYahooPLAT15BGenR2Q11T
p1191
sg7
I81051813
sg8
I223380
sg9
VGeneral
p1192
sg11
S'Wed, 13 May 2015 03:35:11 UTC'
p1193
sg13
g1190
sg14
F0
sg15
g1191
sg16
F10
sa(dp1194
g3
g1190
sg5
VYahooPLAT15BBoSR2Q11T
p1195
sg7
I81051813
sg8
I223380
sg9
VBooth
p1196
sg11
S'Wed, 13 May 2015 03:35:11 UTC'
p1197
sg13
g1190
sg14
F0
sg15
g1195
sg16
F8
sa(dp1198
g3
g1190
sg5
VYahooPLAT15BPrRec2Q11T
p1199
sg7
I81051813
sg8
I223380
sg9
Nsg11
S'Wed, 13 May 2015 03:35:11 UTC'
p1200
sg13
g1190
sg14
F0
sg15
g1199
sg16
F6
sa(dp1201
g3
g1190
sg5
VYahoo1510DGenR2Q11T
p1202
sg7
I81051813
sg8
I223380
sg9
VGeneral
p1203
sg11
S'Wed, 13 May 2015 03:35:11 UTC'
p1204
sg13
g1190
sg14
F0
sg15
g1202
sg16
F130
sa(dp1205
g3
S'Corporate - Silver'
p1206
sg5
VLivinCSIL15BGenR2Q16m
p1207
sg7
I81153506
sg8
I223382
sg9
VGeneral
p1208
sg11
S'Wed, 13 May 2015 03:36:59 UTC'
p1209
sg13
g1206
sg14
F0
sg15
g1207
sg16
F3
sa(dp1210
g3
g1206
sg5
VLivinCSIL15BBoSR2Q16m
p1211
sg7
I81153506
sg8
I223382
sg9
VBooth
p1212
sg11
S'Wed, 13 May 2015 03:36:59 UTC'
p1213
sg13
g1206
sg14
F0
sg15
g1211
sg16
F3
sa(dp1214
g3
g1206
sg5
VLivinCSIL15BPrRec2Q16m
p1215
sg7
I81153506
sg8
I223382
sg9
Nsg11
S'Wed, 13 May 2015 03:36:59 UTC'
p1216
sg13
g1206
sg14
F0
sg15
g1215
sg16
F1
sa(dp1217
g3
S'Academic - Gold'
p1218
sg5
VMontaACAGOLD15BBoSR2Q18i
p1219
sg7
I81203930
sg8
I223383
sg9
VBooth
p1220
sg11
S'Wed, 13 May 2015 03:37:46 UTC'
p1221
sg13
g1218
sg14
F0
sg15
g1219
sg16
F2
sa(dp1222
g3
g1218
sg5
VMontaACAGOLD15BPrRec2Q18i
p1223
sg7
I81203930
sg8
I223383
sg9
Nsg11
S'Wed, 13 May 2015 03:37:46 UTC'
p1224
sg13
g1218
sg14
F0
sg15
g1223
sg16
F3
sa(dp1225
g3
g1218
sg5
VMontaACAGOLD15BStDc2Q18i
p1226
sg7
I81203930
sg8
I223383
sg9
VStudent
p1227
sg11
S'Wed, 13 May 2015 03:37:46 UTC'
p1228
sg13
g1218
sg14
F0
sg15
g1226
sg16
F1
sa(dp1229
g3
g1218
sg5
VMontaACAGOLD15BFacR2Q18i
p1230
sg7
I81203930
sg8
I223383
sg9
VAcademic
p1231
sg11
S'Wed, 13 May 2015 03:37:46 UTC'
p1232
sg13
g1218
sg14
F0
sg15
g1230
sg16
F3
sa(dp1233
g3
S'GHC Event Sponsorships and Enterprise Packages'
p1234
sg5
VAccen15SWLnch2Q1At
p1235
sg7
I81211137
sg8
I227146
sg9
VOne Day
p1236
sg11
S'Wed, 13 May 2015 03:38:34 UTC'
p1237
sg13
g1234
sg14
F0
sg15
g1235
sg16
F1
sa(dp1238
g3
S'Corporate - Gold'
p1239
sg5
VFactSCGOLD15BGenR2Q13d
p1240
sg7
I81211467
sg8
I223381
sg9
VGeneral
p1241
sg11
S'Wed, 13 May 2015 03:35:52 UTC'
p1242
sg13
g1239
sg14
F0
sg15
g1240
sg16
F5
sa(dp1243
g3
g1239
sg5
VFactSCGOLD15BBoSR2Q13d
p1244
sg7
I81211467
sg8
I223381
sg9
VBooth
p1245
sg11
S'Wed, 13 May 2015 03:35:53 UTC'
p1246
sg13
g1239
sg14
F0
sg15
g1244
sg16
F2
sa(dp1247
g3
g1239
sg5
VFactSCGOLD15BPrRec2Q13d
p1248
sg7
I81211467
sg8
I223381
sg9
Nsg11
S'Wed, 13 May 2015 03:35:53 UTC'
p1249
sg13
g1239
sg14
F0
sg15
g1248
sg16
F2
sa(dp1250
g3
S'Corporate - Silver'
p1251
sg5
VTableCSIL15BGenR2Q16r
p1252
sg7
I81219018
sg8
I223382
sg9
VGeneral
p1253
sg11
S'Wed, 13 May 2015 03:37:00 UTC'
p1254
sg13
g1251
sg14
F0
sg15
g1252
sg16
F3
sa(dp1255
g3
g1251
sg5
VTableCSIL15BBoSR2Q16r
p1256
sg7
I81219018
sg8
I223382
sg9
VBooth
p1257
sg11
S'Wed, 13 May 2015 03:37:00 UTC'
p1258
sg13
g1251
sg14
F0
sg15
g1256
sg16
F3
sa(dp1259
g3
g1251
sg5
VTableCSIL15BPrRec2Q16r
p1260
sg7
I81219018
sg8
I223382
sg9
Nsg11
S'Wed, 13 May 2015 03:37:00 UTC'
p1261
sg13
g1251
sg14
F0
sg15
g1260
sg16
F1
sa(dp1262
g3
S'Corporate - Gold'
p1263
sg5
VQuoraCGOLD15BGenR2Q13i
p1264
sg7
I81269116
sg8
I223381
sg9
VGeneral
p1265
sg11
S'Wed, 13 May 2015 03:35:54 UTC'
p1266
sg13
g1263
sg14
F0
sg15
g1264
sg16
F5
sa(dp1267
g3
g1263
sg5
VQuoraCGOLD15BBoSR2Q13i
p1268
sg7
I81269116
sg8
I223381
sg9
VBooth
p1269
sg11
S'Wed, 13 May 2015 03:35:54 UTC'
p1270
sg13
g1263
sg14
F0
sg15
g1268
sg16
F2
sa(dp1271
g3
g1263
sg5
VQuoraCGOLD15BPrRec2Q13i
p1272
sg7
I81269116
sg8
I223381
sg9
Nsg11
S'Wed, 13 May 2015 03:35:54 UTC'
p1273
sg13
g1263
sg14
F0
sg15
g1272
sg16
F2
sa(dp1274
g3
S'GHC Event Sponsorships and Enterprise Packages'
p1275
sg5
VRMS152Q1Ay
p1276
sg7
I81277663
sg8
I227146
sg9
VOne Day
p1277
sg11
S'Wed, 13 May 2015 03:38:36 UTC'
p1278
sg13
g1275
sg14
F0
sg15
g1276
sg16
F1
sa(dp1279
g3
S'Corporate - Silver'
p1280
sg5
VNatioCSIL15BGenR2Q168
p1281
sg7
I81294822
sg8
I223382
sg9
VGeneral
p1282
sg11
S'Wed, 13 May 2015 03:36:46 UTC'
p1283
sg13
g1280
sg14
F0
sg15
g1281
sg16
F3
sa(dp1284
g3
g1280
sg5
VNatioCSIL15BBoSR2Q168
p1285
sg7
I81294822
sg8
I223382
sg9
VBooth
p1286
sg11
S'Wed, 13 May 2015 03:36:46 UTC'
p1287
sg13
g1280
sg14
F0
sg15
g1285
sg16
F3
sa(dp1288
g3
g1280
sg5
VNatioCSIL15BPrRec2Q168
p1289
sg7
I81294822
sg8
I223382
sg9
Nsg11
S'Wed, 13 May 2015 03:36:46 UTC'
p1290
sg13
g1280
sg14
F0
sg15
g1289
sg16
F1
sa(dp1291
g3
S'Corporate - Silver'
p1292
sg5
VNatioCSIL15BGenR2Q16D
p1293
sg7
I81295016
sg8
I223382
sg9
VGeneral
p1294
sg11
S'Wed, 13 May 2015 03:36:48 UTC'
p1295
sg13
g1292
sg14
F0
sg15
g1293
sg16
F3
sa(dp1296
g3
g1292
sg5
VNatioCSIL15BBoSR2Q16D
p1297
sg7
I81295016
sg8
I223382
sg9
VBooth
p1298
sg11
S'Wed, 13 May 2015 03:36:48 UTC'
p1299
sg13
g1292
sg14
F0
sg15
g1297
sg16
F3
sa(dp1300
g3
g1292
sg5
VNatioCSIL15BPrRec2Q16D
p1301
sg7
I81295016
sg8
I223382
sg9
Nsg11
S'Wed, 13 May 2015 03:36:48 UTC'
p1302
sg13
g1292
sg14
F0
sg15
g1301
sg16
F1
sa(dp1303
g3
S'Corporate - Silver'
p1304
sg5
VCerneCSIL15BGenR2Q16w
p1305
sg7
I81303320
sg8
I223382
sg9
VGeneral
p1306
sg11
S'Wed, 13 May 2015 03:37:02 UTC'
p1307
sg13
g1304
sg14
F0
sg15
g1305
sg16
F3
sa(dp1308
g3
g1304
sg5
VCerneCSIL15BBoSR2Q16w
p1309
sg7
I81303320
sg8
I223382
sg9
VBooth
p1310
sg11
S'Wed, 13 May 2015 03:37:02 UTC'
p1311
sg13
g1304
sg14
F0
sg15
g1309
sg16
F3
sa(dp1312
g3
g1304
sg5
VCerneCSIL15BPrRec2Q16w
p1313
sg7
I81303320
sg8
I223382
sg9
Nsg11
S'Wed, 13 May 2015 03:37:02 UTC'
p1314
sg13
g1304
sg14
F0
sg15
g1313
sg16
F1
sa(dp1315
g3
S'Corporate - Gold'
p1316
sg5
VTargeCGOLD15BGenR2Q13n
p1317
sg7
I81315890
sg8
I223381
sg9
VGeneral
p1318
sg11
S'Wed, 13 May 2015 03:35:55 UTC'
p1319
sg13
g1316
sg14
F0
sg15
g1317
sg16
F5
sa(dp1320
g3
g1316
sg5
VTargeCGOLD15BBoSR2Q13n
p1321
sg7
I81315890
sg8
I223381
sg9
VBooth
p1322
sg11
S'Wed, 13 May 2015 03:35:55 UTC'
p1323
sg13
g1316
sg14
F0
sg15
g1321
sg16
F2
sa(dp1324
g3
g1316
sg5
VTargeCGOLD15BPrRec2Q13n
p1325
sg7
I81315890
sg8
I223381
sg9
Nsg11
S'Wed, 13 May 2015 03:35:56 UTC'
p1326
sg13
g1316
sg14
F0
sg15
g1325
sg16
F2
sa(dp1327
g3
S'Lab & Non-Profit - Silver'
p1328
sg5
VFreeBL&NSIL15BGenR2Q1Ae
p1329
sg7
I81322044
sg8
I226852
sg9
VGeneral
p1330
sg11
S'Wed, 13 May 2015 03:38:28 UTC'
p1331
sg13
g1328
sg14
F0
sg15
g1329
sg16
F2
sa(dp1332
g3
g1328
sg5
VFreeBL&NSIL15BPrRec2Q1Ae
p1333
sg7
I81322044
sg8
I226852
sg9
Nsg11
S'Wed, 13 May 2015 03:38:28 UTC'
p1334
sg13
g1328
sg14
F0
sg15
g1333
sg16
F2
sa(dp1335
g3
S'Corporate - Silver'
p1336
sg5
VNVIDICSIL15BGenR2Q171
p1337
sg7
I81332136
sg8
I223382
sg9
VGeneral
p1338
sg11
S'Wed, 13 May 2015 03:37:04 UTC'
p1339
sg13
g1336
sg14
F0
sg15
g1337
sg16
F3
sa(dp1340
g3
g1336
sg5
VNVIDICSIL15BBoSR2Q171
p1341
sg7
I81332136
sg8
I223382
sg9
VBooth
p1342
sg11
S'Wed, 13 May 2015 03:37:04 UTC'
p1343
sg13
g1336
sg14
F0
sg15
g1341
sg16
F3
sa(dp1344
g3
g1336
sg5
VNVIDICSIL15BPrRec2Q171
p1345
sg7
I81332136
sg8
I223382
sg9
Nsg11
S'Wed, 13 May 2015 03:37:04 UTC'
p1346
sg13
g1336
sg14
F0
sg15
g1345
sg16
F1
sa(dp1347
g3
S'ABI Partners Only - Platinum'
p1348
sg5
VTwo SPLAT15BGenR2Q11m
p1349
sg7
I81365703
sg8
I223380
sg9
VGeneral
p1350
sg11
S'Wed, 13 May 2015 03:35:13 UTC'
p1351
sg13
g1348
sg14
F0
sg15
g1349
sg16
F10
sa(dp1352
g3
g1348
sg5
VTwo SPLAT15BBoSR2Q11m
p1353
sg7
I81365703
sg8
I223380
sg9
VBooth
p1354
sg11
S'Wed, 13 May 2015 03:35:13 UTC'
p1355
sg13
g1348
sg14
F0
sg15
g1353
sg16
F8
sa(dp1356
g3
g1348
sg5
VTwo SPLAT15BPrRec2Q11m
p1357
sg7
I81365703
sg8
I223380
sg9
Nsg11
S'Wed, 13 May 2015 03:35:13 UTC'
p1358
sg13
g1348
sg14
F0
sg15
g1357
sg16
F6
sa(dp1359
g3
S'Academic - Bronze'
p1360
sg5
VIowa ACABRZ15BFacR2Q1A5
p1361
sg7
I81367464
sg8
I223385
sg9
VAcademic
p1362
sg11
S'Wed, 13 May 2015 03:38:16 UTC'
p1363
sg13
g1360
sg14
F0
sg15
g1361
sg16
F1
sa(dp1364
g3
g1360
sg5
VIowa ACABRZ15BStDc2Q1A5
p1365
sg7
I81367464
sg8
I223385
sg9
VStudent
p1366
sg11
S'Wed, 13 May 2015 03:38:16 UTC'
p1367
sg13
g1360
sg14
F0
sg15
g1365
sg16
F1
sa(dp1368
g3
g1360
sg5
VIowa ACABRZ15BPrRec2Q1A5
p1369
sg7
I81367464
sg8
I223385
sg9
Nsg11
S'Wed, 13 May 2015 03:38:17 UTC'
p1370
sg13
g1360
sg14
F0
sg15
g1369
sg16
F1
sa(dp1371
g3
S'Corporate - Silver'
p1372
sg5
VBlackCSIL15BGenR2Q16I
p1373
sg7
I81398086
sg8
I223382
sg9
VGeneral
p1374
sg11
S'Wed, 13 May 2015 03:36:49 UTC'
p1375
sg13
g1372
sg14
F0
sg15
g1373
sg16
F3
sa(dp1376
g3
g1372
sg5
VBlackCSIL15BBoSR2Q16I
p1377
sg7
I81398086
sg8
I223382
sg9
VBooth
p1378
sg11
S'Wed, 13 May 2015 03:36:49 UTC'
p1379
sg13
g1372
sg14
F0
sg15
g1377
sg16
F3
sa(dp1380
g3
g1372
sg5
VBlackCSIL15BPrRec2Q16I
p1381
sg7
I81398086
sg8
I223382
sg9
Nsg11
S'Wed, 13 May 2015 03:36:49 UTC'
p1382
sg13
g1372
sg14
F0
sg15
g1381
sg16
F1
sa(dp1383
g3
S'ABI Partners Only - Platinum'
p1384
sg5
VTHOUGPLAT15BGenR2Q11w
p1385
sg7
I81432405
sg8
I223380
sg9
VGeneral
p1386
sg11
S'Wed, 13 May 2015 03:35:16 UTC'
p1387
sg13
g1384
sg14
F0
sg15
g1385
sg16
F10
sa(dp1388
g3
g1384
sg5
VTHOUGPLAT15BBoSR2Q11w
p1389
sg7
I81432405
sg8
I223380
sg9
VBooth
p1390
sg11
S'Wed, 13 May 2015 03:35:16 UTC'
p1391
sg13
g1384
sg14
F0
sg15
g1389
sg16
F8
sa(dp1392
g3
g1384
sg5
VTHOUGPLAT15BPrRec2Q11w
p1393
sg7
I81432405
sg8
I223380
sg9
Nsg11
S'Wed, 13 May 2015 03:35:16 UTC'
p1394
sg13
g1384
sg14
F0
sg15
g1393
sg16
F6
sa(dp1395
g3
g1384
sg5
VTHOUG1510DGenR2Q11w
p1396
sg7
I81432405
sg8
I223380
sg9
VGeneral
p1397
sg11
S'Wed, 13 May 2015 03:35:16 UTC'
p1398
sg13
g1384
sg14
F0
sg15
g1396
sg16
F30
sa(dp1399
g3
S'Academic - Gold'
p1400
sg5
VUSCACAGOLD15BBoSR2Q18x
p1401
sg7
I81440743
sg8
I223383
sg9
VBooth
p1402
sg11
S'Wed, 13 May 2015 03:37:52 UTC'
p1403
sg13
g1400
sg14
F0
sg15
g1401
sg16
F2
sa(dp1404
g3
g1400
sg5
VUSCACAGOLD15BPrRec2Q18x
p1405
sg7
I81440743
sg8
I223383
sg9
Nsg11
S'Wed, 13 May 2015 03:37:52 UTC'
p1406
sg13
g1400
sg14
F0
sg15
g1405
sg16
F3
sa(dp1407
g3
g1400
sg5
VUSCACAGOLD15BStDc2Q18x
p1408
sg7
I81440743
sg8
I223383
sg9
VStudent
p1409
sg11
S'Wed, 13 May 2015 03:37:52 UTC'
p1410
sg13
g1400
sg14
F0
sg15
g1408
sg16
F1
sa(dp1411
g3
g1400
sg5
VUSCACAGOLD15BFacR2Q18x
p1412
sg7
I81440743
sg8
I223383
sg9
VAcademic
p1413
sg11
S'Wed, 13 May 2015 03:37:52 UTC'
p1414
sg13
g1400
sg14
F0
sg15
g1412
sg16
F3
sa(dp1415
g3
S'Corporate - Gold'
p1416
sg5
VThe WCGOLD15BGenR2Q12u
p1417
sg7
I81447714
sg8
I223381
sg9
VGeneral
p1418
sg11
S'Wed, 13 May 2015 03:35:38 UTC'
p1419
sg13
g1416
sg14
F0
sg15
g1417
sg16
F5
sa(dp1420
g3
g1416
sg5
VThe WCGOLD15BBoSR2Q12u
p1421
sg7
I81447714
sg8
I223381
sg9
VBooth
p1422
sg11
S'Wed, 13 May 2015 03:35:38 UTC'
p1423
sg13
g1416
sg14
F0
sg15
g1421
sg16
F2
sa(dp1424
g3
g1416
sg5
VThe WCGOLD15BPrRec2Q12u
p1425
sg7
I81447714
sg8
I223381
sg9
Nsg11
S'Wed, 13 May 2015 03:35:38 UTC'
p1426
sg13
g1416
sg14
F0
sg15
g1425
sg16
F2
sa(dp1427
g3
S'Corporate - Silver'
p1428
sg5
VLGS ICSIL15BGenR2Q16N
p1429
sg7
I81481281
sg8
I223382
sg9
VGeneral
p1430
sg11
S'Wed, 13 May 2015 03:36:51 UTC'
p1431
sg13
g1428
sg14
F0
sg15
g1429
sg16
F3
sa(dp1432
g3
g1428
sg5
VLGS ICSIL15BBoSR2Q16N
p1433
sg7
I81481281
sg8
I223382
sg9
VBooth
p1434
sg11
S'Wed, 13 May 2015 03:36:51 UTC'
p1435
sg13
g1428
sg14
F0
sg15
g1433
sg16
F3
sa(dp1436
g3
g1428
sg5
VLGS ICSIL15BPrRec2Q16N
p1437
sg7
I81481281
sg8
I223382
sg9
Nsg11
S'Wed, 13 May 2015 03:36:51 UTC'
p1438
sg13
g1428
sg14
F0
sg15
g1437
sg16
F1
sa(dp1439
g3
S'Corporate - Gold'
p1440
sg5
VIBMCGOLD15BGenR2Q12z
p1441
sg7
I81484417
sg8
I223381
sg9
VGeneral
p1442
sg11
S'Wed, 13 May 2015 03:35:40 UTC'
p1443
sg13
g1440
sg14
F0
sg15
g1441
sg16
F5
sa(dp1444
g3
g1440
sg5
VIBMCGOLD15BBoSR2Q12z
p1445
sg7
I81484417
sg8
I223381
sg9
VBooth
p1446
sg11
S'Wed, 13 May 2015 03:35:40 UTC'
p1447
sg13
g1440
sg14
F0
sg15
g1445
sg16
F2
sa(dp1448
g3
g1440
sg5
VIBMCGOLD15BPrRec2Q12z
p1449
sg7
I81484417
sg8
I223381
sg9
Nsg11
S'Wed, 13 May 2015 03:35:40 UTC'
p1450
sg13
g1440
sg14
F0
sg15
g1449
sg16
F2
sa(dp1451
g3
S'Academic - Gold'
p1452
sg5
VNew YACAGOLD15BBoSR2Q18n
p1453
sg7
I81526681
sg8
I223383
sg9
VBooth
p1454
sg11
S'Wed, 13 May 2015 03:37:47 UTC'
p1455
sg13
g1452
sg14
F0
sg15
g1453
sg16
F2
sa(dp1456
g3
g1452
sg5
VNew YACAGOLD15BPrRec2Q18n
p1457
sg7
I81526681
sg8
I223383
sg9
Nsg11
S'Wed, 13 May 2015 03:37:47 UTC'
p1458
sg13
g1452
sg14
F0
sg15
g1457
sg16
F3
sa(dp1459
g3
g1452
sg5
VNew YACAGOLD15BStDc2Q18n
p1460
sg7
I81526681
sg8
I223383
sg9
VStudent
p1461
sg11
S'Wed, 13 May 2015 03:37:47 UTC'
p1462
sg13
g1452
sg14
F0
sg15
g1460
sg16
F1
sa(dp1463
g3
g1452
sg5
VNew YACAGOLD15BFacR2Q18n
p1464
sg7
I81526681
sg8
I223383
sg9
VAcademic
p1465
sg11
S'Wed, 13 May 2015 03:37:47 UTC'
p1466
sg13
g1452
sg14
F0
sg15
g1464
sg16
F3
sa(dp1467
g3
S'Academic - Silver'
p1468
sg5
VColumACASIL15BBoSR2Q19b
p1469
sg7
I81526695
sg8
I223384
sg9
VBooth
p1470
sg11
S'Wed, 13 May 2015 03:38:05 UTC'
p1471
sg13
g1468
sg14
F0
sg15
g1469
sg16
F3
sa(dp1472
g3
g1468
sg5
VColumACASIL15BPrRec2Q19b
p1473
sg7
I81526695
sg8
I223384
sg9
Nsg11
S'Wed, 13 May 2015 03:38:05 UTC'
p1474
sg13
g1468
sg14
F0
sg15
g1473
sg16
F2
sa(dp1475
g3
g1468
sg5
VColumACASIL15BStDc2Q19b
p1476
sg7
I81526695
sg8
I223384
sg9
VStudent
p1477
sg11
S'Wed, 13 May 2015 03:38:05 UTC'
p1478
sg13
g1468
sg14
F0
sg15
g1476
sg16
F1
sa(dp1479
g3
g1468
sg5
VColumACASIL15BFacR2Q19b
p1480
sg7
I81526695
sg8
I223384
sg9
VAcademic
p1481
sg11
S'Wed, 13 May 2015 03:38:05 UTC'
p1482
sg13
g1468
sg14
F0
sg15
g1480
sg16
F2
sa(dp1483
g3
S'Corporate - Gold'
p1484
sg5
VOraclCGOLD15BGenR2Q134
p1485
sg7
I81532271
sg8
I223381
sg9
VGeneral
p1486
sg11
S'Wed, 13 May 2015 03:35:42 UTC'
p1487
sg13
g1484
sg14
F0
sg15
g1485
sg16
F5
sa(dp1488
g3
g1484
sg5
VOraclCGOLD15BBoSR2Q134
p1489
sg7
I81532271
sg8
I223381
sg9
VBooth
p1490
sg11
S'Wed, 13 May 2015 03:35:42 UTC'
p1491
sg13
g1484
sg14
F0
sg15
g1489
sg16
F2
sa(dp1492
g3
g1484
sg5
VOraclCGOLD15BPrRec2Q134
p1493
sg7
I81532271
sg8
I223381
sg9
Nsg11
S'Wed, 13 May 2015 03:35:42 UTC'
p1494
sg13
g1484
sg14
F0
sg15
g1493
sg16
F2
sa(dp1495
g3
S'ABI Partners Only - Platinum'
p1496
sg5
VAmazoPLAT15BGenR2Q11r
p1497
sg7
I81373609
sg8
I223380
sg9
VGeneral
p1498
sg11
S'Wed, 13 May 2015 03:35:14 UTC'
p1499
sg13
g1496
sg14
F0
sg15
g1497
sg16
F10
sa(dp1500
g3
g1496
sg5
VAmazoPLAT15BBoSR2Q11r
p1501
sg7
I81373609
sg8
I223380
sg9
VBooth
p1502
sg11
S'Wed, 13 May 2015 03:35:14 UTC'
p1503
sg13
g1496
sg14
F0
sg15
g1501
sg16
F8
sa(dp1504
g3
g1496
sg5
VAmazoPLAT15BPrRec2Q11r
p1505
sg7
I81373609
sg8
I223380
sg9
Nsg11
S'Wed, 13 May 2015 03:35:14 UTC'
p1506
sg13
g1496
sg14
F0
sg15
g1505
sg16
F6
sa(dp1507
g3
g1496
sg5
VAmazo1510DGenR2Q11r
p1508
sg7
I81373609
sg8
I223380
sg9
VGeneral
p1509
sg11
S'Wed, 13 May 2015 03:35:14 UTC'
p1510
sg13
g1496
sg14
F0
sg15
g1508
sg16
F200
sa(dp1511
g3
S'Academic - Silver'
p1512
sg5
VHassoACASIL15BBoSR2Q197
p1513
sg7
I81556060
sg8
I223384
sg9
VBooth
p1514
sg11
S'Wed, 13 May 2015 03:37:55 UTC'
p1515
sg13
g1512
sg14
F0
sg15
g1513
sg16
F3
sa(dp1516
g3
g1512
sg5
VHassoACASIL15BPrRec2Q197
p1517
sg7
I81556060
sg8
I223384
sg9
Nsg11
S'Wed, 13 May 2015 03:37:55 UTC'
p1518
sg13
g1512
sg14
F0
sg15
g1517
sg16
F2
sa(dp1519
g3
g1512
sg5
VHassoACASIL15BStDc2Q197
p1520
sg7
I81556060
sg8
I223384
sg9
VStudent
p1521
sg11
S'Wed, 13 May 2015 03:37:55 UTC'
p1522
sg13
g1512
sg14
F0
sg15
g1520
sg16
F1
sa(dp1523
g3
g1512
sg5
VHassoACASIL15BFacR2Q197
p1524
sg7
I81556060
sg8
I223384
sg9
VAcademic
p1525
sg11
S'Wed, 13 May 2015 03:37:55 UTC'
p1526
sg13
g1512
sg14
F0
sg15
g1524
sg16
F2
sa(dp1527
g3
S'Show Management'
p1528
sg5
VAnita152Q1AP
p1529
sg7
I79052836
sg8
I226598
sg9
VOne Day
p1530
sg11
S'Wed, 13 May 2015 03:38:23 UTC'
p1531
sg13
g1528
sg14
F0
sg15
g1529
sg16
F1
sa(dp1532
g3
g1528
sg5
VAnita15TEF2Q1AP
p1533
sg7
I79052836
sg8
I226598
sg9
VOne Day
p1534
sg11
S'Wed, 13 May 2015 03:38:23 UTC'
p1535
sg13
g1528
sg14
F0
sg15
g1533
sg16
F2
sa(dp1536
g3
g1528
sg5
VAnita152Q1AP
p1537
sg7
I79052836
sg8
I226598
sg9
VOne Day
p1538
sg11
S'Wed, 13 May 2015 03:38:23 UTC'
p1539
sg13
g1528
sg14
F0
sg15
g1537
sg16
F2
sa(dp1540
g3
g1528
sg5
VAnita152Q1AP
p1541
sg7
I79052836
sg8
I226598
sg9
VOne Day
p1542
sg11
S'Wed, 13 May 2015 03:38:23 UTC'
p1543
sg13
g1528
sg14
F0
sg15
g1541
sg16
F1
sa(dp1544
g3
g1528
sg5
VAnita152Q1AP
p1545
sg7
I79052836
sg8
I226598
sg9
VOne Day
p1546
sg11
S'Wed, 13 May 2015 03:38:23 UTC'
p1547
sg13
g1528
sg14
F0
sg15
g1545
sg16
F1
sa(dp1548
g3
g1528
sg5
VAnita152Q1AP
p1549
sg7
I79052836
sg8
I226598
sg9
VOne Day
p1550
sg11
S'Wed, 13 May 2015 03:38:23 UTC'
p1551
sg13
g1528
sg14
F0
sg15
g1549
sg16
F1
sa(dp1552
g3
g1528
sg5
VAnita152Q1AP
p1553
sg7
I79052836
sg8
I226598
sg9
VOne Day
p1554
sg11
S'Wed, 13 May 2015 03:38:23 UTC'
p1555
sg13
g1528
sg14
F0
sg15
g1553
sg16
F1
sa(dp1556
g3
S'GHC Event Sponsorships and Enterprise Packages'
p1557
sg5
VRed H152Q1B3
p1558
sg7
I81579382
sg8
I227146
sg9
VOne Day
p1559
sg11
S'Wed, 13 May 2015 03:38:38 UTC'
p1560
sg13
g1557
sg14
F0
sg15
g1558
sg16
F2
sa(dp1561
g3
S'Corporate - Gold'
p1562
sg5
VRed HCGOLD15BGenR2Q139
p1563
sg7
I81579619
sg8
I223381
sg9
VGeneral
p1564
sg11
S'Wed, 13 May 2015 03:35:43 UTC'
p1565
sg13
g1562
sg14
F0
sg15
g1563
sg16
F5
sa(dp1566
g3
g1562
sg5
VRed HCGOLD15BBoSR2Q139
p1567
sg7
I81579619
sg8
I223381
sg9
VBooth
p1568
sg11
S'Wed, 13 May 2015 03:35:43 UTC'
p1569
sg13
g1562
sg14
F0
sg15
g1567
sg16
F2
sa(dp1570
g3
g1562
sg5
VRed HCGOLD15BPrRec2Q139
p1571
sg7
I81579619
sg8
I223381
sg9
Nsg11
S'Wed, 13 May 2015 03:35:43 UTC'
p1572
sg13
g1562
sg14
F0
sg15
g1571
sg16
F2
sa(dp1573
g3
S'Academic - Silver'
p1574
sg5
VUniveACASIL15BBoSR2Q19g
p1575
sg7
I81595325
sg8
I223384
sg9
VBooth
p1576
sg11
S'Wed, 13 May 2015 03:38:07 UTC'
p1577
sg13
g1574
sg14
F0
sg15
g1575
sg16
F3
sa(dp1578
g3
g1574
sg5
VUniveACASIL15BPrRec2Q19g
p1579
sg7
I81595325
sg8
I223384
sg9
Nsg11
S'Wed, 13 May 2015 03:38:07 UTC'
p1580
sg13
g1574
sg14
F0
sg15
g1579
sg16
F2
sa(dp1581
g3
g1574
sg5
VUniveACASIL15BStDc2Q19g
p1582
sg7
I81595325
sg8
I223384
sg9
VStudent
p1583
sg11
S'Wed, 13 May 2015 03:38:07 UTC'
p1584
sg13
g1574
sg14
F0
sg15
g1582
sg16
F1
sa(dp1585
g3
g1574
sg5
VUniveACASIL15BFacR2Q19g
p1586
sg7
I81595325
sg8
I223384
sg9
VAcademic
p1587
sg11
S'Wed, 13 May 2015 03:38:07 UTC'
p1588
sg13
g1574
sg14
F0
sg15
g1586
sg16
F2
sa(dp1589
g3
S'ABI Partners Only - Platinum'
p1590
sg5
VBank PLAT15BGenR2Q12a
p1591
sg7
I79402913
sg8
I223380
sg9
VGeneral
p1592
sg11
S'Wed, 13 May 2015 03:35:32 UTC'
p1593
sg13
g1590
sg14
F0
sg15
g1591
sg16
F10
sa(dp1594
g3
g1590
sg5
VBank PLAT15BBoSR2Q12a
p1595
sg7
I79402913
sg8
I223380
sg9
VBooth
p1596
sg11
S'Wed, 13 May 2015 03:35:32 UTC'
p1597
sg13
g1590
sg14
F0
sg15
g1595
sg16
F8
sa(dp1598
g3
g1590
sg5
VBank PLAT15BPrRec2Q12a
p1599
sg7
I79402913
sg8
I223380
sg9
Nsg11
S'Wed, 13 May 2015 03:35:32 UTC'
p1600
sg13
g1590
sg14
F0
sg15
g1599
sg16
F6
sa(dp1601
g3
g1590
sg5
VBank 1510DGenR2Q12a
p1602
sg7
I79402913
sg8
I223380
sg9
VGeneral
p1603
sg11
S'Wed, 13 May 2015 03:35:32 UTC'
p1604
sg13
g1590
sg14
F0
sg15
g1602
sg16
F50
sa(dp1605
g3
S'Academic - Bronze'
p1606
sg5
VDeparACABRZ15BFacR2Q1AF
p1607
sg7
I81602634
sg8
I223385
sg9
VAcademic
p1608
sg11
S'Wed, 13 May 2015 03:38:20 UTC'
p1609
sg13
g1606
sg14
F0
sg15
g1607
sg16
F1
sa(dp1610
g3
g1606
sg5
VDeparACABRZ15BStDc2Q1AF
p1611
sg7
I81602634
sg8
I223385
sg9
VStudent
p1612
sg11
S'Wed, 13 May 2015 03:38:20 UTC'
p1613
sg13
g1606
sg14
F0
sg15
g1611
sg16
F1
sa(dp1614
g3
g1606
sg5
VDeparACABRZ15BPrRec2Q1AF
p1615
sg7
I81602634
sg8
I223385
sg9
Nsg11
S'Wed, 13 May 2015 03:38:20 UTC'
p1616
sg13
g1606
sg14
F0
sg15
g1615
sg16
F1
sa(dp1617
g3
S'Corporate - Silver'
p1618
sg5
VPremiCSIL15BGenR2Q16S
p1619
sg7
I81604560
sg8
I223382
sg9
VGeneral
p1620
sg11
S'Wed, 13 May 2015 03:36:53 UTC'
p1621
sg13
g1618
sg14
F0
sg15
g1619
sg16
F3
sa(dp1622
g3
g1618
sg5
VPremiCSIL15BBoSR2Q16S
p1623
sg7
I81604560
sg8
I223382
sg9
VBooth
p1624
sg11
S'Wed, 13 May 2015 03:36:53 UTC'
p1625
sg13
g1618
sg14
F0
sg15
g1623
sg16
F3
sa(dp1626
g3
g1618
sg5
VPremiCSIL15BPrRec2Q16S
p1627
sg7
I81604560
sg8
I223382
sg9
Nsg11
S'Wed, 13 May 2015 03:36:53 UTC'
p1628
sg13
g1618
sg14
F0
sg15
g1627
sg16
F1
sa(dp1629
g3
S'Academic - Gold'
p1630
sg5
VGeorgACAGOLD15BBoSR2Q18s
p1631
sg7
I81604792
sg8
I223383
sg9
VBooth
p1632
sg11
S'Wed, 13 May 2015 03:37:49 UTC'
p1633
sg13
g1630
sg14
F0
sg15
g1631
sg16
F2
sa(dp1634
g3
g1630
sg5
VGeorgACAGOLD15BPrRec2Q18s
p1635
sg7
I81604792
sg8
I223383
sg9
Nsg11
S'Wed, 13 May 2015 03:37:49 UTC'
p1636
sg13
g1630
sg14
F0
sg15
g1635
sg16
F3
sa(dp1637
g3
g1630
sg5
VGeorgACAGOLD15BStDc2Q18s
p1638
sg7
I81604792
sg8
I223383
sg9
VStudent
p1639
sg11
S'Wed, 13 May 2015 03:37:49 UTC'
p1640
sg13
g1630
sg14
F0
sg15
g1638
sg16
F1
sa(dp1641
g3
g1630
sg5
VGeorgACAGOLD15BFacR2Q18s
p1642
sg7
I81604792
sg8
I223383
sg9
VAcademic
p1643
sg11
S'Wed, 13 May 2015 03:37:49 UTC'
p1644
sg13
g1630
sg14
F0
sg15
g1642
sg16
F3
sa(dp1645
g3
S'Corporate - Gold'
p1646
sg5
VAOLCGOLD15BGenR2Q13A
p1647
sg7
I81605421
sg8
I223381
sg9
VGeneral
p1648
sg11
S'Wed, 13 May 2015 03:35:45 UTC'
p1649
sg13
g1646
sg14
F0
sg15
g1647
sg16
F5
sa(dp1650
g3
g1646
sg5
VAOLCGOLD15BBoSR2Q13A
p1651
sg7
I81605421
sg8
I223381
sg9
VBooth
p1652
sg11
S'Wed, 13 May 2015 03:35:45 UTC'
p1653
sg13
g1646
sg14
F0
sg15
g1651
sg16
F2
sa(dp1654
g3
g1646
sg5
VAOLCGOLD15BPrRec2Q13A
p1655
sg7
I81605421
sg8
I223381
sg9
Nsg11
S'Wed, 13 May 2015 03:35:45 UTC'
p1656
sg13
g1646
sg14
F0
sg15
g1655
sg16
F2
sa(dp1657
g3
S'ABI Partners Only - Platinum'
p1658
sg5
VAirbnPLAT15BGenR2Q12H
p1659
sg7
I80216188
sg8
I223380
sg9
VGeneral
p1660
sg11
S'Wed, 13 May 2015 03:35:26 UTC'
p1661
sg13
g1658
sg14
F0
sg15
g1659
sg16
F10
sa(dp1662
g3
g1658
sg5
VAirbnPLAT15BBoSR2Q12H
p1663
sg7
I80216188
sg8
I223380
sg9
VBooth
p1664
sg11
S'Wed, 13 May 2015 03:35:26 UTC'
p1665
sg13
g1658
sg14
F0
sg15
g1663
sg16
F8
sa(dp1666
g3
g1658
sg5
VAirbnPLAT15BPrRec2Q12H
p1667
sg7
I80216188
sg8
I223380
sg9
Nsg11
S'Wed, 13 May 2015 03:35:26 UTC'
p1668
sg13
g1658
sg14
F0
sg15
g1667
sg16
F6
sa(dp1669
g3
S'ABI Partners Only - Platinum'
p1670
sg5
VEMCPLAT15BGenR2Q11I
p1671
sg7
I77904414
sg8
I223380
sg9
VGeneral
p1672
sg11
S'Wed, 13 May 2015 03:35:00 UTC'
p1673
sg13
g1670
sg14
F0
sg15
g1671
sg16
F10
sa(dp1674
g3
g1670
sg5
VEMCPLAT15BBoSR2Q11I
p1675
sg7
I77904414
sg8
I223380
sg9
VBooth
p1676
sg11
S'Wed, 13 May 2015 03:35:00 UTC'
p1677
sg13
g1670
sg14
F0
sg15
g1675
sg16
F8
sa(dp1678
g3
g1670
sg5
VEMCPLAT15BPrRec2Q11I
p1679
sg7
I77904414
sg8
I223380
sg9
Nsg11
S'Wed, 13 May 2015 03:35:00 UTC'
p1680
sg13
g1670
sg14
F0
sg15
g1679
sg16
F6
sa(dp1681
g3
g1670
sg5
VEMC1510DGenR2Q11I
p1682
sg7
I77904414
sg8
I223380
sg9
VGeneral
p1683
sg11
S'Wed, 13 May 2015 03:35:00 UTC'
p1684
sg13
g1670
sg14
F0
sg15
g1682
sg16
F10
sa(dp1685
g3
S'ABI Partners Only - Platinum'
p1686
sg5
VFacebPLAT15BGenR2Q126
p1687
sg7
I79831298
sg8
I223380
sg9
VGeneral
p1688
sg11
S'Wed, 13 May 2015 03:35:19 UTC'
p1689
sg13
g1686
sg14
F0
sg15
g1687
sg16
F10
sa(dp1690
g3
g1686
sg5
VFacebPLAT15BBoSR2Q126
p1691
sg7
I79831298
sg8
I223380
sg9
VBooth
p1692
sg11
S'Wed, 13 May 2015 03:35:19 UTC'
p1693
sg13
g1686
sg14
F0
sg15
g1691
sg16
F8
sa(dp1694
g3
g1686
sg5
VFacebPLAT15BPrRec2Q126
p1695
sg7
I79831298
sg8
I223380
sg9
Nsg11
S'Wed, 13 May 2015 03:35:19 UTC'
p1696
sg13
g1686
sg14
F0
sg15
g1695
sg16
F6
sa(dp1697
g3
g1686
sg5
VFaceb152Q126
p1698
sg7
I79831298
sg8
I223380
sg9
VOne Day
p1699
sg11
S'Wed, 13 May 2015 03:35:19 UTC'
p1700
sg13
g1686
sg14
F0
sg15
g1698
sg16
F1
sa(dp1701
g3
S'ABI Partners Only - Platinum'
p1702
sg5
VQualcPLAT15BGenR2Q12G
p1703
sg7
I79884963
sg8
I223380
sg9
VGeneral
p1704
sg11
S'Wed, 13 May 2015 03:35:23 UTC'
p1705
sg13
g1702
sg14
F0
sg15
g1703
sg16
F10
sa(dp1706
g3
g1702
sg5
VQualcPLAT15BBoSR2Q12G
p1707
sg7
I79884963
sg8
I223380
sg9
VBooth
p1708
sg11
S'Wed, 13 May 2015 03:35:23 UTC'
p1709
sg13
g1702
sg14
F0
sg15
g1707
sg16
F8
sa(dp1710
g3
g1702
sg5
VQualcPLAT15BPrRec2Q12G
p1711
sg7
I79884963
sg8
I223380
sg9
Nsg11
S'Wed, 13 May 2015 03:35:23 UTC'
p1712
sg13
g1702
sg14
F0
sg15
g1711
sg16
F6
sa(dp1713
g3
g1702
sg5
VQualc152Q12G
p1714
sg7
I79884963
sg8
I223380
sg9
VOne Day
p1715
sg11
S'Wed, 13 May 2015 03:35:23 UTC'
p1716
sg13
g1702
sg14
F0
sg15
g1714
sg16
F1
sa(dp1717
g3
S'Academic - Bronze'
p1718
sg5
VSteveACABRZ15BFacR2Q1AK
p1719
sg7
I80138213
sg8
I223385
sg9
VAcademic
p1720
sg11
S'Wed, 13 May 2015 03:38:21 UTC'
p1721
sg13
g1718
sg14
F0
sg15
g1719
sg16
F1
sa(dp1722
g3
g1718
sg5
VSteveACABRZ15BStDc2Q1AK
p1723
sg7
I80138213
sg8
I223385
sg9
VStudent
p1724
sg11
S'Wed, 13 May 2015 03:38:21 UTC'
p1725
sg13
g1718
sg14
F0
sg15
g1723
sg16
F1
sa(dp1726
g3
g1718
sg5
VSteveACABRZ15BPrRec2Q1AK
p1727
sg7
I80138213
sg8
I223385
sg9
Nsg11
S'Wed, 13 May 2015 03:38:21 UTC'
p1728
sg13
g1718
sg14
F0
sg15
g1727
sg16
F1
sa(dp1729
g3
S'Academic - Bronze'
p1730
sg5
VSteveACABRZ15BFacR2Q1AA
p1731
sg7
I81510483
sg8
I223385
sg9
VAcademic
p1732
sg11
S'Wed, 13 May 2015 03:38:18 UTC'
p1733
sg13
g1730
sg14
F0
sg15
g1731
sg16
F1
sa(dp1734
g3
g1730
sg5
VSteveACABRZ15BStDc2Q1AA
p1735
sg7
I81510483
sg8
I223385
sg9
VStudent
p1736
sg11
S'Wed, 13 May 2015 03:38:18 UTC'
p1737
sg13
g1730
sg14
F0
sg15
g1735
sg16
F1
sa(dp1738
g3
g1730
sg5
VSteveACABRZ15BPrRec2Q1AA
p1739
sg7
I81510483
sg8
I223385
sg9
Nsg11
S'Wed, 13 May 2015 03:38:18 UTC'
p1740
sg13
g1730
sg14
F0
sg15
g1739
sg16
F1
sa(dp1741
g3
S'Corporate - Gold'
p1742
sg5
VBloomCGOLD15BGenR2Q13s
p1743
sg7
I80330099
sg8
I223381
sg9
VGeneral
p1744
sg11
S'Wed, 13 May 2015 03:35:57 UTC'
p1745
sg13
g1742
sg14
F0
sg15
g1743
sg16
F5
sa(dp1746
g3
g1742
sg5
VBloomCGOLD15BBoSR2Q13s
p1747
sg7
I80330099
sg8
I223381
sg9
VBooth
p1748
sg11
S'Wed, 13 May 2015 03:35:57 UTC'
p1749
sg13
g1742
sg14
F0
sg15
g1747
sg16
F2
sa(dp1750
g3
g1742
sg5
VBloomCGOLD15BPrRec2Q13s
p1751
sg7
I80330099
sg8
I223381
sg9
Nsg11
S'Wed, 13 May 2015 03:35:57 UTC'
p1752
sg13
g1742
sg14
F0
sg15
g1751
sg16
F2
sa.