(lp1
(dp2
S'RegistrationType'
p3
S'Table Patron'
p4
sS'SponsorID'
p5
I80861413
sS'RegTypeID'
p6
I1
sS'badge_type'
p7
S'wov_attendee'
p8
sS'created_date'
p9
cdatetime
datetime
p10
(S'\x07\xdf\x04\x1d\x14\n\x05\x0ca\xd4'
tRp11
sS'regonline_str'
p12
S'-100%'
p13
sS'ID'
p14
S'1'
sS'discount_code'
p15
S'ablcwov'
p16
sS'quantity'
p17
I10
sa(dp18
g3
S'Table Patron'
p19
sg5
I80853981
sg6
I1
sg7
S'wov_attendee'
p20
sg9
g11
sg12
S'-100%'
p21
sg14
S'2'
sg15
S'accnwov'
p22
sg17
I10
sa(dp23
g3
S'Table Patron'
p24
sg5
I78032852
sg6
I1
sg7
S'wov_attendee'
p25
sg9
g11
sg12
S'-100%'
p26
sg14
S'3'
sg15
S'amrcwov'
p27
sg17
I20
sa(dp28
g3
S'Table Patron'
p29
sg5
I81064536
sg6
I1
sg7
S'wov_attendee'
p30
sg9
g11
sg12
S'-100%'
p31
sg14
S'4'
sg15
S'amznwov'
p32
sg17
I20
sa(dp33
g3
S'Table Patron'
p34
sg5
I78477353
sg6
I1
sg7
S'wov_attendee'
p35
sg9
g11
sg12
S'-100%'
p36
sg14
S'5'
sg15
S'applwov'
p37
sg17
I20
sa(dp38
g3
S'Show Management'
p39
sg5
I77667879
sg6
I1
sg7
S'wov_attendee'
p40
sg9
g11
sg12
S'-100%'
p41
sg14
S'6'
sg15
S'awrdabi'
p42
sg17
I12
sa(dp43
g3
S'Show Management'
p44
sg5
I79793143
sg6
I1
sg7
S'wov_attendee'
p45
sg9
g11
sg12
S'-100%'
p46
sg14
S'7'
sg15
S'bllnwov'
p47
sg17
I2
sa(dp48
g3
S'Silver Sponsor '
p49
sg5
I79868140
sg6
I1
sg7
S'wov_attendee'
p50
sg9
g11
sg12
S'-100%'
p51
sg14
S'8'
sg15
S'bnymwov'
p52
sg17
I30
sa(dp53
g3
S'Show Management'
p54
sg5
I77667879
sg6
I1
sg7
S'wov_attendee'
p55
sg9
g11
sg12
S'-100%'
p56
sg14
S'9'
sg15
S'brbabi'
p57
sg17
I2
sa(dp58
g3
S'Table Patron'
p59
sg5
I81174101
sg6
I1
sg7
S'wov_attendee'
p60
sg9
g11
sg12
S'-100%'
p61
sg14
S'10'
p62
sg15
S'brcdwov'
p63
sg17
I10
sa(dp64
g3
S'Show Management'
p65
sg5
I77667879
sg6
I1
sg7
S'wov_attendee'
p66
sg9
g11
sg12
S'-100%'
p67
sg14
S'11'
p68
sg15
S'brdabi'
p69
sg17
I25
sa(dp70
g3
S'Table Patron'
p71
sg5
I79171718
sg6
I1
sg7
S'wov_attendee'
p72
sg9
g11
sg12
S'-100%'
p73
sg14
S'12'
p74
sg15
S'bstbwov'
p75
sg17
I10
sa(dp76
g3
S'Table Patron'
p77
sg5
I78677527
sg6
I1
sg7
S'wov_attendee'
p78
sg9
g11
sg12
S'-100%'
p79
sg14
S'13'
p80
sg15
S'cltcwov'
p81
sg17
I10
sa(dp82
g3
S'Table Patron'
p83
sg5
I78219056
sg6
I1
sg7
S'wov_attendee'
p84
sg9
g11
sg12
S'-100%'
p85
sg14
S'14'
p86
sg15
S'cptlwov'
p87
sg17
I10
sa(dp88
g3
S'Gold Sponsor'
p89
sg5
I78466893
sg6
I1
sg7
S'wov_attendee'
p90
sg9
g11
sg12
S'-100%'
p91
sg14
S'15'
p92
sg15
S'cscwov'
p93
sg17
I30
sa(dp94
g3
S'Table Patron'
p95
sg5
I79217804
sg6
I1
sg7
S'wov_attendee'
p96
sg9
g11
sg12
S'-100%'
p97
sg14
S'16'
p98
sg15
S'ctchwov'
p99
sg17
I10
sa(dp100
g3
S'Table Patron'
p101
sg5
I78476504
sg6
I1
sg7
S'wov_attendee'
p102
sg9
g11
sg12
S'-100%'
p103
sg14
S'17'
p104
sg15
S'dllwov'
p105
sg17
I10
sa(dp106
g3
S'Table Patron'
p107
sg5
I81057512
sg6
I1
sg7
S'wov_attendee'
p108
sg9
g11
sg12
S'-100%'
p109
sg14
S'18'
p110
sg15
S'ebynwov'
p111
sg17
I20
sa(dp112
g3
S'Show Management'
p113
sg5
I77667879
sg6
I1
sg7
S'wov_attendee'
p114
sg9
g11
sg12
S'-100%'
p115
sg14
S'19'
p116
sg15
S'elzbabi'
p117
sg17
I5
sa(dp118
g3
S'Table Patron'
p119
sg5
I78730680
sg6
I1
sg7
S'wov_attendee'
p120
sg9
g11
sg12
S'-100%'
p121
sg14
S'20'
p122
sg15
S'emcwov'
p123
sg17
I10
sa(dp124
g3
S'Table Patron'
p125
sg5
I80205953
sg6
I1
sg7
S'wov_attendee'
p126
sg9
g11
sg12
S'-100%'
p127
sg14
S'21'
p128
sg15
S'ercswov'
p129
sg17
I10
sa(dp130
g3
S'Show Management'
p131
sg5
I77667879
sg6
I1
sg7
S'wov_attendee'
p132
sg9
g11
sg12
S'-100%'
p133
sg14
S'22'
p134
sg15
S'evltwov'
p135
sg17
I2
sa(dp136
g3
S'Table Patron'
p137
sg5
I79829222
sg6
I1
sg7
S'wov_attendee'
p138
sg9
g11
sg12
S'-100%'
p139
sg14
S'23'
p140
sg15
S'fcbkwov'
p141
sg17
I20
sa(dp142
g3
S'Show Management'
p143
sg5
I77667879
sg6
I1
sg7
S'wov_attendee'
p144
sg9
g11
sg12
S'-100%'
p145
sg14
S'24'
p146
sg15
S'frdhabi'
p147
sg17
I1
sa(dp148
g3
S'Table Patron'
p149
sg5
I79027030
sg6
I1
sg7
S'wov_attendee'
p150
sg9
g11
sg12
S'-100%'
p151
sg14
S'25'
p152
sg15
S'frstwov'
p153
sg17
I10
sa(dp154
g3
S'Table Patron'
p155
sg5
I81064915
sg6
I1
sg7
S'wov_attendee'
p156
sg9
g11
sg12
S'-100%'
p157
sg14
S'26'
p158
sg15
S'gdddwov'
p159
sg17
I10
sa(dp160
g3
S'Bronze Sponsor'
p161
sg5
I80045336
sg6
I1
sg7
S'wov_attendee'
p162
sg9
g11
sg12
S'-100%'
p163
sg14
S'27'
p164
sg15
S'gglwov'
p165
sg17
I30
sa(dp166
g3
S'Show Management'
p167
sg5
I77667879
sg6
I1
sg7
S'wov_attendee'
p168
sg9
g11
sg12
S'-100%'
p169
sg14
S'28'
p170
sg15
S'gracetest'
p171
sg17
I1
sa(dp172
g3
S'Table Patron'
p173
sg5
I78322473
sg6
I1
sg7
S'wov_attendee'
p174
sg9
g11
sg12
S'-100%'
p175
sg14
S'29'
p176
sg15
S'hckrwov'
p177
sg17
I10
sa(dp178
g3
S'Table Patron'
p179
sg5
I80082343
sg6
I1
sg7
S'wov_attendee'
p180
sg9
g11
sg12
S'-100%'
p181
sg14
S'30'
p182
sg15
S'hrvywov'
p183
sg17
I10
sa(dp184
g3
S'Silver Sponsor '
p185
sg5
I78466179
sg6
I1
sg7
S'wov_attendee'
p186
sg9
g11
sg12
S'-100%'
p187
sg14
S'31'
p188
sg15
S'hwltwov'
p189
sg17
I20
sa(dp190
g3
S'Table Patron'
p191
sg5
I79830969
sg6
I1
sg7
S'wov_attendee'
p192
sg9
g11
sg12
S'-100%'
p193
sg14
S'32'
p194
sg15
S'ibmcwov'
p195
sg17
I10
sa(dp196
g3
S'Table Patron'
p197
sg5
I78525071
sg6
I1
sg7
S'wov_attendee'
p198
sg9
g11
sg12
S'-100%'
p199
sg14
S'33'
p200
sg15
S'intlwov'
p201
sg17
I10
sa(dp202
g3
S'Table Patron'
p203
sg5
I78324562
sg6
I1
sg7
S'wov_attendee'
p204
sg9
g11
sg12
S'-100%'
p205
sg14
S'34'
p206
sg15
S'inttwov'
p207
sg17
I10
sa(dp208
g3
S'Show Management'
p209
sg5
I77667879
sg6
I1
sg7
S'wov_attendee'
p210
sg9
g11
sg12
S'-100%'
p211
sg14
S'35'
p212
sg15
S'jdyabi'
p213
sg17
I4
sa(dp214
g3
S'Show Management'
p215
sg5
I77667879
sg6
I1
sg7
S'wov_attendee'
p216
sg9
g11
sg12
S'-100%'
p217
sg14
S'36'
p218
sg15
S'jnabi'
p219
sg17
I2
sa(dp220
g3
S'Silver Sponsor '
p221
sg5
I77923295
sg6
I1
sg7
S'wov_attendee'
p222
sg9
g11
sg12
S'-100%'
p223
sg14
S'37'
p224
sg15
S'jnprwov'
p225
sg17
I40
sa(dp226
g3
S'Dinner Host'
p227
sg5
I77357383
sg6
I1
sg7
S'wov_attendee'
p228
sg9
g11
sg12
S'-100%'
p229
sg14
S'38'
p230
sg15
S'lckhwov'
p231
sg17
I50
sa(dp232
g3
S'Table Patron'
p233
sg5
I78177898
sg6
I1
sg7
S'wov_attendee'
p234
sg9
g11
sg12
S'-100%'
p235
sg14
S'39'
p236
sg15
S'lmrswov'
p237
sg17
I10
sa(dp238
g3
S'Table Patron'
p239
sg5
I80266374
sg6
I1
sg7
S'wov_attendee'
p240
sg9
g11
sg12
S'-100%'
p241
sg14
S'40'
p242
sg15
S'lnkdwov'
p243
sg17
I20
sa(dp244
g3
S'Table Patron'
p245
sg5
I78195678
sg6
I1
sg7
S'wov_attendee'
p246
sg9
g11
sg12
S'-100%'
p247
sg14
S'41'
p248
sg15
S'mcrswov'
p249
sg17
I20
sa(dp250
g3
S'Show Management'
p251
sg5
I80857041
sg6
I1
sg7
S'wov_attendee'
p252
sg9
g11
sg12
S'-100%'
p253
sg14
S'42'
p254
sg15
S'mcyswov'
p255
sg17
I2
sa(dp256
g3
S'Show Management'
p257
sg5
I77667879
sg6
I1
sg7
S'wov_attendee'
p258
sg9
g11
sg12
S'-100%'
p259
sg14
S'43'
p260
sg15
S'mnabi'
p261
sg17
I2
sa(dp262
g3
S'Table Patron'
p263
sg5
I78482258
sg6
I1
sg7
S'wov_attendee'
p264
sg9
g11
sg12
S'-100%'
p265
sg14
S'44'
p266
sg15
S'mrktwov'
p267
sg17
I10
sa(dp268
g3
S'Table Patron'
p269
sg5
I78419710
sg6
I1
sg7
S'wov_attendee'
p270
sg9
g11
sg12
S'-100%'
p271
sg14
S'45'
p272
sg15
S'ntnwwov'
p273
sg17
I10
sa(dp274
g3
S'Gold Sponsor'
p275
sg5
I77665943
sg6
I1
sg7
S'wov_attendee'
p276
sg9
g11
sg12
S'-100%'
p277
sg14
S'46'
p278
sg15
S'ntppwov'
p279
sg17
I30
sa(dp280
g3
S'Table Patron'
p281
sg5
I80312904
sg6
I1
sg7
S'wov_attendee'
p282
sg9
g11
sg12
S'-100%'
p283
sg14
S'47'
p284
sg15
S'prcxwov'
p285
sg17
I10
sa(dp286
g3
S'Show Management'
p287
sg5
I77667879
sg6
I1
sg7
S'wov_attendee'
p288
sg9
g11
sg12
S'-100%'
p289
sg14
S'48'
p290
sg15
S'prssabi'
p291
sg17
I7
sa(dp292
g3
S'Table Patron'
p293
sg5
I80662418
sg6
I1
sg7
S'wov_attendee'
p294
sg9
g11
sg12
S'-100%'
p295
sg14
S'49'
p296
sg15
S'prstwov'
p297
sg17
I10
sa(dp298
g3
S'Bronze Sponsor'
p299
sg5
I79478599
sg6
I1
sg7
S'wov_attendee'
p300
sg9
g11
sg12
S'-100%'
p301
sg14
S'50'
p302
sg15
S'rckswov'
p303
sg17
I10
sa(dp304
g3
S'Show Management'
p305
sg5
I77667879
sg6
I1
sg7
S'wov_attendee'
p306
sg9
g11
sg12
S'-100%'
p307
sg14
S'51'
p308
sg15
S'slctabi'
p309
sg17
I3
sa(dp310
g3
S'Table Patron'
p311
sg5
I80015964
sg6
I1
sg7
S'wov_attendee'
p312
sg9
g11
sg12
S'-100%'
p313
sg14
S'52'
p314
sg15
S'slsfwov'
p315
sg17
I10
sa(dp316
g3
S'Table Patron'
p317
sg5
I78056700
sg6
I1
sg7
S'wov_attendee'
p318
sg9
g11
sg12
S'-100%'
p319
sg14
S'53'
p320
sg15
S'smrtwov'
p321
sg17
I10
sa(dp322
g3
S'Show Management'
p323
sg5
I77667879
sg6
I1
sg7
S'wov_attendee'
p324
sg9
g11
sg12
S'-100%'
p325
sg14
S'54'
p326
sg15
S'spkrabi'
p327
sg17
I4
sa(dp328
g3
S'Show Management'
p329
sg5
I77667879
sg6
I1
sg7
S'wov_attendee'
p330
sg9
g11
sg12
S'-100%'
p331
sg14
S'55'
p332
sg15
S'stffabi'
p333
sg17
I40
sa(dp334
g3
S'Show Management'
p335
sg5
I77667879
sg6
I1
sg7
S'wov_attendee'
p336
sg9
g11
sg12
S'-100%'
p337
sg14
S'56'
p338
sg15
S'sttabi'
p339
sg17
I4
sa(dp340
g3
S'Silver Sponsor '
p341
sg5
I78736369
sg6
I1
sg7
S'wov_attendee'
p342
sg9
g11
sg12
S'-100%'
p343
sg14
S'57'
p344
sg15
S'symnwov'
p345
sg17
I30
sa(dp346
g3
S'Bronze Sponsor'
p347
sg5
I79877761
sg6
I1
sg7
S'wov_attendee'
p348
sg9
g11
sg12
S'-100%'
p349
sg14
S'58'
p350
sg15
S'synpwov'
p351
sg17
I10
sa(dp352
g3
S'Silver Sponsor '
p353
sg5
I77720596
sg6
I1
sg7
S'wov_attendee'
p354
sg9
g11
sg12
S'-100%'
p355
sg14
S'59'
p356
sg15
S'thmswov'
p357
sg17
I20
sa(dp358
g3
S'Show Management'
p359
sg5
I77667879
sg6
I1
sg7
S'wov_attendee'
p360
sg9
g11
sg12
S'-100%'
p361
sg14
S'60'
p362
sg15
S'tllabi'
p363
sg17
I12
sa(dp364
g3
S'Table Patron'
p365
sg5
I80371952
sg6
I1
sg7
S'wov_attendee'
p366
sg9
g11
sg12
S'-100%'
p367
sg14
S'61'
p368
sg15
S'trwpwov'
p369
sg17
I10
sa(dp370
g3
S'Table Patron'
p371
sg5
I77448223
sg6
I1
sg7
S'wov_attendee'
p372
sg9
g11
sg12
S'-100%'
p373
sg14
S'62'
p374
sg15
S'vmwrwov'
p375
sg17
I10
sa(dp376
g3
S'Show Management'
p377
sg5
I77667879
sg6
I1
sg7
S'wov_attendee'
p378
sg9
g11
sg12
S'-100%'
p379
sg14
S'63'
p380
sg15
S'wlsnwov'
p381
sg17
I3
sa(dp382
g3
S'Table Patron'
p383
sg5
I80314050
sg6
I1
sg7
S'wov_attendee'
p384
sg9
g11
sg12
S'-100%'
p385
sg14
S'64'
p386
sg15
S'wrkdwov'
p387
sg17
I10
sa.