(lp1
(dp2
S'RegistrationType'
p3
S'Corporate - Gold'
p4
sS'ID'
p5
VAccenCGOLD15BGenR2Q15o
p6
sS'SponsorID'
p7
I77845613
sS'RegTypeID'
p8
I223381
sS'badge_type'
p9
S'general_full'
p10
sS'created_date'
p11
S'Wed, 13 May 2015 03:36:37 UTC'
p12
sS'regonline_str'
p13
S'-0%'
p14
sS'code_source'
p15
g4
sS'discount_code'
p16
g6
sS'quantity'
p17
I5
sa(dp18
g3
g4
sg5
VAccenCGOLD15BBoSR2Q15o
p19
sg7
I77845613
sg8
I223381
sg9
S'booth'
p20
sg11
S'Wed, 13 May 2015 03:36:37 UTC'
p21
sg13
S'-0%'
p22
sg15
g4
sg16
g19
sg17
I2
sa(dp23
g3
S'ABI Partners Only - Diamond'
p24
sg5
VCapit152Q118
p25
sg7
I77845651
sg8
I223379
sg9
S'general_1'
p26
sg11
S'Wed, 13 May 2015 03:34:55 UTC'
p27
sg13
S'-0%'
p28
sg15
g24
sg16
g25
sg17
I1
sa(dp29
g3
g24
sg5
VCapitDIA15BGenR2Q118
p30
sg7
I77845651
sg8
I223379
sg9
g10
sg11
S'Wed, 13 May 2015 03:34:55 UTC'
p31
sg13
S'-0%'
p32
sg15
g24
sg16
g30
sg17
I20
sa(dp33
g3
g24
sg5
VCapitDIA15BBoSR2Q118
p34
sg7
I77845651
sg8
I223379
sg9
g20
sg11
S'Wed, 13 May 2015 03:34:55 UTC'
p35
sg13
S'-0%'
p36
sg15
g24
sg16
g34
sg17
I8
sa(dp37
g3
g24
sg5
VCapit1510DGenR2Q118
p38
sg7
I77845651
sg8
I223379
sg9
g10
sg11
S'Wed, 13 May 2015 03:34:55 UTC'
p39
sg13
S'-0%'
p40
sg15
g24
sg16
g38
sg17
I120
sa(dp41
g3
S'Corporate - Gold'
p42
sg5
VBoxCGOLD15BGenR2Q15k
p43
sg7
I77859939
sg8
I223381
sg9
g10
sg11
S'Wed, 13 May 2015 03:36:39 UTC'
p44
sg13
S'-0%'
p45
sg15
g42
sg16
g43
sg17
I5
sa(dp46
g3
g42
sg5
VBoxCGOLD15BBoSR2Q15k
p47
sg7
I77859939
sg8
I223381
sg9
g20
sg11
S'Wed, 13 May 2015 03:36:39 UTC'
p48
sg13
S'-0%'
p49
sg15
g42
sg16
g47
sg17
I2
sa(dp50
g3
S'Corporate - Silver'
p51
sg5
VMongoCSIL15BGenR2Q16X
p52
sg7
I77866379
sg8
I223382
sg9
g10
sg11
S'Wed, 13 May 2015 03:36:54 UTC'
p53
sg13
S'-0%'
p54
sg15
g51
sg16
g52
sg17
I3
sa(dp55
g3
g51
sg5
VMongoCSIL15BBoSR2Q16X
p56
sg7
I77866379
sg8
I223382
sg9
g20
sg11
S'Wed, 13 May 2015 03:36:54 UTC'
p57
sg13
S'-0%'
p58
sg15
g51
sg16
g56
sg17
I3
sa(dp59
g3
S'Corporate - Gold'
p60
sg5
VGE SoCGOLD15BGenR2Q14m
p61
sg7
I77874390
sg8
I223381
sg9
g10
sg11
S'Wed, 13 May 2015 03:36:40 UTC'
p62
sg13
S'-0%'
p63
sg15
g60
sg16
g61
sg17
I5
sa(dp64
g3
g60
sg5
VGE SoCGOLD15BBoSR2Q14m
p65
sg7
I77874390
sg8
I223381
sg9
g20
sg11
S'Wed, 13 May 2015 03:36:40 UTC'
p66
sg13
S'-0%'
p67
sg15
g60
sg16
g65
sg17
I2
sa(dp68
g3
S'Corporate - Gold'
p69
sg5
VPalanCGOLD15BGenR2Q15t
p70
sg7
I77902004
sg8
I223381
sg9
g10
sg11
S'Wed, 13 May 2015 03:36:42 UTC'
p71
sg13
S'-0%'
p72
sg15
g69
sg16
g70
sg17
I5
sa(dp73
g3
g69
sg5
VPalanCGOLD15BBoSR2Q15t
p74
sg7
I77902004
sg8
I223381
sg9
g20
sg11
S'Wed, 13 May 2015 03:36:42 UTC'
p75
sg13
S'-0%'
p76
sg15
g69
sg16
g74
sg17
I2
sa(dp77
g3
S'Corporate - Gold'
p78
sg5
VMorgaCGOLD15BGenR2Q15y
p79
sg7
I77928319
sg8
I223381
sg9
g10
sg11
S'Wed, 13 May 2015 03:36:43 UTC'
p80
sg13
S'-0%'
p81
sg15
g78
sg16
g79
sg17
I5
sa(dp82
g3
g78
sg5
VMorgaCGOLD15BBoSR2Q15y
p83
sg7
I77928319
sg8
I223381
sg9
g20
sg11
S'Wed, 13 May 2015 03:36:43 UTC'
p84
sg13
S'-0%'
p85
sg15
g78
sg16
g83
sg17
I2
sa(dp86
g3
S'Corporate - Gold'
p87
sg5
VMacysCGOLD15BGenR2Q163
p88
sg7
I78012105
sg8
I223381
sg9
g10
sg11
S'Wed, 13 May 2015 03:36:45 UTC'
p89
sg13
S'-0%'
p90
sg15
g87
sg16
g88
sg17
I5
sa(dp91
g3
g87
sg5
VMacysCGOLD15BBoSR2Q163
p92
sg7
I78012105
sg8
I223381
sg9
g20
sg11
S'Wed, 13 May 2015 03:36:45 UTC'
p93
sg13
S'-0%'
p94
sg15
g87
sg16
g92
sg17
I2
sa(dp95
g3
S'ABI Partners Only - Platinum'
p96
sg5
VJunip152Q11N
p97
sg7
I78012883
sg8
I223380
sg9
g26
sg11
S'Wed, 13 May 2015 03:35:02 UTC'
p98
sg13
S'-0%'
p99
sg15
g96
sg16
g97
sg17
I1
sa(dp100
g3
g96
sg5
VJunipPLAT15BGenR2Q11N
p101
sg7
I78012883
sg8
I223380
sg9
g10
sg11
S'Wed, 13 May 2015 03:35:02 UTC'
p102
sg13
S'-0%'
p103
sg15
g96
sg16
g101
sg17
I10
sa(dp104
g3
g96
sg5
VJunipPLAT15BBoSR2Q11N
p105
sg7
I78012883
sg8
I223380
sg9
g20
sg11
S'Wed, 13 May 2015 03:35:02 UTC'
p106
sg13
S'-0%'
p107
sg15
g96
sg16
g105
sg17
I8
sa(dp108
g3
g96
sg5
VJunip152Q11N
p109
sg7
I78012883
sg8
I223380
sg9
g26
sg11
S'Wed, 13 May 2015 03:35:02 UTC'
p110
sg13
S'-0%'
p111
sg15
g96
sg16
g109
sg17
I2
sa(dp112
g3
S'Corporate - Gold'
p113
sg5
VSquarCGOLD15BGenR2Q15K
p114
sg7
I78021784
sg8
I223381
sg9
g10
sg11
S'Wed, 13 May 2015 03:36:27 UTC'
p115
sg13
S'-0%'
p116
sg15
g113
sg16
g114
sg17
I5
sa(dp117
g3
g113
sg5
VSquarCGOLD15BBoSR2Q15K
p118
sg7
I78021784
sg8
I223381
sg9
g20
sg11
S'Wed, 13 May 2015 03:36:27 UTC'
p119
sg13
S'-0%'
p120
sg15
g113
sg16
g118
sg17
I2
sa(dp121
S'SponsorID'
p122
I78038806
sS'regonline_str'
p123
S'-0%'
p124
sS'RegistrationType'
p125
S'Corporate - Gold'
p126
sS'RegTypeID'
p127
I223381
sS'badge_type'
p128
S'general_full'
p129
sS'created_date'
p130
S'Wed, 13 May 2015 03:35:46 UTC'
p131
sS'code_source'
p132
g126
sS'ID'
p133
VJohnsCGOLD15BGenR2Q13E
p134
sS'discount_code'
p135
g134
sS'quantity'
p136
I5
sa(dp137
g122
I78038806
sg123
S'-0%'
p138
sg125
g126
sg127
I223381
sg128
S'booth'
p139
sg130
S'Wed, 13 May 2015 03:35:46 UTC'
p140
sg132
g126
sg133
VJohnsCGOLD15BBoSR2Q13E
p141
sg135
g141
sg136
I2
sa(dp142
g122
I78187521
sg123
S'-0%'
p143
sg125
S'Corporate - Gold'
p144
sg127
I223381
sg128
g129
sg130
S'Wed, 13 May 2015 03:36:29 UTC'
p145
sg132
g144
sg133
VTraveCGOLD15BGenR2Q15P
p146
sg135
g146
sg136
I5
sa(dp147
g122
I78187521
sg123
S'-0%'
p148
sg125
g144
sg127
I223381
sg128
g139
sg130
S'Wed, 13 May 2015 03:36:29 UTC'
p149
sg132
g144
sg133
VTraveCGOLD15BBoSR2Q15P
p150
sg135
g150
sg136
I2
sa(dp151
g122
I78262005
sg123
S'-0%'
p152
sg125
S'Corporate - Silver'
p153
sg127
I223382
sg128
g129
sg130
S'Wed, 13 May 2015 03:37:35 UTC'
p154
sg132
g153
sg133
VKnewtCSIL15BGenR2Q18J
p155
sg135
g155
sg136
I3
sa(dp156
g122
I78262005
sg123
S'-0%'
p157
sg125
g153
sg127
I223382
sg128
g139
sg130
S'Wed, 13 May 2015 03:37:35 UTC'
p158
sg132
g153
sg133
VKnewtCSIL15BBoSR2Q18J
p159
sg135
g159
sg136
I3
sa(dp160
g122
I78262635
sg123
S'-0%'
p161
sg125
S'Corporate - Gold'
p162
sg127
I223381
sg128
g129
sg130
S'Wed, 13 May 2015 03:36:31 UTC'
p163
sg132
g162
sg133
VMailCCGOLD15BGenR2Q15U
p164
sg135
g164
sg136
I5
sa(dp165
g122
I78262635
sg123
S'-0%'
p166
sg125
g162
sg127
I223381
sg128
g139
sg130
S'Wed, 13 May 2015 03:36:31 UTC'
p167
sg132
g162
sg133
VMailCCGOLD15BBoSR2Q15U
p168
sg135
g168
sg136
I2
sa(dp169
g122
I78269185
sg123
S'-0%'
p170
sg125
S'Corporate - Silver'
p171
sg127
I223382
sg128
g129
sg130
S'Wed, 13 May 2015 03:37:37 UTC'
p172
sg132
g171
sg133
VD. E.CSIL15BGenR2Q18O
p173
sg135
g173
sg136
I3
sa(dp174
g122
I78269185
sg123
S'-0%'
p175
sg125
g171
sg127
I223382
sg128
g139
sg130
S'Wed, 13 May 2015 03:37:37 UTC'
p176
sg132
g171
sg133
VD. E.CSIL15BBoSR2Q18O
p177
sg135
g177
sg136
I3
sa(dp178
g122
I78412181
sg123
S'-0%'
p179
sg125
S'ABI Partners Only - Platinum'
p180
sg127
I223380
sg128
g129
sg130
S'Wed, 13 May 2015 03:35:04 UTC'
p181
sg132
g180
sg133
VNetApPLAT15BGenR2Q11S
p182
sg135
g182
sg136
I10
sa(dp183
g122
I78412181
sg123
S'-0%'
p184
sg125
g180
sg127
I223380
sg128
g139
sg130
S'Wed, 13 May 2015 03:35:04 UTC'
p185
sg132
g180
sg133
VNetApPLAT15BBoSR2Q11S
p186
sg135
g186
sg136
I8
sa(dp187
g122
I78465630
sg123
S'-0%'
p188
sg125
S'Corporate - Silver'
p189
sg127
I223382
sg128
g129
sg130
S'Wed, 13 May 2015 03:37:38 UTC'
p190
sg132
g189
sg133
VMarkLCSIL15BGenR2Q17M
p191
sg135
g191
sg136
I3
sa(dp192
g122
I78465630
sg123
S'-0%'
p193
sg125
g189
sg127
I223382
sg128
g139
sg130
S'Wed, 13 May 2015 03:37:38 UTC'
p194
sg132
g189
sg133
VMarkLCSIL15BBoSR2Q17M
p195
sg135
g195
sg136
I3
sa(dp196
g122
I78562705
sg123
S'-0%'
p197
sg125
S'ABI Partners Only - Platinum'
p198
sg127
I223380
sg128
g129
sg130
S'Wed, 13 May 2015 03:35:06 UTC'
p199
sg132
g198
sg133
VDropbPLAT15BGenR2Q11X
p200
sg135
g200
sg136
I10
sa(dp201
g122
I78562705
sg123
S'-0%'
p202
sg125
g198
sg127
I223380
sg128
g139
sg130
S'Wed, 13 May 2015 03:35:06 UTC'
p203
sg132
g198
sg133
VDropbPLAT15BBoSR2Q11X
p204
sg135
g204
sg136
I8
sa(dp205
g122
I78603554
sg123
S'-0%'
p206
sg125
S'Corporate - Gold'
p207
sg127
I223381
sg128
g129
sg130
S'Wed, 13 May 2015 03:36:32 UTC'
p208
sg132
g207
sg133
VNetSuCGOLD15BGenR2Q15Z
p209
sg135
g209
sg136
I5
sa(dp210
g122
I78603554
sg123
S'-0%'
p211
sg125
g207
sg127
I223381
sg128
g139
sg130
S'Wed, 13 May 2015 03:36:32 UTC'
p212
sg132
g207
sg133
VNetSuCGOLD15BBoSR2Q15Z
p213
sg135
g213
sg136
I2
sa(dp214
g122
I78623682
sg123
S'-0%'
p215
sg125
S'Corporate - Silver'
p216
sg127
I223382
sg128
g129
sg130
S'Wed, 13 May 2015 03:37:40 UTC'
p217
sg132
g216
sg133
VFireECSIL15BGenR2Q18T
p218
sg135
g218
sg136
I3
sa(dp219
g122
I78623682
sg123
S'-0%'
p220
sg125
g216
sg127
I223382
sg128
g139
sg130
S'Wed, 13 May 2015 03:37:40 UTC'
p221
sg132
g216
sg133
VFireECSIL15BBoSR2Q18T
p222
sg135
g222
sg136
I3
sa(dp223
g122
I78637801
sg123
S'-0%'
p224
sg125
S'Corporate - Silver'
p225
sg127
I223382
sg128
g129
sg130
S'Wed, 13 May 2015 03:37:42 UTC'
p226
sg132
g225
sg133
VBloomCSIL15BGenR2Q18Y
p227
sg135
g227
sg136
I3
sa(dp228
g122
I78637801
sg123
S'-0%'
p229
sg125
g225
sg127
I223382
sg128
g139
sg130
S'Wed, 13 May 2015 03:37:42 UTC'
p230
sg132
g225
sg133
VBloomCSIL15BBoSR2Q18Y
p231
sg135
g231
sg136
I3
sa(dp232
g122
I78731228
sg123
S'-0%'
p233
sg125
S'Corporate - Silver'
p234
sg127
I223382
sg128
g129
sg130
S'Wed, 13 May 2015 03:37:43 UTC'
p235
sg132
g234
sg133
VPURE CSIL15BGenR2Q18U
p236
sg135
g236
sg136
I3
sa(dp237
g122
I78731228
sg123
S'-0%'
p238
sg125
g234
sg127
I223382
sg128
g139
sg130
S'Wed, 13 May 2015 03:37:43 UTC'
p239
sg132
g234
sg133
VPURE CSIL15BBoSR2Q18U
p240
sg135
g240
sg136
I3
sa(dp241
g122
I78735834
sg123
S'-0%'
p242
sg125
S'Corporate - Gold'
p243
sg127
I223381
sg128
g129
sg130
S'Wed, 13 May 2015 03:36:34 UTC'
p244
sg132
g243
sg133
VSymanCGOLD15BGenR2Q15e
p245
sg135
g245
sg136
I5
sa(dp246
g122
I78735834
sg123
S'-0%'
p247
sg125
g243
sg127
I223381
sg128
g139
sg130
S'Wed, 13 May 2015 03:36:34 UTC'
p248
sg132
g243
sg133
VSymanCGOLD15BBoSR2Q15e
p249
sg135
g249
sg136
I2
sa(dp250
g122
I78943484
sg123
S'-0%'
p251
sg125
S'ABI Partners Only - Platinum'
p252
sg127
I223380
sg128
g129
sg130
S'Wed, 13 May 2015 03:35:27 UTC'
p253
sg132
g252
sg133
VIntelPLAT15BGenR2Q12Q
p254
sg135
g254
sg136
I10
sa(dp255
g122
I78943484
sg123
S'-0%'
p256
sg125
g252
sg127
I223380
sg128
g139
sg130
S'Wed, 13 May 2015 03:35:27 UTC'
p257
sg132
g252
sg133
VIntelPLAT15BBoSR2Q12Q
p258
sg135
g258
sg136
I8
sa(dp259
g122
I79019098
sg123
S'-0%'
p260
sg125
S'Corporate - Silver'
p261
sg127
I223382
sg128
g129
sg130
S'Wed, 13 May 2015 03:37:25 UTC'
p262
sg132
g261
sg133
VT. RoCSIL15BGenR2Q17p
p263
sg135
g263
sg136
I3
sa(dp264
g122
I79019098
sg123
S'-0%'
p265
sg125
g261
sg127
I223382
sg128
g139
sg130
S'Wed, 13 May 2015 03:37:25 UTC'
p266
sg132
g261
sg133
VT. RoCSIL15BBoSR2Q17p
p267
sg135
g267
sg136
I3
sa(dp268
g122
I79027154
sg123
S'-0%'
p269
sg125
S'Corporate - Silver'
p270
sg127
I223382
sg128
g129
sg130
S'Wed, 13 May 2015 03:37:27 UTC'
p271
sg132
g270
sg133
VHubSpCSIL15BGenR2Q17u
p272
sg135
g272
sg136
I3
sa(dp273
g122
I79027154
sg123
S'-0%'
p274
sg125
g270
sg127
I223382
sg128
g139
sg130
S'Wed, 13 May 2015 03:37:27 UTC'
p275
sg132
g270
sg133
VHubSpCSIL15BBoSR2Q17u
p276
sg135
g276
sg136
I3
sa(dp277
g122
I79043680
sg123
S'-0%'
p278
sg125
S'Corporate - Gold'
p279
sg127
I223381
sg128
g129
sg130
S'Wed, 13 May 2015 03:36:36 UTC'
p280
sg132
g279
sg133
VYelpCGOLD15BGenR2Q15j
p281
sg135
g281
sg136
I5
sa(dp282
g122
I79043680
sg123
S'-0%'
p283
sg125
g279
sg127
I223381
sg128
g139
sg130
S'Wed, 13 May 2015 03:36:36 UTC'
p284
sg132
g279
sg133
VYelpCGOLD15BBoSR2Q15j
p285
sg135
g285
sg136
I2
sa(dp286
g122
I79141580
sg123
S'-0%'
p287
sg125
S'Corporate - Gold'
p288
sg127
I223381
sg128
g129
sg130
S'Wed, 13 May 2015 03:36:18 UTC'
p289
sg132
g288
sg133
VSalesCGOLD15BGenR2Q14q
p290
sg135
g290
sg136
I5
sa(dp291
g122
I79141580
sg123
S'-0%'
p292
sg125
g288
sg127
I223381
sg128
g139
sg130
S'Wed, 13 May 2015 03:36:18 UTC'
p293
sg132
g288
sg133
VSalesCGOLD15BBoSR2Q14q
p294
sg135
g294
sg136
I2
sa(dp295
g122
I79141580
sg123
S'-0%'
p296
sg125
g288
sg127
I223381
sg128
g129
sg130
S'Wed, 13 May 2015 03:36:18 UTC'
p297
sg132
g288
sg133
VSales1510DGenR2Q14q
p298
sg135
g298
sg136
I20
sa(dp299
g122
I79177074
sg123
S'-0%'
p300
sg125
S'Lab & Non-Profit - Bronze'
p301
sg127
I226853
sg128
g129
sg130
S'Wed, 13 May 2015 03:38:29 UTC'
p302
sg132
g301
sg133
VBlackL&NBRZ15BGenR2Q1Af
p303
sg135
g303
sg136
I1
sa(dp304
g122
I79196510
sg123
S'-0%'
p305
sg125
S'Corporate - Gold'
p306
sg127
I223381
sg128
g129
sg130
S'Wed, 13 May 2015 03:36:19 UTC'
p307
sg132
g306
sg133
VStateCGOLD15BGenR2Q14v
p308
sg135
g308
sg136
I5
sa(dp309
g122
I79196510
sg123
S'-0%'
p310
sg125
g306
sg127
I223381
sg128
g139
sg130
S'Wed, 13 May 2015 03:36:19 UTC'
p311
sg132
g306
sg133
VStateCGOLD15BBoSR2Q14v
p312
sg135
g312
sg136
I2
sa(dp313
g122
I79208313
sg123
S'-0%'
p314
sg125
S'Corporate - Gold'
p315
sg127
I223381
sg128
g129
sg130
S'Wed, 13 May 2015 03:36:21 UTC'
p316
sg132
g315
sg133
VBNY MCGOLD15BGenR2Q150
p317
sg135
g317
sg136
I5
sa(dp318
g122
I79208313
sg123
S'-0%'
p319
sg125
g315
sg127
I223381
sg128
g139
sg130
S'Wed, 13 May 2015 03:36:21 UTC'
p320
sg132
g315
sg133
VBNY MCGOLD15BBoSR2Q150
p321
sg135
g321
sg136
I2
sa(dp322
g122
I79217975
sg123
S'-0%'
p323
sg125
S'ABI Partners Only - Platinum'
p324
sg127
I223380
sg128
g129
sg130
S'Wed, 13 May 2015 03:35:29 UTC'
p325
sg132
g324
sg133
VCA TePLAT15BGenR2Q12V
p326
sg135
g326
sg136
I10
sa(dp327
g122
I79217975
sg123
S'-0%'
p328
sg125
g324
sg127
I223380
sg128
g139
sg130
S'Wed, 13 May 2015 03:35:29 UTC'
p329
sg132
g324
sg133
VCA TePLAT15BBoSR2Q12V
p330
sg135
g330
sg136
I8
sa(dp331
g122
I79217975
sg123
S'-0%'
p332
sg125
g324
sg127
I223380
sg128
S'general_1'
p333
sg130
S'Wed, 13 May 2015 03:35:29 UTC'
p334
sg132
g324
sg133
VCA Te152Q12V
p335
sg135
g335
sg136
I1
sa(dp336
g122
I79217975
sg123
S'-0%'
p337
sg125
g324
sg127
I223380
sg128
g129
sg130
S'Wed, 13 May 2015 03:35:29 UTC'
p338
sg132
g324
sg133
VCA Te1510DGenR2Q12V
p339
sg135
g339
sg136
I10
sa(dp340
g122
I79255748
sg123
S'-0%'
p341
sg125
S'Academic - Silver'
p342
sg127
I223384
sg128
g139
sg130
S'Wed, 13 May 2015 03:37:57 UTC'
p343
sg132
g342
sg133
VUT-DaACASIL15BBoSR2Q19C
p344
sg135
g344
sg136
I3
sa(dp345
g122
I79255748
sg123
S'-0%'
p346
sg125
g342
sg127
I223384
sg128
S'student_full'
p347
sg130
S'Wed, 13 May 2015 03:37:57 UTC'
p348
sg132
g342
sg133
VUT-DaACASIL15BStDc2Q19C
p349
sg135
g349
sg136
I1
sa(dp350
g122
I79255748
sg123
S'-0%'
p351
sg125
g342
sg127
I223384
sg128
S'academic_full'
p352
sg130
S'Wed, 13 May 2015 03:37:57 UTC'
p353
sg132
g342
sg133
VUT-DaACASIL15BFacR2Q19C
p354
sg135
g354
sg136
I2
sa(dp355
g122
I79348115
sg123
S'-0%'
p356
sg125
S'Corporate - Silver'
p357
sg127
I223382
sg128
g129
sg130
S'Wed, 13 May 2015 03:37:28 UTC'
p358
sg132
g357
sg133
VSearsCSIL15BGenR2Q17z
p359
sg135
g359
sg136
I3
sa(dp360
g122
I79348115
sg123
S'-0%'
p361
sg125
g357
sg127
I223382
sg128
g139
sg130
S'Wed, 13 May 2015 03:37:28 UTC'
p362
sg132
g357
sg133
VSearsCSIL15BBoSR2Q17z
p363
sg135
g363
sg136
I3
sa(dp364
g122
I79396333
sg123
S'-0%'
p365
sg125
S'Lab & Non-Profit - Gold'
p366
sg127
I226851
sg128
g129
sg130
S'Wed, 13 May 2015 03:38:25 UTC'
p367
sg132
g366
sg133
VMIT LL&NGOLD15BGenR2Q1AU
p368
sg135
g368
sg136
I3
sa(dp369
g122
I79479575
sg123
S'-0%'
p370
sg125
S'ABI Partners Only - Platinum'
p371
sg127
I223380
sg128
g129
sg130
S'Wed, 13 May 2015 03:35:33 UTC'
p372
sg132
g371
sg133
VRacksPLAT15BGenR2Q12f
p373
sg135
g373
sg136
I10
sa(dp374
g122
I79479575
sg123
S'-0%'
p375
sg125
g371
sg127
I223380
sg128
g139
sg130
S'Wed, 13 May 2015 03:35:33 UTC'
p376
sg132
g371
sg133
VRacksPLAT15BBoSR2Q12f
p377
sg135
g377
sg136
I8
sa(dp378
g122
I79584463
sg123
S'-0%'
p379
sg125
S'Corporate - Gold'
p380
sg127
I223381
sg128
g129
sg130
S'Wed, 13 May 2015 03:36:23 UTC'
p381
sg132
g380
sg133
VCrediCGOLD15BGenR2Q155
p382
sg135
g382
sg136
I5
sa(dp383
g122
I79584463
sg123
S'-0%'
p384
sg125
g380
sg127
I223381
sg128
g139
sg130
S'Wed, 13 May 2015 03:36:23 UTC'
p385
sg132
g380
sg133
VCrediCGOLD15BBoSR2Q155
p386
sg135
g386
sg136
I2
sa(dp387
g122
I79599643
sg123
S'-0%'
p388
sg125
S'ABI Partners Only - Platinum'
p389
sg127
I223380
sg128
g333
sg130
S'Wed, 13 May 2015 03:35:35 UTC'
p390
sg132
g389
sg133
VThoms15TEF2Q12k
p391
sg135
g391
sg136
I1
sa(dp392
g122
I79599643
sg123
S'-0%'
p393
sg125
g389
sg127
I223380
sg128
g129
sg130
S'Wed, 13 May 2015 03:35:35 UTC'
p394
sg132
g389
sg133
VThomsPLAT15BGenR2Q12k
p395
sg135
g395
sg136
I10
sa(dp396
g122
I79599643
sg123
S'-0%'
p397
sg125
g389
sg127
I223380
sg128
g139
sg130
S'Wed, 13 May 2015 03:35:35 UTC'
p398
sg132
g389
sg133
VThomsPLAT15BBoSR2Q12k
p399
sg135
g399
sg136
I8
sa(dp400
g122
I79600826
sg123
S'-0%'
p401
sg125
S'Corporate - Gold'
p402
sg127
I223381
sg128
g129
sg130
S'Wed, 13 May 2015 03:36:24 UTC'
p403
sg132
g402
sg133
VAT&TCGOLD15BGenR2Q15A
p404
sg135
g404
sg136
I5
sa(dp405
g122
I79600826
sg123
S'-0%'
p406
sg125
g402
sg127
I223381
sg128
g139
sg130
S'Wed, 13 May 2015 03:36:24 UTC'
p407
sg132
g402
sg133
VAT&TCGOLD15BBoSR2Q15A
p408
sg135
g408
sg136
I2
sa(dp409
g122
I79609919
sg123
S'-0%'
p410
sg125
S'ABI Partners Only - Platinum'
p411
sg127
I223380
sg128
g129
sg130
S'Wed, 13 May 2015 03:35:37 UTC'
p412
sg132
g411
sg133
VVMwarPLAT15BGenR2Q12p
p413
sg135
g413
sg136
I10
sa(dp414
g122
I79609919
sg123
S'-0%'
p415
sg125
g411
sg127
I223380
sg128
g139
sg130
S'Wed, 13 May 2015 03:35:37 UTC'
p416
sg132
g411
sg133
VVMwarPLAT15BBoSR2Q12p
p417
sg135
g417
sg136
I8
sa(dp418
g122
I79699190
sg123
S'-0%'
p419
sg125
S'ABI Partners Only - Platinum'
p420
sg127
I223380
sg128
g129
sg130
S'Wed, 13 May 2015 03:35:18 UTC'
p421
sg132
g420
sg133
VLinkePLAT15BGenR2Q121
p422
sg135
g422
sg136
I10
sa(dp423
g122
I79699190
sg123
S'-0%'
p424
sg125
g420
sg127
I223380
sg128
g139
sg130
S'Wed, 13 May 2015 03:35:18 UTC'
p425
sg132
g420
sg133
VLinkePLAT15BBoSR2Q121
p426
sg135
g426
sg136
I8
sa(dp427
g122
I79781177
sg123
S'-0%'
p428
sg125
S'ABI Partners Only - Diamond'
p429
sg127
I223379
sg128
g129
sg130
S'Wed, 13 May 2015 03:34:52 UTC'
p430
sg132
g429
sg133
VCiscoDIA15BGenR2Q10y
p431
sg135
g431
sg136
I20
sa(dp432
g122
I79781177
sg123
S'-0%'
p433
sg125
g429
sg127
I223379
sg128
g139
sg130
S'Wed, 13 May 2015 03:34:52 UTC'
p434
sg132
g429
sg133
VCiscoDIA15BBoSR2Q10y
p435
sg135
g435
sg136
I8
sa(dp436
g122
I79788597
sg123
S'-0%'
p437
sg125
S'ABI Partners Only - Diamond'
p438
sg127
I223379
sg128
g129
sg130
S'Wed, 13 May 2015 03:34:54 UTC'
p439
sg132
g438
sg133
VAppleDIA15BGenR2Q113
p440
sg135
g440
sg136
I20
sa(dp441
g122
I79788597
sg123
S'-0%'
p442
sg125
g438
sg127
I223379
sg128
g139
sg130
S'Wed, 13 May 2015 03:34:54 UTC'
p443
sg132
g438
sg133
VAppleDIA15BBoSR2Q113
p444
sg135
g444
sg136
I8
sa(dp445
g122
I79831591
sg123
S'-0%'
p446
sg125
S'Academic - Silver'
p447
sg127
I223384
sg128
g139
sg130
S'Wed, 13 May 2015 03:37:58 UTC'
p448
sg132
g447
sg133
VDuke ACASIL15BBoSR2Q19H
p449
sg135
g449
sg136
I3
sa(dp450
g122
I79831591
sg123
S'-0%'
p451
sg125
g447
sg127
I223384
sg128
g347
sg130
S'Wed, 13 May 2015 03:37:58 UTC'
p452
sg132
g447
sg133
VDuke ACASIL15BStDc2Q19H
p453
sg135
g453
sg136
I1
sa(dp454
g122
I79831591
sg123
S'-0%'
p455
sg125
g447
sg127
I223384
sg128
g352
sg130
S'Wed, 13 May 2015 03:37:58 UTC'
p456
sg132
g447
sg133
VDuke ACASIL15BFacR2Q19H
p457
sg135
g457
sg136
I2
sa(dp458
g122
I79855196
sg123
S'-0%'
p459
sg125
S'ABI Partners Only - Platinum'
p460
sg127
I223380
sg128
g129
sg130
S'Wed, 13 May 2015 03:35:21 UTC'
p461
sg132
g460
sg133
VHewlePLAT15BGenR2Q12B
p462
sg135
g462
sg136
I10
sa(dp463
g122
I79855196
sg123
S'-0%'
p464
sg125
g460
sg127
I223380
sg128
g139
sg130
S'Wed, 13 May 2015 03:35:21 UTC'
p465
sg132
g460
sg133
VHewlePLAT15BBoSR2Q12B
p466
sg135
g466
sg136
I8
sa(dp467
g122
I79855196
sg123
S'-0%'
p468
sg125
g460
sg127
I223380
sg128
g129
sg130
S'Wed, 13 May 2015 03:35:21 UTC'
p469
sg132
g460
sg133
VHewle1510DGenR2Q12B
p470
sg135
g470
sg136
I60
sa(dp471
g122
I79858835
sg123
S'-0%'
p472
sg125
S'ABI Partners Only - Diamond'
p473
sg127
I223379
sg128
g129
sg130
S'Wed, 13 May 2015 03:34:57 UTC'
p474
sg132
g473
sg133
VMicroDIA15BGenR2Q11D
p475
sg135
g475
sg136
I20
sa(dp476
g122
I79858835
sg123
S'-0%'
p477
sg125
g473
sg127
I223379
sg128
g139
sg130
S'Wed, 13 May 2015 03:34:57 UTC'
p478
sg132
g473
sg133
VMicroDIA15BBoSR2Q11D
p479
sg135
g479
sg136
I8
sa(dp480
g122
I79882696
sg123
S'-0%'
p481
sg125
S'Corporate - Silver'
p482
sg127
I223382
sg128
g129
sg130
S'Wed, 13 May 2015 03:37:30 UTC'
p483
sg132
g482
sg133
VFast CSIL15BGenR2Q184
p484
sg135
g484
sg136
I3
sa(dp485
g122
I79882696
sg123
S'-0%'
p486
sg125
g482
sg127
I223382
sg128
g139
sg130
S'Wed, 13 May 2015 03:37:30 UTC'
p487
sg132
g482
sg133
VFast CSIL15BBoSR2Q184
p488
sg135
g488
sg136
I3
sa(dp489
g122
I79894238
sg123
S'-0%'
p490
sg125
S'Corporate - Gold'
p491
sg127
I223381
sg128
g129
sg130
S'Wed, 13 May 2015 03:36:26 UTC'
p492
sg132
g491
sg133
VBookiCGOLD15BGenR2Q15F
p493
sg135
g493
sg136
I5
sa(dp494
g122
I79894238
sg123
S'-0%'
p495
sg125
g491
sg127
I223381
sg128
g139
sg130
S'Wed, 13 May 2015 03:36:26 UTC'
p496
sg132
g491
sg133
VBookiCGOLD15BBoSR2Q15F
p497
sg135
g497
sg136
I2
sa(dp498
g122
I79951282
sg123
S'-0%'
p499
sg125
S'ABI Partners Only - Platinum'
p500
sg127
I223380
sg128
g129
sg130
S'Wed, 13 May 2015 03:35:24 UTC'
p501
sg132
g500
sg133
VMastePLAT15BGenR2Q12L
p502
sg135
g502
sg136
I10
sa(dp503
g122
I79951282
sg123
S'-0%'
p504
sg125
g500
sg127
I223380
sg128
g139
sg130
S'Wed, 13 May 2015 03:35:24 UTC'
p505
sg132
g500
sg133
VMastePLAT15BBoSR2Q12L
p506
sg135
g506
sg136
I8
sa(dp507
g122
I80018305
sg123
S'-0%'
p508
sg125
S'Corporate - Gold'
p509
sg127
I223381
sg128
g129
sg130
S'Wed, 13 May 2015 03:36:07 UTC'
p510
sg132
g509
sg133
VViaSaCGOLD15BGenR2Q14M
p511
sg135
g511
sg136
I5
sa(dp512
g122
I80018305
sg123
S'-0%'
p513
sg125
g509
sg127
I223381
sg128
g139
sg130
S'Wed, 13 May 2015 03:36:07 UTC'
p514
sg132
g509
sg133
VViaSaCGOLD15BBoSR2Q14M
p515
sg135
g515
sg136
I2
sa(dp516
g122
I80033203
sg123
S'-0%'
p517
sg125
S'Corporate - Gold'
p518
sg127
I223381
sg128
g129
sg130
S'Wed, 13 May 2015 03:36:09 UTC'
p519
sg132
g518
sg133
VMarkeCGOLD15BGenR2Q14R
p520
sg135
g520
sg136
I5
sa(dp521
g122
I80033203
sg123
S'-0%'
p522
sg125
g518
sg127
I223381
sg128
g139
sg130
S'Wed, 13 May 2015 03:36:09 UTC'
p523
sg132
g518
sg133
VMarkeCGOLD15BBoSR2Q14R
p524
sg135
g524
sg136
I2
sa(dp525
g122
I80133227
sg123
S'-0%'
p526
sg125
S'Academic - Silver'
p527
sg127
I223384
sg128
g139
sg130
S'Wed, 13 May 2015 03:38:00 UTC'
p528
sg132
g527
sg133
VNorthACASIL15BBoSR2Q19M
p529
sg135
g529
sg136
I3
sa(dp530
g122
I80133227
sg123
S'-0%'
p531
sg125
g527
sg127
I223384
sg128
g347
sg130
S'Wed, 13 May 2015 03:38:00 UTC'
p532
sg132
g527
sg133
VNorthACASIL15BStDc2Q19M
p533
sg135
g533
sg136
I1
sa(dp534
g122
I80133227
sg123
S'-0%'
p535
sg125
g527
sg127
I223384
sg128
g352
sg130
S'Wed, 13 May 2015 03:38:00 UTC'
p536
sg132
g527
sg133
VNorthACASIL15BFacR2Q19M
p537
sg135
g537
sg136
I2
sa(dp538
g122
I80144405
sg123
S'-0%'
p539
sg125
S'Corporate - Silver'
p540
sg127
I223382
sg128
g129
sg130
S'Wed, 13 May 2015 03:37:32 UTC'
p541
sg132
g540
sg133
VThumbCSIL15BGenR2Q189
p542
sg135
g542
sg136
I3
sa(dp543
g122
I80144405
sg123
S'-0%'
p544
sg125
g540
sg127
I223382
sg128
g139
sg130
S'Wed, 13 May 2015 03:37:32 UTC'
p545
sg132
g540
sg133
VThumbCSIL15BBoSR2Q189
p546
sg135
g546
sg136
I3
sa(dp547
g122
I80146318
sg123
S'-0%'
p548
sg125
S'Corporate - Gold'
p549
sg127
I223381
sg128
g129
sg130
S'Wed, 13 May 2015 03:36:11 UTC'
p550
sg132
g549
sg133
VTwittCGOLD15BGenR2Q14W
p551
sg135
g551
sg136
I5
sa(dp552
g122
I80146318
sg123
S'-0%'
p553
sg125
g549
sg127
I223381
sg128
g139
sg130
S'Wed, 13 May 2015 03:36:11 UTC'
p554
sg132
g549
sg133
VTwittCGOLD15BBoSR2Q14W
p555
sg135
g555
sg136
I2
sa(dp556
g122
I80166458
sg123
S'-0%'
p557
sg125
S'Corporate - Gold'
p558
sg127
I223381
sg128
g129
sg130
S'Wed, 13 May 2015 03:36:12 UTC'
p559
sg132
g558
sg133
VTripACGOLD15BGenR2Q14b
p560
sg135
g560
sg136
I5
sa(dp561
g122
I80166458
sg123
S'-0%'
p562
sg125
g558
sg127
I223381
sg128
g139
sg130
S'Wed, 13 May 2015 03:36:12 UTC'
p563
sg132
g558
sg133
VTripACGOLD15BBoSR2Q14b
p564
sg135
g564
sg136
I2
sa(dp565
g122
I80171568
sg123
S'-0%'
p566
sg125
S'Corporate - Silver'
p567
sg127
I223382
sg128
g129
sg130
S'Wed, 13 May 2015 03:37:34 UTC'
p568
sg132
g567
sg133
VAppirCSIL15BGenR2Q18E
p569
sg135
g569
sg136
I3
sa(dp570
g122
I80171568
sg123
S'-0%'
p571
sg125
g567
sg127
I223382
sg128
g139
sg130
S'Wed, 13 May 2015 03:37:34 UTC'
p572
sg132
g567
sg133
VAppirCSIL15BBoSR2Q18E
p573
sg135
g573
sg136
I3
sa(dp574
g122
I80173047
sg123
S'-0%'
p575
sg125
S'Corporate - Silver'
p576
sg127
I223382
sg128
g129
sg130
S'Wed, 13 May 2015 03:37:16 UTC'
p577
sg132
g576
sg133
VNorthCSIL15BGenR2Q17Q
p578
sg135
g578
sg136
I3
sa(dp579
g122
I80173047
sg123
S'-0%'
p580
sg125
g576
sg127
I223382
sg128
g139
sg130
S'Wed, 13 May 2015 03:37:16 UTC'
p581
sg132
g576
sg133
VNorthCSIL15BBoSR2Q17Q
p582
sg135
g582
sg136
I3
sa(dp583
g122
I80173980
sg123
S'-0%'
p584
sg125
S'Corporate - Silver'
p585
sg127
I223382
sg128
g129
sg130
S'Wed, 13 May 2015 03:37:17 UTC'
p586
sg132
g585
sg133
VOptimCSIL15BGenR2Q17V
p587
sg135
g587
sg136
I3
sa(dp588
g122
I80173980
sg123
S'-0%'
p589
sg125
g585
sg127
I223382
sg128
g139
sg130
S'Wed, 13 May 2015 03:37:17 UTC'
p590
sg132
g585
sg133
VOptimCSIL15BBoSR2Q17V
p591
sg135
g591
sg136
I3
sa(dp592
g122
I80219214
sg123
S'-0%'
p593
sg125
S'Corporate - Gold'
p594
sg127
I223381
sg128
g129
sg130
S'Wed, 13 May 2015 03:36:14 UTC'
p595
sg132
g594
sg133
VLiberCGOLD15BGenR2Q14g
p596
sg135
g596
sg136
I5
sa(dp597
g122
I80219214
sg123
S'-0%'
p598
sg125
g594
sg127
I223381
sg128
g139
sg130
S'Wed, 13 May 2015 03:36:14 UTC'
p599
sg132
g594
sg133
VLiberCGOLD15BBoSR2Q14g
p600
sg135
g600
sg136
I2
sa(dp601
g122
I80257688
sg123
S'-0%'
p602
sg125
S'Academic - Bronze'
p603
sg127
I223385
sg128
g352
sg130
S'Wed, 13 May 2015 03:38:09 UTC'
p604
sg132
g603
sg133
VUniveACABRZ15BFacR2Q19l
p605
sg135
g605
sg136
I1
sa(dp606
g122
I80257688
sg123
S'-0%'
p607
sg125
g603
sg127
I223385
sg128
g347
sg130
S'Wed, 13 May 2015 03:38:09 UTC'
p608
sg132
g603
sg133
VUniveACABRZ15BStDc2Q19l
p609
sg135
g609
sg136
I1
sa(dp610
g122
I80275681
sg123
S'-0%'
p611
sg125
S'Corporate - Gold'
p612
sg127
I223381
sg128
g129
sg130
S'Wed, 13 May 2015 03:36:16 UTC'
p613
sg132
g612
sg133
VMylanCGOLD15BGenR2Q14l
p614
sg135
g614
sg136
I5
sa(dp615
g122
I80275681
sg123
S'-0%'
p616
sg125
g612
sg127
I223381
sg128
g139
sg130
S'Wed, 13 May 2015 03:36:16 UTC'
p617
sg132
g612
sg133
VMylanCGOLD15BBoSR2Q14l
p618
sg135
g618
sg136
I2
sa(dp619
g122
I80282733
sg123
S'-0%'
p620
sg125
S'Corporate - Silver'
p621
sg127
I223382
sg128
g129
sg130
S'Wed, 13 May 2015 03:37:19 UTC'
p622
sg132
g621
sg133
VSamsuCSIL15BGenR2Q17a
p623
sg135
g623
sg136
I3
sa(dp624
g122
I80282733
sg123
S'-0%'
p625
sg125
g621
sg127
I223382
sg128
g139
sg130
S'Wed, 13 May 2015 03:37:19 UTC'
p626
sg132
g621
sg133
VSamsuCSIL15BBoSR2Q17a
p627
sg135
g627
sg136
I3
sa(dp628
g122
I80332293
sg123
S'-0%'
p629
sg125
S'Corporate - Gold'
p630
sg127
I223381
sg128
g129
sg130
S'Wed, 13 May 2015 03:35:59 UTC'
p631
sg132
g630
sg133
VZenPaCGOLD15BGenR2Q13x
p632
sg135
g632
sg136
I5
sa(dp633
g122
I80332293
sg123
S'-0%'
p634
sg125
g630
sg127
I223381
sg128
g139
sg130
S'Wed, 13 May 2015 03:35:59 UTC'
p635
sg132
g630
sg133
VZenPaCGOLD15BBoSR2Q13x
p636
sg135
g636
sg136
I2
sa(dp637
g122
I80376014
sg123
S'-0%'
p638
sg125
S'Corporate - Gold'
p639
sg127
I223381
sg128
g129
sg130
S'Wed, 13 May 2015 03:36:00 UTC'
p640
sg132
g639
sg133
VGroupCGOLD15BGenR2Q142
p641
sg135
g641
sg136
I5
sa(dp642
g122
I80376014
sg123
S'-0%'
p643
sg125
g639
sg127
I223381
sg128
g139
sg130
S'Wed, 13 May 2015 03:36:00 UTC'
p644
sg132
g639
sg133
VGroupCGOLD15BBoSR2Q142
p645
sg135
g645
sg136
I2
sa(dp646
g122
I80426701
sg123
S'-0%'
p647
sg125
S'Corporate - Gold'
p648
sg127
I223381
sg128
g129
sg130
S'Wed, 13 May 2015 03:36:02 UTC'
p649
sg132
g648
sg133
VBrainCGOLD15BGenR2Q147
p650
sg135
g650
sg136
I5
sa(dp651
g122
I80426701
sg123
S'-0%'
p652
sg125
g648
sg127
I223381
sg128
g139
sg130
S'Wed, 13 May 2015 03:36:02 UTC'
p653
sg132
g648
sg133
VBrainCGOLD15BBoSR2Q147
p654
sg135
g654
sg136
I2
sa(dp655
g122
I80458976
sg123
S'-0%'
p656
sg125
S'Corporate - Gold'
p657
sg127
I223381
sg128
g129
sg130
S'Wed, 13 May 2015 03:36:04 UTC'
p658
sg132
g657
sg133
VPwCCGOLD15BGenR2Q14C
p659
sg135
g659
sg136
I5
sa(dp660
g122
I80458976
sg123
S'-0%'
p661
sg125
g657
sg127
I223381
sg128
g139
sg130
S'Wed, 13 May 2015 03:36:04 UTC'
p662
sg132
g657
sg133
VPwCCGOLD15BBoSR2Q14C
p663
sg135
g663
sg136
I2
sa(dp664
g122
I80479404
sg123
S'-0%'
p665
sg125
S'Corporate - Silver'
p666
sg127
I223382
sg128
g129
sg130
S'Wed, 13 May 2015 03:37:20 UTC'
p667
sg132
g666
sg133
VSequoCSIL15BGenR2Q17f
p668
sg135
g668
sg136
I3
sa(dp669
g122
I80479404
sg123
S'-0%'
p670
sg125
g666
sg127
I223382
sg128
g139
sg130
S'Wed, 13 May 2015 03:37:20 UTC'
p671
sg132
g666
sg133
VSequoCSIL15BBoSR2Q17f
p672
sg135
g672
sg136
I3
sa(dp673
g122
I80535579
sg123
S'-0%'
p674
sg125
S'Corporate - Gold'
p675
sg127
I223381
sg128
g129
sg130
S'Wed, 13 May 2015 03:36:05 UTC'
p676
sg132
g675
sg133
VDeutsCGOLD15BGenR2Q14H
p677
sg135
g677
sg136
I5
sa(dp678
g122
I80535579
sg123
S'-0%'
p679
sg125
g675
sg127
I223381
sg128
g139
sg130
S'Wed, 13 May 2015 03:36:05 UTC'
p680
sg132
g675
sg133
VDeutsCGOLD15BBoSR2Q14H
p681
sg135
g681
sg136
I2
sa(dp682
g122
I80541412
sg123
S'-0%'
p683
sg125
S'Corporate - Silver'
p684
sg127
I223382
sg128
g129
sg130
S'Wed, 13 May 2015 03:37:22 UTC'
p685
sg132
g684
sg133
VDeloiCSIL15BGenR2Q151
p686
sg135
g686
sg136
I3
sa(dp687
g122
I80541412
sg123
S'-0%'
p688
sg125
g684
sg127
I223382
sg128
g139
sg130
S'Wed, 13 May 2015 03:37:22 UTC'
p689
sg132
g684
sg133
VDeloiCSIL15BBoSR2Q151
p690
sg135
g690
sg136
I3
sa(dp691
g122
I80544565
sg123
S'-0%'
p692
sg125
S'Corporate - Silver'
p693
sg127
I223382
sg128
g129
sg130
S'Wed, 13 May 2015 03:37:23 UTC'
p694
sg132
g693
sg133
VSpiceCSIL15BGenR2Q17k
p695
sg135
g695
sg136
I3
sa(dp696
g122
I80544565
sg123
S'-0%'
p697
sg125
g693
sg127
I223382
sg128
g139
sg130
S'Wed, 13 May 2015 03:37:23 UTC'
p698
sg132
g693
sg133
VSpiceCSIL15BBoSR2Q17k
p699
sg135
g699
sg136
I3
sa(dp700
g122
I80601987
sg123
S'-0%'
p701
sg125
S'Corporate - Silver'
p702
sg127
I223382
sg128
g129
sg130
S'Wed, 13 May 2015 03:37:06 UTC'
p703
sg132
g702
sg133
VFlatiCSIL15BGenR2Q176
p704
sg135
g704
sg136
I3
sa(dp705
g122
I80601987
sg123
S'-0%'
p706
sg125
g702
sg127
I223382
sg128
g139
sg130
S'Wed, 13 May 2015 03:37:06 UTC'
p707
sg132
g702
sg133
VFlatiCSIL15BBoSR2Q176
p708
sg135
g708
sg136
I3
sa(dp709
g122
I80605148
sg123
S'-0%'
p710
sg125
S'Academic - Gold'
p711
sg127
I223383
sg128
g139
sg130
S'Wed, 13 May 2015 03:37:45 UTC'
p712
sg132
g711
sg133
VPurduACAGOLD15BBoSR2Q18d
p713
sg135
g713
sg136
I2
sa(dp714
g122
I80605148
sg123
S'-0%'
p715
sg125
g711
sg127
I223383
sg128
g347
sg130
S'Wed, 13 May 2015 03:37:45 UTC'
p716
sg132
g711
sg133
VPurduACAGOLD15BStDc2Q18d
p717
sg135
g717
sg136
I1
sa(dp718
g122
I80605148
sg123
S'-0%'
p719
sg125
g711
sg127
I223383
sg128
g352
sg130
S'Wed, 13 May 2015 03:37:45 UTC'
p720
sg132
g711
sg133
VPurduACAGOLD15BFacR2Q18d
p721
sg135
g721
sg136
I3
sa(dp722
g122
I80614404
sg123
S'-0%'
p723
sg125
S'Lab & Non-Profit - Gold'
p724
sg127
I226851
sg128
g129
sg130
S'Wed, 13 May 2015 03:38:26 UTC'
p725
sg132
g724
sg133
VDigniL&NGOLD15BGenR2Q1AZ
p726
sg135
g726
sg136
I3
sa(dp727
g122
I80617786
sg123
S'-0%'
p728
sg125
S'Corporate - Silver'
p729
sg127
I223382
sg128
g129
sg130
S'Wed, 13 May 2015 03:37:07 UTC'
p730
sg132
g729
sg133
VUberCSIL15BGenR2Q17B
p731
sg135
g731
sg136
I3
sa(dp732
g122
I80617786
sg123
S'-0%'
p733
sg125
g729
sg127
I223382
sg128
g139
sg130
S'Wed, 13 May 2015 03:37:07 UTC'
p734
sg132
g729
sg133
VUberCSIL15BBoSR2Q17B
p735
sg135
g735
sg136
I3
sa(dp736
g122
I80649549
sg123
S'-0%'
p737
sg125
S'Corporate - Silver'
p738
sg127
I223382
sg128
g129
sg130
S'Wed, 13 May 2015 03:37:09 UTC'
p739
sg132
g738
sg133
VOpenTCSIL15BGenR2Q16s
p740
sg135
g740
sg136
I3
sa(dp741
g122
I80649549
sg123
S'-0%'
p742
sg125
g738
sg127
I223382
sg128
g139
sg130
S'Wed, 13 May 2015 03:37:09 UTC'
p743
sg132
g738
sg133
VOpenTCSIL15BBoSR2Q16s
p744
sg135
g744
sg136
I3
sa(dp745
g122
I80660768
sg123
S'-0%'
p746
sg125
S'Corporate - Silver'
p747
sg127
I223382
sg128
g129
sg130
S'Wed, 13 May 2015 03:37:11 UTC'
p748
sg132
g747
sg133
VHuluCSIL15BGenR2Q17G
p749
sg135
g749
sg136
I3
sa(dp750
g122
I80660768
sg123
S'-0%'
p751
sg125
g747
sg127
I223382
sg128
g139
sg130
S'Wed, 13 May 2015 03:37:11 UTC'
p752
sg132
g747
sg133
VHuluCSIL15BBoSR2Q17G
p753
sg135
g753
sg136
I3
sa(dp754
g122
I80666758
sg123
S'-0%'
p755
sg125
S'Corporate - Silver'
p756
sg127
I223382
sg128
g129
sg130
S'Wed, 13 May 2015 03:37:13 UTC'
p757
sg132
g756
sg133
VBrocaCSIL15BGenR2Q17L
p758
sg135
g758
sg136
I3
sa(dp759
g122
I80666758
sg123
S'-0%'
p760
sg125
g756
sg127
I223382
sg128
g139
sg130
S'Wed, 13 May 2015 03:37:13 UTC'
p761
sg132
g756
sg133
VBrocaCSIL15BBoSR2Q17L
p762
sg135
g762
sg136
I3
sa(dp763
g122
I80692237
sg123
S'-0%'
p764
sg125
S'Academic - Bronze'
p765
sg127
I223385
sg128
g352
sg130
S'Wed, 13 May 2015 03:38:10 UTC'
p766
sg132
g765
sg133
VBrownACABRZ15BFacR2Q19q
p767
sg135
g767
sg136
I1
sa(dp768
g122
I80692237
sg123
S'-0%'
p769
sg125
g765
sg127
I223385
sg128
g347
sg130
S'Wed, 13 May 2015 03:38:10 UTC'
p770
sg132
g765
sg133
VBrownACABRZ15BStDc2Q19q
p771
sg135
g771
sg136
I1
sa(dp772
g122
I80705093
sg123
S'-0%'
p773
sg125
S'Academic - Silver'
p774
sg127
I223384
sg128
g139
sg130
S'Wed, 13 May 2015 03:38:02 UTC'
p775
sg132
g774
sg133
VMITACASIL15BBoSR2Q19R
p776
sg135
g776
sg136
I3
sa(dp777
g122
I80705093
sg123
S'-0%'
p778
sg125
g774
sg127
I223384
sg128
g347
sg130
S'Wed, 13 May 2015 03:38:02 UTC'
p779
sg132
g774
sg133
VMITACASIL15BStDc2Q19R
p780
sg135
g780
sg136
I1
sa(dp781
g122
I80705093
sg123
S'-0%'
p782
sg125
g774
sg127
I223384
sg128
g352
sg130
S'Wed, 13 May 2015 03:38:02 UTC'
p783
sg132
g774
sg133
VMITACASIL15BFacR2Q19R
p784
sg135
g784
sg136
I2
sa(dp785
g122
I80710866
sg123
S'-0%'
p786
sg125
S'Corporate - Gold'
p787
sg127
I223381
sg128
g129
sg130
S'Wed, 13 May 2015 03:35:48 UTC'
p788
sg132
g787
sg133
VAtlasCGOLD15BGenR2Q13J
p789
sg135
g789
sg136
I5
sa(dp790
g122
I80710866
sg123
S'-0%'
p791
sg125
g787
sg127
I223381
sg128
g139
sg130
S'Wed, 13 May 2015 03:35:48 UTC'
p792
sg132
g787
sg133
VAtlasCGOLD15BBoSR2Q13J
p793
sg135
g793
sg136
I2
sa(dp794
g122
I80715877
sg123
S'-0%'
p795
sg125
S'Academic - Bronze'
p796
sg127
I223385
sg128
g352
sg130
S'Wed, 13 May 2015 03:38:12 UTC'
p797
sg132
g796
sg133
VUniveACABRZ15BFacR2Q19v
p798
sg135
g798
sg136
I1
sa(dp799
g122
I80715877
sg123
S'-0%'
p800
sg125
g796
sg127
I223385
sg128
g347
sg130
S'Wed, 13 May 2015 03:38:12 UTC'
p801
sg132
g796
sg133
VUniveACABRZ15BStDc2Q19v
p802
sg135
g802
sg136
I1
sa(dp803
g122
I80722918
sg123
S'-0%'
p804
sg125
S'Academic - Silver'
p805
sg127
I223384
sg128
g139
sg130
S'Wed, 13 May 2015 03:37:54 UTC'
p806
sg132
g805
sg133
VCalteACASIL15BBoSR2Q192
p807
sg135
g807
sg136
I3
sa(dp808
g122
I80722918
sg123
S'-0%'
p809
sg125
g805
sg127
I223384
sg128
g347
sg130
S'Wed, 13 May 2015 03:37:54 UTC'
p810
sg132
g805
sg133
VCalteACASIL15BStDc2Q192
p811
sg135
g811
sg136
I1
sa(dp812
g122
I80722918
sg123
S'-0%'
p813
sg125
g805
sg127
I223384
sg128
g352
sg130
S'Wed, 13 May 2015 03:37:54 UTC'
p814
sg132
g805
sg133
VCalteACASIL15BFacR2Q192
p815
sg135
g815
sg136
I2
sa(dp816
g122
I80723273
sg123
S'-0%'
p817
sg125
S'Corporate - Gold'
p818
sg127
I223381
sg128
g333
sg130
S'Wed, 13 May 2015 03:35:49 UTC'
p819
sg132
g818
sg133
VPrude152Q13O
p820
sg135
g820
sg136
I1
sa(dp821
g122
I80723273
sg123
S'-0%'
p822
sg125
g818
sg127
I223381
sg128
g129
sg130
S'Wed, 13 May 2015 03:35:49 UTC'
p823
sg132
g818
sg133
VPrudeCGOLD15BGenR2Q13O
p824
sg135
g824
sg136
I5
sa(dp825
g122
I80723273
sg123
S'-0%'
p826
sg125
g818
sg127
I223381
sg128
g139
sg130
S'Wed, 13 May 2015 03:35:49 UTC'
p827
sg132
g818
sg133
VPrudeCGOLD15BBoSR2Q13O
p828
sg135
g828
sg136
I2
sa(dp829
g122
I80724512
sg123
S'-0%'
p830
sg125
S'GHC Event Sponsorships and Enterprise Packages'
p831
sg127
I227146
sg128
g333
sg130
S'Wed, 13 May 2015 03:38:33 UTC'
p832
sg132
g831
sg133
VLockh152Q1Ao
p833
sg135
g833
sg136
I1
sa(dp834
g122
I80725493
sg123
S'-0%'
p835
sg125
S'Academic - Gold'
p836
sg127
I223383
sg128
g139
sg130
S'Wed, 13 May 2015 03:37:50 UTC'
p837
sg132
g836
sg133
VHarveACAGOLD15BBoSR2Q18o
p838
sg135
g838
sg136
I2
sa(dp839
g122
I80725493
sg123
S'-0%'
p840
sg125
g836
sg127
I223383
sg128
g347
sg130
S'Wed, 13 May 2015 03:37:50 UTC'
p841
sg132
g836
sg133
VHarveACAGOLD15BStDc2Q18o
p842
sg135
g842
sg136
I1
sa(dp843
g122
I80725493
sg123
S'-0%'
p844
sg125
g836
sg127
I223383
sg128
g352
sg130
S'Wed, 13 May 2015 03:37:50 UTC'
p845
sg132
g836
sg133
VHarveACAGOLD15BFacR2Q18o
p846
sg135
g846
sg136
I3
sa(dp847
g122
I80751863
sg123
S'-0%'
p848
sg125
S'Corporate - Gold'
p849
sg127
I223381
sg128
g129
sg130
S'Wed, 13 May 2015 03:35:51 UTC'
p850
sg132
g849
sg133
VAutodCGOLD15BGenR2Q13T
p851
sg135
g851
sg136
I5
sa(dp852
g122
I80751863
sg123
S'-0%'
p853
sg125
g849
sg127
I223381
sg128
g139
sg130
S'Wed, 13 May 2015 03:35:51 UTC'
p854
sg132
g849
sg133
VAutodCGOLD15BBoSR2Q13T
p855
sg135
g855
sg136
I2
sa(dp856
g122
I80757386
sg123
S'-0%'
p857
sg125
S'ABI Partners Only - Platinum'
p858
sg127
I223380
sg128
g129
sg130
S'Wed, 13 May 2015 03:35:08 UTC'
p859
sg132
g858
sg133
VIntuiPLAT15BGenR2Q11c
p860
sg135
g860
sg136
I10
sa(dp861
g122
I80757386
sg123
S'-0%'
p862
sg125
g858
sg127
I223380
sg128
g139
sg130
S'Wed, 13 May 2015 03:35:08 UTC'
p863
sg132
g858
sg133
VIntuiPLAT15BBoSR2Q11c
p864
sg135
g864
sg136
I8
sa(dp865
g122
I80757386
sg123
S'-0%'
p866
sg125
g858
sg127
I223380
sg128
g129
sg130
S'Wed, 13 May 2015 03:35:08 UTC'
p867
sg132
g858
sg133
VIntui1510DGenR2Q11c
p868
sg135
g868
sg136
I200
sa(dp869
g122
I80766185
sg123
S'-0%'
p870
sg125
S'ABI Partners Only - Platinum'
p871
sg127
I223380
sg128
g129
sg130
S'Wed, 13 May 2015 03:35:09 UTC'
p872
sg132
g871
sg133
VEricsPLAT15BGenR2Q11h
p873
sg135
g873
sg136
I10
sa(dp874
g122
I80766185
sg123
S'-0%'
p875
sg125
g871
sg127
I223380
sg128
g139
sg130
S'Wed, 13 May 2015 03:35:09 UTC'
p876
sg132
g871
sg133
VEricsPLAT15BBoSR2Q11h
p877
sg135
g877
sg136
I8
sa(dp878
g122
I80766185
sg123
S'-0%'
p879
sg125
g871
sg127
I223380
sg128
g129
sg130
S'Wed, 13 May 2015 03:35:09 UTC'
p880
sg132
g871
sg133
VErics1510DGenR2Q11h
p881
sg135
g881
sg136
I50
sa(dp882
g122
I80837474
sg123
S'-0%'
p883
sg125
S'Academic - Silver'
p884
sg127
I223384
sg128
g139
sg130
S'Wed, 13 May 2015 03:38:03 UTC'
p885
sg132
g884
sg133
VIU-ScACASIL15BBoSR2Q19W
p886
sg135
g886
sg136
I3
sa(dp887
g122
I80837474
sg123
S'-0%'
p888
sg125
g884
sg127
I223384
sg128
g347
sg130
S'Wed, 13 May 2015 03:38:03 UTC'
p889
sg132
g884
sg133
VIU-ScACASIL15BStDc2Q19W
p890
sg135
g890
sg136
I1
sa(dp891
g122
I80837474
sg123
S'-0%'
p892
sg125
g884
sg127
I223384
sg128
g352
sg130
S'Wed, 13 May 2015 03:38:03 UTC'
p893
sg132
g884
sg133
VIU-ScACASIL15BFacR2Q19W
p894
sg135
g894
sg136
I2
sa(dp895
g122
I80843521
sg123
S'-0%'
p896
sg125
S'Corporate - Silver'
p897
sg127
I223382
sg128
g129
sg130
S'Wed, 13 May 2015 03:37:14 UTC'
p898
sg132
g897
sg133
VOpoweCSIL15BGenR2Q14D
p899
sg135
g899
sg136
I3
sa(dp900
g122
I80843521
sg123
S'-0%'
p901
sg125
g897
sg127
I223382
sg128
g139
sg130
S'Wed, 13 May 2015 03:37:14 UTC'
p902
sg132
g897
sg133
VOpoweCSIL15BBoSR2Q14D
p903
sg135
g903
sg136
I3
sa(dp904
g122
I80907398
sg123
S'-0%'
p905
sg125
S'Academic - Bronze'
p906
sg127
I223385
sg128
g352
sg130
S'Wed, 13 May 2015 03:38:15 UTC'
p907
sg132
g906
sg133
VRocheACABRZ15BFacR2Q1A0
p908
sg135
g908
sg136
I1
sa(dp909
g122
I80907398
sg123
S'-0%'
p910
sg125
g906
sg127
I223385
sg128
g347
sg130
S'Wed, 13 May 2015 03:38:15 UTC'
p911
sg132
g906
sg133
VRocheACABRZ15BStDc2Q1A0
p912
sg135
g912
sg136
I1
sa(dp913
g122
I80951114
sg123
S'-0%'
p914
sg125
S'Corporate - Silver'
p915
sg127
I223382
sg128
g129
sg130
S'Wed, 13 May 2015 03:36:56 UTC'
p916
sg132
g915
sg133
VCimprCSIL15BGenR2Q16c
p917
sg135
g917
sg136
I3
sa(dp918
g122
I80951114
sg123
S'-0%'
p919
sg125
g915
sg127
I223382
sg128
g139
sg130
S'Wed, 13 May 2015 03:36:56 UTC'
p920
sg132
g915
sg133
VCimprCSIL15BBoSR2Q16c
p921
sg135
g921
sg136
I3
sa(dp922
g122
I80965581
sg123
S'-0%'
p923
sg125
S'Corporate - Silver'
p924
sg127
I223382
sg128
g129
sg130
S'Wed, 13 May 2015 03:36:57 UTC'
p925
sg132
g924
sg133
VStripCSIL15BGenR2Q16h
p926
sg135
g926
sg136
I3
sa(dp927
g122
I80965581
sg123
S'-0%'
p928
sg125
g924
sg127
I223382
sg128
g139
sg130
S'Wed, 13 May 2015 03:36:57 UTC'
p929
sg132
g924
sg133
VStripCSIL15BBoSR2Q16h
p930
sg135
g930
sg136
I3
sa(dp931
g122
I81051813
sg123
S'-0%'
p932
sg125
S'ABI Partners Only - Platinum'
p933
sg127
I223380
sg128
g129
sg130
S'Wed, 13 May 2015 03:35:11 UTC'
p934
sg132
g933
sg133
VYahooPLAT15BGenR2Q11T
p935
sg135
g935
sg136
I10
sa(dp936
g122
I81051813
sg123
S'-0%'
p937
sg125
g933
sg127
I223380
sg128
g139
sg130
S'Wed, 13 May 2015 03:35:11 UTC'
p938
sg132
g933
sg133
VYahooPLAT15BBoSR2Q11T
p939
sg135
g939
sg136
I8
sa(dp940
g122
I81051813
sg123
S'-0%'
p941
sg125
g933
sg127
I223380
sg128
g129
sg130
S'Wed, 13 May 2015 03:35:11 UTC'
p942
sg132
g933
sg133
VYahoo1510DGenR2Q11T
p943
sg135
g943
sg136
I130
sa(dp944
g122
I81153506
sg123
S'-0%'
p945
sg125
S'Corporate - Silver'
p946
sg127
I223382
sg128
g129
sg130
S'Wed, 13 May 2015 03:36:59 UTC'
p947
sg132
g946
sg133
VLivinCSIL15BGenR2Q16m
p948
sg135
g948
sg136
I3
sa(dp949
g122
I81153506
sg123
S'-0%'
p950
sg125
g946
sg127
I223382
sg128
g139
sg130
S'Wed, 13 May 2015 03:36:59 UTC'
p951
sg132
g946
sg133
VLivinCSIL15BBoSR2Q16m
p952
sg135
g952
sg136
I3
sa(dp953
g122
I81203930
sg123
S'-0%'
p954
sg125
S'Academic - Gold'
p955
sg127
I223383
sg128
g139
sg130
S'Wed, 13 May 2015 03:37:46 UTC'
p956
sg132
g955
sg133
VMontaACAGOLD15BBoSR2Q18i
p957
sg135
g957
sg136
I2
sa(dp958
g122
I81203930
sg123
S'-0%'
p959
sg125
g955
sg127
I223383
sg128
g347
sg130
S'Wed, 13 May 2015 03:37:46 UTC'
p960
sg132
g955
sg133
VMontaACAGOLD15BStDc2Q18i
p961
sg135
g961
sg136
I1
sa(dp962
g122
I81203930
sg123
S'-0%'
p963
sg125
g955
sg127
I223383
sg128
g352
sg130
S'Wed, 13 May 2015 03:37:46 UTC'
p964
sg132
g955
sg133
VMontaACAGOLD15BFacR2Q18i
p965
sg135
g965
sg136
I3
sa(dp966
g122
I81211137
sg123
S'-0%'
p967
sg125
S'GHC Event Sponsorships and Enterprise Packages'
p968
sg127
I227146
sg128
g333
sg130
S'Wed, 13 May 2015 03:38:34 UTC'
p969
sg132
g968
sg133
VAccen15SWLnch2Q1At
p970
sg135
g970
sg136
I1
sa(dp971
g122
I81211467
sg123
S'-0%'
p972
sg125
S'Corporate - Gold'
p973
sg127
I223381
sg128
g129
sg130
S'Wed, 13 May 2015 03:35:52 UTC'
p974
sg132
g973
sg133
VFactSCGOLD15BGenR2Q13d
p975
sg135
g975
sg136
I5
sa(dp976
g122
I81211467
sg123
S'-0%'
p977
sg125
g973
sg127
I223381
sg128
g139
sg130
S'Wed, 13 May 2015 03:35:53 UTC'
p978
sg132
g973
sg133
VFactSCGOLD15BBoSR2Q13d
p979
sg135
g979
sg136
I2
sa(dp980
g122
I81219018
sg123
S'-0%'
p981
sg125
S'Corporate - Silver'
p982
sg127
I223382
sg128
g129
sg130
S'Wed, 13 May 2015 03:37:00 UTC'
p983
sg132
g982
sg133
VTableCSIL15BGenR2Q16r
p984
sg135
g984
sg136
I3
sa(dp985
g122
I81219018
sg123
S'-0%'
p986
sg125
g982
sg127
I223382
sg128
g139
sg130
S'Wed, 13 May 2015 03:37:00 UTC'
p987
sg132
g982
sg133
VTableCSIL15BBoSR2Q16r
p988
sg135
g988
sg136
I3
sa(dp989
g122
I81269116
sg123
S'-0%'
p990
sg125
S'Corporate - Gold'
p991
sg127
I223381
sg128
g129
sg130
S'Wed, 13 May 2015 03:35:54 UTC'
p992
sg132
g991
sg133
VQuoraCGOLD15BGenR2Q13i
p993
sg135
g993
sg136
I5
sa(dp994
g122
I81269116
sg123
S'-0%'
p995
sg125
g991
sg127
I223381
sg128
g139
sg130
S'Wed, 13 May 2015 03:35:54 UTC'
p996
sg132
g991
sg133
VQuoraCGOLD15BBoSR2Q13i
p997
sg135
g997
sg136
I2
sa(dp998
g122
I81277663
sg123
S'-0%'
p999
sg125
S'GHC Event Sponsorships and Enterprise Packages'
p1000
sg127
I227146
sg128
g333
sg130
S'Wed, 13 May 2015 03:38:36 UTC'
p1001
sg132
g1000
sg133
VRMS152Q1Ay
p1002
sg135
g1002
sg136
I1
sa(dp1003
g122
I81294822
sg123
S'-0%'
p1004
sg125
S'Corporate - Silver'
p1005
sg127
I223382
sg128
g129
sg130
S'Wed, 13 May 2015 03:36:46 UTC'
p1006
sg132
g1005
sg133
VNatioCSIL15BGenR2Q168
p1007
sg135
g1007
sg136
I3
sa(dp1008
g122
I81294822
sg123
S'-0%'
p1009
sg125
g1005
sg127
I223382
sg128
g139
sg130
S'Wed, 13 May 2015 03:36:46 UTC'
p1010
sg132
g1005
sg133
VNatioCSIL15BBoSR2Q168
p1011
sg135
g1011
sg136
I3
sa(dp1012
g122
I81295016
sg123
S'-0%'
p1013
sg125
S'Corporate - Silver'
p1014
sg127
I223382
sg128
g129
sg130
S'Wed, 13 May 2015 03:36:48 UTC'
p1015
sg132
g1014
sg133
VNatioCSIL15BGenR2Q16D
p1016
sg135
g1016
sg136
I3
sa(dp1017
g122
I81295016
sg123
S'-0%'
p1018
sg125
g1014
sg127
I223382
sg128
g139
sg130
S'Wed, 13 May 2015 03:36:48 UTC'
p1019
sg132
g1014
sg133
VNatioCSIL15BBoSR2Q16D
p1020
sg135
g1020
sg136
I3
sa(dp1021
g122
I81303320
sg123
S'-0%'
p1022
sg125
S'Corporate - Silver'
p1023
sg127
I223382
sg128
g129
sg130
S'Wed, 13 May 2015 03:37:02 UTC'
p1024
sg132
g1023
sg133
VCerneCSIL15BGenR2Q16w
p1025
sg135
g1025
sg136
I3
sa(dp1026
g122
I81303320
sg123
S'-0%'
p1027
sg125
g1023
sg127
I223382
sg128
g139
sg130
S'Wed, 13 May 2015 03:37:02 UTC'
p1028
sg132
g1023
sg133
VCerneCSIL15BBoSR2Q16w
p1029
sg135
g1029
sg136
I3
sa(dp1030
g122
I81315890
sg123
S'-0%'
p1031
sg125
S'Corporate - Gold'
p1032
sg127
I223381
sg128
g129
sg130
S'Wed, 13 May 2015 03:35:55 UTC'
p1033
sg132
g1032
sg133
VTargeCGOLD15BGenR2Q13n
p1034
sg135
g1034
sg136
I5
sa(dp1035
g122
I81315890
sg123
S'-0%'
p1036
sg125
g1032
sg127
I223381
sg128
g139
sg130
S'Wed, 13 May 2015 03:35:55 UTC'
p1037
sg132
g1032
sg133
VTargeCGOLD15BBoSR2Q13n
p1038
sg135
g1038
sg136
I2
sa(dp1039
g122
I81322044
sg123
S'-0%'
p1040
sg125
S'Lab & Non-Profit - Silver'
p1041
sg127
I226852
sg128
g129
sg130
S'Wed, 13 May 2015 03:38:28 UTC'
p1042
sg132
g1041
sg133
VFreeBL&NSIL15BGenR2Q1Ae
p1043
sg135
g1043
sg136
I2
sa(dp1044
g122
I81332136
sg123
S'-0%'
p1045
sg125
S'Corporate - Silver'
p1046
sg127
I223382
sg128
g129
sg130
S'Wed, 13 May 2015 03:37:04 UTC'
p1047
sg132
g1046
sg133
VNVIDICSIL15BGenR2Q171
p1048
sg135
g1048
sg136
I3
sa(dp1049
g122
I81332136
sg123
S'-0%'
p1050
sg125
g1046
sg127
I223382
sg128
g139
sg130
S'Wed, 13 May 2015 03:37:04 UTC'
p1051
sg132
g1046
sg133
VNVIDICSIL15BBoSR2Q171
p1052
sg135
g1052
sg136
I3
sa(dp1053
g122
I81365703
sg123
S'-0%'
p1054
sg125
S'ABI Partners Only - Platinum'
p1055
sg127
I223380
sg128
g129
sg130
S'Wed, 13 May 2015 03:35:13 UTC'
p1056
sg132
g1055
sg133
VTwo SPLAT15BGenR2Q11m
p1057
sg135
g1057
sg136
I10
sa(dp1058
g122
I81365703
sg123
S'-0%'
p1059
sg125
g1055
sg127
I223380
sg128
g139
sg130
S'Wed, 13 May 2015 03:35:13 UTC'
p1060
sg132
g1055
sg133
VTwo SPLAT15BBoSR2Q11m
p1061
sg135
g1061
sg136
I8
sa(dp1062
g122
I81367464
sg123
S'-0%'
p1063
sg125
S'Academic - Bronze'
p1064
sg127
I223385
sg128
g352
sg130
S'Wed, 13 May 2015 03:38:16 UTC'
p1065
sg132
g1064
sg133
VIowa ACABRZ15BFacR2Q1A5
p1066
sg135
g1066
sg136
I1
sa(dp1067
g122
I81367464
sg123
S'-0%'
p1068
sg125
g1064
sg127
I223385
sg128
g347
sg130
S'Wed, 13 May 2015 03:38:16 UTC'
p1069
sg132
g1064
sg133
VIowa ACABRZ15BStDc2Q1A5
p1070
sg135
g1070
sg136
I1
sa(dp1071
g122
I81398086
sg123
S'-0%'
p1072
sg125
S'Corporate - Silver'
p1073
sg127
I223382
sg128
g129
sg130
S'Wed, 13 May 2015 03:36:49 UTC'
p1074
sg132
g1073
sg133
VBlackCSIL15BGenR2Q16I
p1075
sg135
g1075
sg136
I3
sa(dp1076
g122
I81398086
sg123
S'-0%'
p1077
sg125
g1073
sg127
I223382
sg128
g139
sg130
S'Wed, 13 May 2015 03:36:49 UTC'
p1078
sg132
g1073
sg133
VBlackCSIL15BBoSR2Q16I
p1079
sg135
g1079
sg136
I3
sa(dp1080
g122
I81432405
sg123
S'-0%'
p1081
sg125
S'ABI Partners Only - Platinum'
p1082
sg127
I223380
sg128
g129
sg130
S'Wed, 13 May 2015 03:35:16 UTC'
p1083
sg132
g1082
sg133
VTHOUGPLAT15BGenR2Q11w
p1084
sg135
g1084
sg136
I10
sa(dp1085
g122
I81432405
sg123
S'-0%'
p1086
sg125
g1082
sg127
I223380
sg128
g139
sg130
S'Wed, 13 May 2015 03:35:16 UTC'
p1087
sg132
g1082
sg133
VTHOUGPLAT15BBoSR2Q11w
p1088
sg135
g1088
sg136
I8
sa(dp1089
g122
I81432405
sg123
S'-0%'
p1090
sg125
g1082
sg127
I223380
sg128
g129
sg130
S'Wed, 13 May 2015 03:35:16 UTC'
p1091
sg132
g1082
sg133
VTHOUG1510DGenR2Q11w
p1092
sg135
g1092
sg136
I30
sa(dp1093
g122
I81440743
sg123
S'-0%'
p1094
sg125
S'Academic - Gold'
p1095
sg127
I223383
sg128
g139
sg130
S'Wed, 13 May 2015 03:37:52 UTC'
p1096
sg132
g1095
sg133
VUSCACAGOLD15BBoSR2Q18x
p1097
sg135
g1097
sg136
I2
sa(dp1098
g122
I81440743
sg123
S'-0%'
p1099
sg125
g1095
sg127
I223383
sg128
g347
sg130
S'Wed, 13 May 2015 03:37:52 UTC'
p1100
sg132
g1095
sg133
VUSCACAGOLD15BStDc2Q18x
p1101
sg135
g1101
sg136
I1
sa(dp1102
g122
I81440743
sg123
S'-0%'
p1103
sg125
g1095
sg127
I223383
sg128
g352
sg130
S'Wed, 13 May 2015 03:37:52 UTC'
p1104
sg132
g1095
sg133
VUSCACAGOLD15BFacR2Q18x
p1105
sg135
g1105
sg136
I3
sa(dp1106
g122
I81447714
sg123
S'-0%'
p1107
sg125
S'Corporate - Gold'
p1108
sg127
I223381
sg128
g129
sg130
S'Wed, 13 May 2015 03:35:38 UTC'
p1109
sg132
g1108
sg133
VThe WCGOLD15BGenR2Q12u
p1110
sg135
g1110
sg136
I5
sa(dp1111
g122
I81447714
sg123
S'-0%'
p1112
sg125
g1108
sg127
I223381
sg128
g139
sg130
S'Wed, 13 May 2015 03:35:38 UTC'
p1113
sg132
g1108
sg133
VThe WCGOLD15BBoSR2Q12u
p1114
sg135
g1114
sg136
I2
sa(dp1115
g122
I81481281
sg123
S'-0%'
p1116
sg125
S'Corporate - Silver'
p1117
sg127
I223382
sg128
g129
sg130
S'Wed, 13 May 2015 03:36:51 UTC'
p1118
sg132
g1117
sg133
VLGS ICSIL15BGenR2Q16N
p1119
sg135
g1119
sg136
I3
sa(dp1120
g122
I81481281
sg123
S'-0%'
p1121
sg125
g1117
sg127
I223382
sg128
g139
sg130
S'Wed, 13 May 2015 03:36:51 UTC'
p1122
sg132
g1117
sg133
VLGS ICSIL15BBoSR2Q16N
p1123
sg135
g1123
sg136
I3
sa(dp1124
g122
I81484417
sg123
S'-0%'
p1125
sg125
S'Corporate - Gold'
p1126
sg127
I223381
sg128
g129
sg130
S'Wed, 13 May 2015 03:35:40 UTC'
p1127
sg132
g1126
sg133
VIBMCGOLD15BGenR2Q12z
p1128
sg135
g1128
sg136
I5
sa(dp1129
g122
I81484417
sg123
S'-0%'
p1130
sg125
g1126
sg127
I223381
sg128
g139
sg130
S'Wed, 13 May 2015 03:35:40 UTC'
p1131
sg132
g1126
sg133
VIBMCGOLD15BBoSR2Q12z
p1132
sg135
g1132
sg136
I2
sa(dp1133
g122
I81526681
sg123
S'-0%'
p1134
sg125
S'Academic - Gold'
p1135
sg127
I223383
sg128
g139
sg130
S'Wed, 13 May 2015 03:37:47 UTC'
p1136
sg132
g1135
sg133
VNew YACAGOLD15BBoSR2Q18n
p1137
sg135
g1137
sg136
I2
sa(dp1138
g122
I81526681
sg123
S'-0%'
p1139
sg125
g1135
sg127
I223383
sg128
g347
sg130
S'Wed, 13 May 2015 03:37:47 UTC'
p1140
sg132
g1135
sg133
VNew YACAGOLD15BStDc2Q18n
p1141
sg135
g1141
sg136
I1
sa(dp1142
g122
I81526681
sg123
S'-0%'
p1143
sg125
g1135
sg127
I223383
sg128
g352
sg130
S'Wed, 13 May 2015 03:37:47 UTC'
p1144
sg132
g1135
sg133
VNew YACAGOLD15BFacR2Q18n
p1145
sg135
g1145
sg136
I3
sa(dp1146
g122
I81526695
sg123
S'-0%'
p1147
sg125
S'Academic - Silver'
p1148
sg127
I223384
sg128
g139
sg130
S'Wed, 13 May 2015 03:38:05 UTC'
p1149
sg132
g1148
sg133
VColumACASIL15BBoSR2Q19b
p1150
sg135
g1150
sg136
I3
sa(dp1151
g122
I81526695
sg123
S'-0%'
p1152
sg125
g1148
sg127
I223384
sg128
g347
sg130
S'Wed, 13 May 2015 03:38:05 UTC'
p1153
sg132
g1148
sg133
VColumACASIL15BStDc2Q19b
p1154
sg135
g1154
sg136
I1
sa(dp1155
g122
I81526695
sg123
S'-0%'
p1156
sg125
g1148
sg127
I223384
sg128
g352
sg130
S'Wed, 13 May 2015 03:38:05 UTC'
p1157
sg132
g1148
sg133
VColumACASIL15BFacR2Q19b
p1158
sg135
g1158
sg136
I2
sa(dp1159
g122
I81532271
sg123
S'-0%'
p1160
sg125
S'Corporate - Gold'
p1161
sg127
I223381
sg128
g129
sg130
S'Wed, 13 May 2015 03:35:42 UTC'
p1162
sg132
g1161
sg133
VOraclCGOLD15BGenR2Q134
p1163
sg135
g1163
sg136
I5
sa(dp1164
g122
I81532271
sg123
S'-0%'
p1165
sg125
g1161
sg127
I223381
sg128
g139
sg130
S'Wed, 13 May 2015 03:35:42 UTC'
p1166
sg132
g1161
sg133
VOraclCGOLD15BBoSR2Q134
p1167
sg135
g1167
sg136
I2
sa(dp1168
g122
I81373609
sg123
S'-0%'
p1169
sg125
S'ABI Partners Only - Platinum'
p1170
sg127
I223380
sg128
g129
sg130
S'Wed, 13 May 2015 03:35:14 UTC'
p1171
sg132
g1170
sg133
VAmazoPLAT15BGenR2Q11r
p1172
sg135
g1172
sg136
I10
sa(dp1173
g122
I81373609
sg123
S'-0%'
p1174
sg125
g1170
sg127
I223380
sg128
g139
sg130
S'Wed, 13 May 2015 03:35:14 UTC'
p1175
sg132
g1170
sg133
VAmazoPLAT15BBoSR2Q11r
p1176
sg135
g1176
sg136
I8
sa(dp1177
g122
I81373609
sg123
S'-0%'
p1178
sg125
g1170
sg127
I223380
sg128
g129
sg130
S'Wed, 13 May 2015 03:35:14 UTC'
p1179
sg132
g1170
sg133
VAmazo1510DGenR2Q11r
p1180
sg135
g1180
sg136
I200
sa(dp1181
g122
I81556060
sg123
S'-0%'
p1182
sg125
S'Academic - Silver'
p1183
sg127
I223384
sg128
g139
sg130
S'Wed, 13 May 2015 03:37:55 UTC'
p1184
sg132
g1183
sg133
VHassoACASIL15BBoSR2Q197
p1185
sg135
g1185
sg136
I3
sa(dp1186
g122
I81556060
sg123
S'-0%'
p1187
sg125
g1183
sg127
I223384
sg128
g347
sg130
S'Wed, 13 May 2015 03:37:55 UTC'
p1188
sg132
g1183
sg133
VHassoACASIL15BStDc2Q197
p1189
sg135
g1189
sg136
I1
sa(dp1190
g122
I81556060
sg123
S'-0%'
p1191
sg125
g1183
sg127
I223384
sg128
g352
sg130
S'Wed, 13 May 2015 03:37:55 UTC'
p1192
sg132
g1183
sg133
VHassoACASIL15BFacR2Q197
p1193
sg135
g1193
sg136
I2
sa(dp1194
g122
I79052836
sg123
S'-0%'
p1195
sg125
S'Show Management'
p1196
sg127
I226598
sg128
g333
sg130
S'Wed, 13 May 2015 03:38:23 UTC'
p1197
sg132
g1196
sg133
VAnita152Q1AP
p1198
sg135
g1198
sg136
I1
sa(dp1199
g122
I79052836
sg123
S'-0%'
p1200
sg125
g1196
sg127
I226598
sg128
g333
sg130
S'Wed, 13 May 2015 03:38:23 UTC'
p1201
sg132
g1196
sg133
VAnita15TEF2Q1AP
p1202
sg135
g1202
sg136
I2
sa(dp1203
g122
I79052836
sg123
S'-0%'
p1204
sg125
g1196
sg127
I226598
sg128
g333
sg130
S'Wed, 13 May 2015 03:38:23 UTC'
p1205
sg132
g1196
sg133
VAnita152Q1AP
p1206
sg135
g1206
sg136
I2
sa(dp1207
g122
I79052836
sg123
S'-0%'
p1208
sg125
g1196
sg127
I226598
sg128
g333
sg130
S'Wed, 13 May 2015 03:38:23 UTC'
p1209
sg132
g1196
sg133
VAnita152Q1AP
p1210
sg135
g1210
sg136
I1
sa(dp1211
g122
I79052836
sg123
S'-0%'
p1212
sg125
g1196
sg127
I226598
sg128
g333
sg130
S'Wed, 13 May 2015 03:38:23 UTC'
p1213
sg132
g1196
sg133
VAnita152Q1AP
p1214
sg135
g1214
sg136
I1
sa(dp1215
g122
I79052836
sg123
S'-0%'
p1216
sg125
g1196
sg127
I226598
sg128
g333
sg130
S'Wed, 13 May 2015 03:38:23 UTC'
p1217
sg132
g1196
sg133
VAnita152Q1AP
p1218
sg135
g1218
sg136
I1
sa(dp1219
g122
I79052836
sg123
S'-0%'
p1220
sg125
g1196
sg127
I226598
sg128
g333
sg130
S'Wed, 13 May 2015 03:38:23 UTC'
p1221
sg132
g1196
sg133
VAnita152Q1AP
p1222
sg135
g1222
sg136
I1
sa(dp1223
g122
I81579382
sg123
S'-0%'
p1224
sg125
S'GHC Event Sponsorships and Enterprise Packages'
p1225
sg127
I227146
sg128
g333
sg130
S'Wed, 13 May 2015 03:38:38 UTC'
p1226
sg132
g1225
sg133
VRed H152Q1B3
p1227
sg135
g1227
sg136
I2
sa(dp1228
g122
I81579619
sg123
S'-0%'
p1229
sg125
S'Corporate - Gold'
p1230
sg127
I223381
sg128
g129
sg130
S'Wed, 13 May 2015 03:35:43 UTC'
p1231
sg132
g1230
sg133
VRed HCGOLD15BGenR2Q139
p1232
sg135
g1232
sg136
I5
sa(dp1233
g122
I81579619
sg123
S'-0%'
p1234
sg125
g1230
sg127
I223381
sg128
g139
sg130
S'Wed, 13 May 2015 03:35:43 UTC'
p1235
sg132
g1230
sg133
VRed HCGOLD15BBoSR2Q139
p1236
sg135
g1236
sg136
I2
sa(dp1237
g122
I81595325
sg123
S'-0%'
p1238
sg125
S'Academic - Silver'
p1239
sg127
I223384
sg128
g139
sg130
S'Wed, 13 May 2015 03:38:07 UTC'
p1240
sg132
g1239
sg133
VUniveACASIL15BBoSR2Q19g
p1241
sg135
g1241
sg136
I3
sa(dp1242
g122
I81595325
sg123
S'-0%'
p1243
sg125
g1239
sg127
I223384
sg128
g347
sg130
S'Wed, 13 May 2015 03:38:07 UTC'
p1244
sg132
g1239
sg133
VUniveACASIL15BStDc2Q19g
p1245
sg135
g1245
sg136
I1
sa(dp1246
g122
I81595325
sg123
S'-0%'
p1247
sg125
g1239
sg127
I223384
sg128
g352
sg130
S'Wed, 13 May 2015 03:38:07 UTC'
p1248
sg132
g1239
sg133
VUniveACASIL15BFacR2Q19g
p1249
sg135
g1249
sg136
I2
sa(dp1250
g122
I79402913
sg123
S'-0%'
p1251
sg125
S'ABI Partners Only - Platinum'
p1252
sg127
I223380
sg128
g129
sg130
S'Wed, 13 May 2015 03:35:32 UTC'
p1253
sg132
g1252
sg133
VBank PLAT15BGenR2Q12a
p1254
sg135
g1254
sg136
I10
sa(dp1255
g122
I79402913
sg123
S'-0%'
p1256
sg125
g1252
sg127
I223380
sg128
g139
sg130
S'Wed, 13 May 2015 03:35:32 UTC'
p1257
sg132
g1252
sg133
VBank PLAT15BBoSR2Q12a
p1258
sg135
g1258
sg136
I8
sa(dp1259
g122
I79402913
sg123
S'-0%'
p1260
sg125
g1252
sg127
I223380
sg128
g129
sg130
S'Wed, 13 May 2015 03:35:32 UTC'
p1261
sg132
g1252
sg133
VBank 1510DGenR2Q12a
p1262
sg135
g1262
sg136
I50
sa(dp1263
g122
I81602634
sg123
S'-0%'
p1264
sg125
S'Academic - Bronze'
p1265
sg127
I223385
sg128
g352
sg130
S'Wed, 13 May 2015 03:38:20 UTC'
p1266
sg132
g1265
sg133
VDeparACABRZ15BFacR2Q1AF
p1267
sg135
g1267
sg136
I1
sa(dp1268
g122
I81602634
sg123
S'-0%'
p1269
sg125
g1265
sg127
I223385
sg128
g347
sg130
S'Wed, 13 May 2015 03:38:20 UTC'
p1270
sg132
g1265
sg133
VDeparACABRZ15BStDc2Q1AF
p1271
sg135
g1271
sg136
I1
sa(dp1272
g122
I81604560
sg123
S'-0%'
p1273
sg125
S'Corporate - Silver'
p1274
sg127
I223382
sg128
g129
sg130
S'Wed, 13 May 2015 03:36:53 UTC'
p1275
sg132
g1274
sg133
VPremiCSIL15BGenR2Q16S
p1276
sg135
g1276
sg136
I3
sa(dp1277
g122
I81604560
sg123
S'-0%'
p1278
sg125
g1274
sg127
I223382
sg128
g139
sg130
S'Wed, 13 May 2015 03:36:53 UTC'
p1279
sg132
g1274
sg133
VPremiCSIL15BBoSR2Q16S
p1280
sg135
g1280
sg136
I3
sa(dp1281
g122
I81604792
sg123
S'-0%'
p1282
sg125
S'Academic - Gold'
p1283
sg127
I223383
sg128
g139
sg130
S'Wed, 13 May 2015 03:37:49 UTC'
p1284
sg132
g1283
sg133
VGeorgACAGOLD15BBoSR2Q18s
p1285
sg135
g1285
sg136
I2
sa(dp1286
g122
I81604792
sg123
S'-0%'
p1287
sg125
g1283
sg127
I223383
sg128
g347
sg130
S'Wed, 13 May 2015 03:37:49 UTC'
p1288
sg132
g1283
sg133
VGeorgACAGOLD15BStDc2Q18s
p1289
sg135
g1289
sg136
I1
sa(dp1290
g122
I81604792
sg123
S'-0%'
p1291
sg125
g1283
sg127
I223383
sg128
g352
sg130
S'Wed, 13 May 2015 03:37:49 UTC'
p1292
sg132
g1283
sg133
VGeorgACAGOLD15BFacR2Q18s
p1293
sg135
g1293
sg136
I3
sa(dp1294
g122
I81605421
sg123
S'-0%'
p1295
sg125
S'Corporate - Gold'
p1296
sg127
I223381
sg128
g129
sg130
S'Wed, 13 May 2015 03:35:45 UTC'
p1297
sg132
g1296
sg133
VAOLCGOLD15BGenR2Q13A
p1298
sg135
g1298
sg136
I5
sa(dp1299
g122
I81605421
sg123
S'-0%'
p1300
sg125
g1296
sg127
I223381
sg128
g139
sg130
S'Wed, 13 May 2015 03:35:45 UTC'
p1301
sg132
g1296
sg133
VAOLCGOLD15BBoSR2Q13A
p1302
sg135
g1302
sg136
I2
sa(dp1303
g122
I80216188
sg123
S'-0%'
p1304
sg125
S'ABI Partners Only - Platinum'
p1305
sg127
I223380
sg128
g129
sg130
S'Wed, 13 May 2015 03:35:26 UTC'
p1306
sg132
g1305
sg133
VAirbnPLAT15BGenR2Q12H
p1307
sg135
g1307
sg136
I10
sa(dp1308
g122
I80216188
sg123
S'-0%'
p1309
sg125
g1305
sg127
I223380
sg128
g139
sg130
S'Wed, 13 May 2015 03:35:26 UTC'
p1310
sg132
g1305
sg133
VAirbnPLAT15BBoSR2Q12H
p1311
sg135
g1311
sg136
I8
sa(dp1312
g122
I77904414
sg123
S'-0%'
p1313
sg125
S'ABI Partners Only - Platinum'
p1314
sg127
I223380
sg128
g129
sg130
S'Wed, 13 May 2015 03:35:00 UTC'
p1315
sg132
g1314
sg133
VEMCPLAT15BGenR2Q11I
p1316
sg135
g1316
sg136
I10
sa(dp1317
g122
I77904414
sg123
S'-0%'
p1318
sg125
g1314
sg127
I223380
sg128
g139
sg130
S'Wed, 13 May 2015 03:35:00 UTC'
p1319
sg132
g1314
sg133
VEMCPLAT15BBoSR2Q11I
p1320
sg135
g1320
sg136
I8
sa(dp1321
g122
I77904414
sg123
S'-0%'
p1322
sg125
g1314
sg127
I223380
sg128
g129
sg130
S'Wed, 13 May 2015 03:35:00 UTC'
p1323
sg132
g1314
sg133
VEMC1510DGenR2Q11I
p1324
sg135
g1324
sg136
I10
sa(dp1325
g122
I79831298
sg123
S'-0%'
p1326
sg125
S'ABI Partners Only - Platinum'
p1327
sg127
I223380
sg128
g129
sg130
S'Wed, 13 May 2015 03:35:19 UTC'
p1328
sg132
g1327
sg133
VFacebPLAT15BGenR2Q126
p1329
sg135
g1329
sg136
I10
sa(dp1330
g122
I79831298
sg123
S'-0%'
p1331
sg125
g1327
sg127
I223380
sg128
g139
sg130
S'Wed, 13 May 2015 03:35:19 UTC'
p1332
sg132
g1327
sg133
VFacebPLAT15BBoSR2Q126
p1333
sg135
g1333
sg136
I8
sa(dp1334
g122
I79831298
sg123
S'-0%'
p1335
sg125
g1327
sg127
I223380
sg128
g333
sg130
S'Wed, 13 May 2015 03:35:19 UTC'
p1336
sg132
g1327
sg133
VFaceb152Q126
p1337
sg135
g1337
sg136
I1
sa(dp1338
g122
I79884963
sg123
S'-0%'
p1339
sg125
S'ABI Partners Only - Platinum'
p1340
sg127
I223380
sg128
g129
sg130
S'Wed, 13 May 2015 03:35:23 UTC'
p1341
sg132
g1340
sg133
VQualcPLAT15BGenR2Q12G
p1342
sg135
g1342
sg136
I10
sa(dp1343
g122
I79884963
sg123
S'-0%'
p1344
sg125
g1340
sg127
I223380
sg128
g139
sg130
S'Wed, 13 May 2015 03:35:23 UTC'
p1345
sg132
g1340
sg133
VQualcPLAT15BBoSR2Q12G
p1346
sg135
g1346
sg136
I8
sa(dp1347
g122
I79884963
sg123
S'-0%'
p1348
sg125
g1340
sg127
I223380
sg128
g333
sg130
S'Wed, 13 May 2015 03:35:23 UTC'
p1349
sg132
g1340
sg133
VQualc152Q12G
p1350
sg135
g1350
sg136
I1
sa(dp1351
g122
I80138213
sg123
S'-0%'
p1352
sg125
S'Academic - Bronze'
p1353
sg127
I223385
sg128
g352
sg130
S'Wed, 13 May 2015 03:38:21 UTC'
p1354
sg132
g1353
sg133
VSteveACABRZ15BFacR2Q1AK
p1355
sg135
g1355
sg136
I1
sa(dp1356
g122
I80138213
sg123
S'-0%'
p1357
sg125
g1353
sg127
I223385
sg128
g347
sg130
S'Wed, 13 May 2015 03:38:21 UTC'
p1358
sg132
g1353
sg133
VSteveACABRZ15BStDc2Q1AK
p1359
sg135
g1359
sg136
I1
sa(dp1360
g122
I81510483
sg123
S'-0%'
p1361
sg125
S'Academic - Bronze'
p1362
sg127
I223385
sg128
g352
sg130
S'Wed, 13 May 2015 03:38:18 UTC'
p1363
sg132
g1362
sg133
VSteveACABRZ15BFacR2Q1AA
p1364
sg135
g1364
sg136
I1
sa(dp1365
g122
I81510483
sg123
S'-0%'
p1366
sg125
g1362
sg127
I223385
sg128
g347
sg130
S'Wed, 13 May 2015 03:38:18 UTC'
p1367
sg132
g1362
sg133
VSteveACABRZ15BStDc2Q1AA
p1368
sg135
g1368
sg136
I1
sa(dp1369
g122
I80330099
sg123
S'-0%'
p1370
sg125
S'Corporate - Gold'
p1371
sg127
I223381
sg128
g129
sg130
S'Wed, 13 May 2015 03:35:57 UTC'
p1372
sg132
g1371
sg133
VBloomCGOLD15BGenR2Q13s
p1373
sg135
g1373
sg136
I5
sa(dp1374
g122
I80330099
sg123
S'-0%'
p1375
sg125
g1371
sg127
I223381
sg128
g139
sg130
S'Wed, 13 May 2015 03:35:57 UTC'
p1376
sg132
g1371
sg133
VBloomCGOLD15BBoSR2Q13s
p1377
sg135
g1377
sg136
I2
sa.