(lp1
(dp2
S'SponsorID'
p3
I77845613
sS'badge_type_name'
p4
S'General'
p5
sS'RegTypeID'
p6
I223381
sS'code_source'
p7
S'Corporate - Gold'
p8
sS'RegistrationType'
p9
g8
sS'ID'
p10
VAccenCGOLD15BGenR2Q15o
p11
sS'discount_search_url'
p12
Vhttp://52.8.24.90discount_code/?code=AccenCGOLD15BGenR2Q15o
p13
sS'regonline_url'
p14
S'https://www.regonline.com?eventID=1702108&rTypeID=228781'
p15
sS'badge_type'
p16
S'general_full'
p17
sS'created_date'
p18
S'Wed, 13 May 2015 03:36:37 UTC'
p19
sS'regonline_str'
p20
S'-100%'
p21
sS'discount_code'
p22
g11
sS'quantity'
p23
I5
sa(dp24
g3
I77845613
sg4
S'Booth Staff Only'
p25
sg6
I223381
sg7
g8
sg9
g8
sg10
VAccenCGOLD15BBoSR2Q15o
p26
sg12
Vhttp://52.8.24.90discount_code/?code=AccenCGOLD15BBoSR2Q15o
p27
sg14
S'https://www.regonline.com?eventID=1702108&rTypeID=228807'
p28
sg16
S'booth'
p29
sg18
S'Wed, 13 May 2015 03:36:37 UTC'
p30
sg20
S'-100%'
p31
sg22
g26
sg23
I2
sa(dp32
g3
I77845651
sg4
S'General One Day'
p33
sg6
I223379
sg7
S'ABI Partners Only - Diamond'
p34
sg9
g34
sg10
VCapit152Q118
p35
sg12
Vhttp://52.8.24.90discount_code/?code=Capit152Q118
p36
sg14
S'https://www.regonline.com?eventID=1702108&rTypeID=228785'
p37
sg16
S'general_1'
p38
sg18
S'Wed, 13 May 2015 03:34:55 UTC'
p39
sg20
S'-100%'
p40
sg22
g35
sg23
I1
sa(dp41
g3
I77845651
sg4
g5
sg6
I223379
sg7
VEnterprise Pack
p42
sg9
g34
sg10
VCapit1510DGenR2Q118
p43
sg12
Vhttp://52.8.24.90discount_code/?code=Capit1510DGenR2Q118
p44
sg14
g15
sg16
g17
sg18
S'Wed, 13 May 2015 03:34:55 UTC'
p45
sg20
S'-100%'
p46
sg22
g43
sg23
I120
sa(dp47
g3
I77845651
sg4
g5
sg6
I223379
sg7
g34
sg9
g34
sg10
VCapitDIA15BGenR2Q118
p48
sg12
Vhttp://52.8.24.90discount_code/?code=CapitDIA15BGenR2Q118
p49
sg14
g15
sg16
g17
sg18
S'Wed, 13 May 2015 03:34:55 UTC'
p50
sg20
S'-100%'
p51
sg22
g48
sg23
I20
sa(dp52
g3
I77845651
sg4
g25
sg6
I223379
sg7
g34
sg9
g34
sg10
VCapitDIA15BBoSR2Q118
p53
sg12
Vhttp://52.8.24.90discount_code/?code=CapitDIA15BBoSR2Q118
p54
sg14
g28
sg16
g29
sg18
S'Wed, 13 May 2015 03:34:55 UTC'
p55
sg20
S'-100%'
p56
sg22
g53
sg23
I8
sa(dp57
g3
I77859939
sg4
g5
sg6
I223381
sg7
S'Corporate - Gold'
p58
sg9
g58
sg10
VBoxCGOLD15BGenR2Q15k
p59
sg12
Vhttp://52.8.24.90discount_code/?code=BoxCGOLD15BGenR2Q15k
p60
sg14
g15
sg16
g17
sg18
S'Wed, 13 May 2015 03:36:39 UTC'
p61
sg20
S'-100%'
p62
sg22
g59
sg23
I5
sa(dp63
g3
I77859939
sg4
g25
sg6
I223381
sg7
g58
sg9
g58
sg10
VBoxCGOLD15BBoSR2Q15k
p64
sg12
Vhttp://52.8.24.90discount_code/?code=BoxCGOLD15BBoSR2Q15k
p65
sg14
g28
sg16
g29
sg18
S'Wed, 13 May 2015 03:36:39 UTC'
p66
sg20
S'-100%'
p67
sg22
g64
sg23
I2
sa(dp68
g3
I77866379
sg4
g5
sg6
I223382
sg7
S'Corporate - Silver'
p69
sg9
g69
sg10
VMongoCSIL15BGenR2Q16X
p70
sg12
Vhttp://52.8.24.90discount_code/?code=MongoCSIL15BGenR2Q16X
p71
sg14
g15
sg16
g17
sg18
S'Wed, 13 May 2015 03:36:54 UTC'
p72
sg20
S'-100%'
p73
sg22
g70
sg23
I3
sa(dp74
g3
I77866379
sg4
g25
sg6
I223382
sg7
g69
sg9
g69
sg10
VMongoCSIL15BBoSR2Q16X
p75
sg12
Vhttp://52.8.24.90discount_code/?code=MongoCSIL15BBoSR2Q16X
p76
sg14
g28
sg16
g29
sg18
S'Wed, 13 May 2015 03:36:54 UTC'
p77
sg20
S'-100%'
p78
sg22
g75
sg23
I3
sa(dp79
g3
I77874390
sg4
g5
sg6
I223381
sg7
S'Corporate - Gold'
p80
sg9
g80
sg10
VGE SoCGOLD15BGenR2Q14m
p81
sg12
Vhttp://52.8.24.90discount_code/?code=GE SoCGOLD15BGenR2Q14m
p82
sg14
g15
sg16
g17
sg18
S'Wed, 13 May 2015 03:36:40 UTC'
p83
sg20
S'-100%'
p84
sg22
g81
sg23
I5
sa(dp85
g3
I77874390
sg4
g25
sg6
I223381
sg7
g80
sg9
g80
sg10
VGE SoCGOLD15BBoSR2Q14m
p86
sg12
Vhttp://52.8.24.90discount_code/?code=GE SoCGOLD15BBoSR2Q14m
p87
sg14
g28
sg16
g29
sg18
S'Wed, 13 May 2015 03:36:40 UTC'
p88
sg20
S'-100%'
p89
sg22
g86
sg23
I2
sa(dp90
g3
I77902004
sg4
g25
sg6
I223381
sg7
S'Corporate - Gold'
p91
sg9
g91
sg10
VPalanCGOLD15BBoSR2Q15t
p92
sg12
Vhttp://52.8.24.90discount_code/?code=PalanCGOLD15BBoSR2Q15t
p93
sg14
g28
sg16
g29
sg18
S'Wed, 13 May 2015 03:36:42 UTC'
p94
sg20
S'-100%'
p95
sg22
g92
sg23
I2
sa(dp96
g3
I77902004
sg4
g5
sg6
I223381
sg7
g91
sg9
g91
sg10
VPalanCGOLD15BGenR2Q15t
p97
sg12
Vhttp://52.8.24.90discount_code/?code=PalanCGOLD15BGenR2Q15t
p98
sg14
g15
sg16
g17
sg18
S'Wed, 13 May 2015 03:36:42 UTC'
p99
sg20
S'-100%'
p100
sg22
g97
sg23
I5
sa(dp101
g3
I77904414
sg4
g25
sg6
I223380
sg7
S'ABI Partners Only - Platinum'
p102
sg9
g102
sg10
VEMCPLAT15BBoSR2Q11I
p103
sg12
Vhttp://52.8.24.90discount_code/?code=EMCPLAT15BBoSR2Q11I
p104
sg14
g28
sg16
g29
sg18
S'Wed, 13 May 2015 03:35:00 UTC'
p105
sg20
S'-100%'
p106
sg22
g103
sg23
I8
sa(dp107
g3
I77904414
sg4
g5
sg6
I223380
sg7
g102
sg9
g102
sg10
VEMCPLAT15BGenR2Q11I
p108
sg12
Vhttp://52.8.24.90discount_code/?code=EMCPLAT15BGenR2Q11I
p109
sg14
g15
sg16
g17
sg18
S'Wed, 13 May 2015 03:35:00 UTC'
p110
sg20
S'-100%'
p111
sg22
g108
sg23
I10
sa(dp112
g3
I77904414
sg4
g5
sg6
I223380
sg7
VEnterprise Pack
p113
sg9
g102
sg10
VEMC1510DGenR2Q11I
p114
sg12
Vhttp://52.8.24.90discount_code/?code=EMC1510DGenR2Q11I
p115
sg14
g15
sg16
g17
sg18
S'Wed, 13 May 2015 03:35:00 UTC'
p116
sg20
S'-100%'
p117
sg22
g114
sg23
I10
sa(dp118
g3
I77928319
sg4
g25
sg6
I223381
sg7
S'Corporate - Gold'
p119
sg9
g119
sg10
VMorgaCGOLD15BBoSR2Q15y
p120
sg12
Vhttp://52.8.24.90discount_code/?code=MorgaCGOLD15BBoSR2Q15y
p121
sg14
g28
sg16
g29
sg18
S'Wed, 13 May 2015 03:36:43 UTC'
p122
sg20
S'-100%'
p123
sg22
g120
sg23
I2
sa(dp124
g3
I77928319
sg4
g5
sg6
I223381
sg7
g119
sg9
g119
sg10
VMorgaCGOLD15BGenR2Q15y
p125
sg12
Vhttp://52.8.24.90discount_code/?code=MorgaCGOLD15BGenR2Q15y
p126
sg14
g15
sg16
g17
sg18
S'Wed, 13 May 2015 03:36:43 UTC'
p127
sg20
S'-100%'
p128
sg22
g125
sg23
I5
sa(dp129
g3
I78012105
sg4
g5
sg6
I223381
sg7
S'Corporate - Gold'
p130
sg9
g130
sg10
VMacysCGOLD15BGenR2Q163
p131
sg12
Vhttp://52.8.24.90discount_code/?code=MacysCGOLD15BGenR2Q163
p132
sg14
g15
sg16
g17
sg18
S'Wed, 13 May 2015 03:36:45 UTC'
p133
sg20
S'-100%'
p134
sg22
g131
sg23
I5
sa(dp135
g3
I78012105
sg4
g25
sg6
I223381
sg7
g130
sg9
g130
sg10
VMacysCGOLD15BBoSR2Q163
p136
sg12
Vhttp://52.8.24.90discount_code/?code=MacysCGOLD15BBoSR2Q163
p137
sg14
g28
sg16
g29
sg18
S'Wed, 13 May 2015 03:36:45 UTC'
p138
sg20
S'-100%'
p139
sg22
g136
sg23
I2
sa(dp140
g3
I78012883
sg4
g25
sg6
I223380
sg7
S'ABI Partners Only - Platinum'
p141
sg9
g141
sg10
VJunipPLAT15BBoSR2Q11N
p142
sg12
Vhttp://52.8.24.90discount_code/?code=JunipPLAT15BBoSR2Q11N
p143
sg14
g28
sg16
g29
sg18
S'Wed, 13 May 2015 03:35:02 UTC'
p144
sg20
S'-100%'
p145
sg22
g142
sg23
I8
sa(dp146
g3
I78012883
sg4
g5
sg6
I223380
sg7
g141
sg9
g141
sg10
VJunipPLAT15BGenR2Q11N
p147
sg12
Vhttp://52.8.24.90discount_code/?code=JunipPLAT15BGenR2Q11N
p148
sg14
g15
sg16
g17
sg18
S'Wed, 13 May 2015 03:35:02 UTC'
p149
sg20
S'-100%'
p150
sg22
g147
sg23
I10
sa(dp151
g3
I78012883
sg4
g33
sg6
I223380
sg7
g141
sg9
g141
sg10
VJunip152Q11N
p152
sg12
Vhttp://52.8.24.90discount_code/?code=Junip152Q11N
p153
sg14
g37
sg16
g38
sg18
S'Wed, 13 May 2015 03:35:02 UTC'
p154
sg20
S'-100%'
p155
sg22
g152
sg23
I2
sa(dp156
g3
I78021784
sg4
g25
sg6
I223381
sg7
S'Corporate - Gold'
p157
sg9
g157
sg10
VSquarCGOLD15BBoSR2Q15K
p158
sg12
Vhttp://52.8.24.90discount_code/?code=SquarCGOLD15BBoSR2Q15K
p159
sg14
g28
sg16
g29
sg18
S'Wed, 13 May 2015 03:36:27 UTC'
p160
sg20
S'-100%'
p161
sg22
g158
sg23
I2
sa(dp162
g3
I78021784
sg4
g5
sg6
I223381
sg7
g157
sg9
g157
sg10
VSquarCGOLD15BGenR2Q15K
p163
sg12
Vhttp://52.8.24.90discount_code/?code=SquarCGOLD15BGenR2Q15K
p164
sg14
g15
sg16
g17
sg18
S'Wed, 13 May 2015 03:36:27 UTC'
p165
sg20
S'-100%'
p166
sg22
g163
sg23
I5
sa(dp167
g3
I78038806
sg4
g5
sg6
I223381
sg7
S'Corporate - Gold'
p168
sg9
g168
sg10
VJohnsCGOLD15BGenR2Q13E
p169
sg12
Vhttp://52.8.24.90discount_code/?code=JohnsCGOLD15BGenR2Q13E
p170
sg14
g15
sg16
g17
sg18
S'Wed, 13 May 2015 03:35:46 UTC'
p171
sg20
S'-100%'
p172
sg22
g169
sg23
I5
sa(dp173
g3
I78038806
sg4
g25
sg6
I223381
sg7
g168
sg9
g168
sg10
VJohnsCGOLD15BBoSR2Q13E
p174
sg12
Vhttp://52.8.24.90discount_code/?code=JohnsCGOLD15BBoSR2Q13E
p175
sg14
g28
sg16
g29
sg18
S'Wed, 13 May 2015 03:35:46 UTC'
p176
sg20
S'-100%'
p177
sg22
g174
sg23
I2
sa(dp178
g3
I78187521
sg4
g5
sg6
I223381
sg7
S'Corporate - Gold'
p179
sg9
g179
sg10
VTraveCGOLD15BGenR2Q15P
p180
sg12
Vhttp://52.8.24.90discount_code/?code=TraveCGOLD15BGenR2Q15P
p181
sg14
g15
sg16
g17
sg18
S'Wed, 13 May 2015 03:36:29 UTC'
p182
sg20
S'-100%'
p183
sg22
g180
sg23
I5
sa(dp184
g3
I78187521
sg4
g25
sg6
I223381
sg7
g179
sg9
g179
sg10
VTraveCGOLD15BBoSR2Q15P
p185
sg12
Vhttp://52.8.24.90discount_code/?code=TraveCGOLD15BBoSR2Q15P
p186
sg14
g28
sg16
g29
sg18
S'Wed, 13 May 2015 03:36:29 UTC'
p187
sg20
S'-100%'
p188
sg22
g185
sg23
I2
sa(dp189
g3
I78262005
sg4
g25
sg6
I223382
sg7
S'Corporate - Silver'
p190
sg9
g190
sg10
VKnewtCSIL15BBoSR2Q18J
p191
sg12
Vhttp://52.8.24.90discount_code/?code=KnewtCSIL15BBoSR2Q18J
p192
sg14
g28
sg16
g29
sg18
S'Wed, 13 May 2015 03:37:35 UTC'
p193
sg20
S'-100%'
p194
sg22
g191
sg23
I3
sa(dp195
g3
I78262005
sg4
g5
sg6
I223382
sg7
g190
sg9
g190
sg10
VKnewtCSIL15BGenR2Q18J
p196
sg12
Vhttp://52.8.24.90discount_code/?code=KnewtCSIL15BGenR2Q18J
p197
sg14
g15
sg16
g17
sg18
S'Wed, 13 May 2015 03:37:35 UTC'
p198
sg20
S'-100%'
p199
sg22
g196
sg23
I3
sa(dp200
g3
I78262635
sg4
g5
sg6
I223381
sg7
S'Corporate - Gold'
p201
sg9
g201
sg10
VMailCCGOLD15BGenR2Q15U
p202
sg12
Vhttp://52.8.24.90discount_code/?code=MailCCGOLD15BGenR2Q15U
p203
sg14
g15
sg16
g17
sg18
S'Wed, 13 May 2015 03:36:31 UTC'
p204
sg20
S'-100%'
p205
sg22
g202
sg23
I5
sa(dp206
g3
I78262635
sg4
g25
sg6
I223381
sg7
g201
sg9
g201
sg10
VMailCCGOLD15BBoSR2Q15U
p207
sg12
Vhttp://52.8.24.90discount_code/?code=MailCCGOLD15BBoSR2Q15U
p208
sg14
g28
sg16
g29
sg18
S'Wed, 13 May 2015 03:36:31 UTC'
p209
sg20
S'-100%'
p210
sg22
g207
sg23
I2
sa(dp211
g3
I78269185
sg4
g5
sg6
I223382
sg7
S'Corporate - Silver'
p212
sg9
g212
sg10
VD. E.CSIL15BGenR2Q18O
p213
sg12
Vhttp://52.8.24.90discount_code/?code=D. E.CSIL15BGenR2Q18O
p214
sg14
g15
sg16
g17
sg18
S'Wed, 13 May 2015 03:37:37 UTC'
p215
sg20
S'-100%'
p216
sg22
g213
sg23
I3
sa(dp217
g3
I78269185
sg4
g25
sg6
I223382
sg7
g212
sg9
g212
sg10
VD. E.CSIL15BBoSR2Q18O
p218
sg12
Vhttp://52.8.24.90discount_code/?code=D. E.CSIL15BBoSR2Q18O
p219
sg14
g28
sg16
g29
sg18
S'Wed, 13 May 2015 03:37:37 UTC'
p220
sg20
S'-100%'
p221
sg22
g218
sg23
I3
sa(dp222
g3
I78412181
sg4
g5
sg6
I223380
sg7
S'ABI Partners Only - Platinum'
p223
sg9
g223
sg10
VNetApPLAT15BGenR2Q11S
p224
sg12
Vhttp://52.8.24.90discount_code/?code=NetApPLAT15BGenR2Q11S
p225
sg14
g15
sg16
g17
sg18
S'Wed, 13 May 2015 03:35:04 UTC'
p226
sg20
S'-100%'
p227
sg22
g224
sg23
I10
sa(dp228
g3
I78412181
sg4
g25
sg6
I223380
sg7
g223
sg9
g223
sg10
VNetApPLAT15BBoSR2Q11S
p229
sg12
Vhttp://52.8.24.90discount_code/?code=NetApPLAT15BBoSR2Q11S
p230
sg14
g28
sg16
g29
sg18
S'Wed, 13 May 2015 03:35:04 UTC'
p231
sg20
S'-100%'
p232
sg22
g229
sg23
I8
sa(dp233
g3
I78465630
sg4
g5
sg6
I223382
sg7
S'Corporate - Silver'
p234
sg9
g234
sg10
VMarkLCSIL15BGenR2Q17M
p235
sg12
Vhttp://52.8.24.90discount_code/?code=MarkLCSIL15BGenR2Q17M
p236
sg14
g15
sg16
g17
sg18
S'Wed, 13 May 2015 03:37:38 UTC'
p237
sg20
S'-100%'
p238
sg22
g235
sg23
I3
sa(dp239
g3
I78465630
sg4
g25
sg6
I223382
sg7
g234
sg9
g234
sg10
VMarkLCSIL15BBoSR2Q17M
p240
sg12
Vhttp://52.8.24.90discount_code/?code=MarkLCSIL15BBoSR2Q17M
p241
sg14
g28
sg16
g29
sg18
S'Wed, 13 May 2015 03:37:38 UTC'
p242
sg20
S'-100%'
p243
sg22
g240
sg23
I3
sa(dp244
g3
I78562705
sg4
g25
sg6
I223380
sg7
S'ABI Partners Only - Platinum'
p245
sg9
g245
sg10
VDropbPLAT15BBoSR2Q11X
p246
sg12
Vhttp://52.8.24.90discount_code/?code=DropbPLAT15BBoSR2Q11X
p247
sg14
g28
sg16
g29
sg18
S'Wed, 13 May 2015 03:35:06 UTC'
p248
sg20
S'-100%'
p249
sg22
g246
sg23
I8
sa(dp250
g3
I78562705
sg4
g5
sg6
I223380
sg7
g245
sg9
g245
sg10
VDropbPLAT15BGenR2Q11X
p251
sg12
Vhttp://52.8.24.90discount_code/?code=DropbPLAT15BGenR2Q11X
p252
sg14
g15
sg16
g17
sg18
S'Wed, 13 May 2015 03:35:06 UTC'
p253
sg20
S'-100%'
p254
sg22
g251
sg23
I10
sa(dp255
g3
I78603554
sg4
g5
sg6
I223381
sg7
S'Corporate - Gold'
p256
sg9
g256
sg10
VNetSuCGOLD15BGenR2Q15Z
p257
sg12
Vhttp://52.8.24.90discount_code/?code=NetSuCGOLD15BGenR2Q15Z
p258
sg14
g15
sg16
g17
sg18
S'Wed, 13 May 2015 03:36:32 UTC'
p259
sg20
S'-100%'
p260
sg22
g257
sg23
I5
sa(dp261
g3
I78603554
sg4
g25
sg6
I223381
sg7
g256
sg9
g256
sg10
VNetSuCGOLD15BBoSR2Q15Z
p262
sg12
Vhttp://52.8.24.90discount_code/?code=NetSuCGOLD15BBoSR2Q15Z
p263
sg14
g28
sg16
g29
sg18
S'Wed, 13 May 2015 03:36:32 UTC'
p264
sg20
S'-100%'
p265
sg22
g262
sg23
I2
sa(dp266
g3
I78623682
sg4
g5
sg6
I223382
sg7
S'Corporate - Silver'
p267
sg9
g267
sg10
VFireECSIL15BGenR2Q18T
p268
sg12
Vhttp://52.8.24.90discount_code/?code=FireECSIL15BGenR2Q18T
p269
sg14
g15
sg16
g17
sg18
S'Wed, 13 May 2015 03:37:40 UTC'
p270
sg20
S'-100%'
p271
sg22
g268
sg23
I3
sa(dp272
g3
I78623682
sg4
g25
sg6
I223382
sg7
g267
sg9
g267
sg10
VFireECSIL15BBoSR2Q18T
p273
sg12
Vhttp://52.8.24.90discount_code/?code=FireECSIL15BBoSR2Q18T
p274
sg14
g28
sg16
g29
sg18
S'Wed, 13 May 2015 03:37:40 UTC'
p275
sg20
S'-100%'
p276
sg22
g273
sg23
I3
sa(dp277
g3
I78637801
sg4
g5
sg6
I223382
sg7
S'Corporate - Silver'
p278
sg9
g278
sg10
VBloomCSIL15BGenR2Q18Y
p279
sg12
Vhttp://52.8.24.90discount_code/?code=BloomCSIL15BGenR2Q18Y
p280
sg14
g15
sg16
g17
sg18
S'Wed, 13 May 2015 03:37:42 UTC'
p281
sg20
S'-100%'
p282
sg22
g279
sg23
I3
sa(dp283
g3
I78637801
sg4
g25
sg6
I223382
sg7
g278
sg9
g278
sg10
VBloomCSIL15BBoSR2Q18Y
p284
sg12
Vhttp://52.8.24.90discount_code/?code=BloomCSIL15BBoSR2Q18Y
p285
sg14
g28
sg16
g29
sg18
S'Wed, 13 May 2015 03:37:42 UTC'
p286
sg20
S'-100%'
p287
sg22
g284
sg23
I3
sa(dp288
g3
I78731228
sg4
g5
sg6
I223382
sg7
S'Corporate - Silver'
p289
sg9
g289
sg10
VPURE CSIL15BGenR2Q18U
p290
sg12
Vhttp://52.8.24.90discount_code/?code=PURE CSIL15BGenR2Q18U
p291
sg14
g15
sg16
g17
sg18
S'Wed, 13 May 2015 03:37:43 UTC'
p292
sg20
S'-100%'
p293
sg22
g290
sg23
I3
sa(dp294
g3
I78731228
sg4
g25
sg6
I223382
sg7
g289
sg9
g289
sg10
VPURE CSIL15BBoSR2Q18U
p295
sg12
Vhttp://52.8.24.90discount_code/?code=PURE CSIL15BBoSR2Q18U
p296
sg14
g28
sg16
g29
sg18
S'Wed, 13 May 2015 03:37:43 UTC'
p297
sg20
S'-100%'
p298
sg22
g295
sg23
I3
sa(dp299
g3
I78735834
sg4
g5
sg6
I223381
sg7
S'Corporate - Gold'
p300
sg9
g300
sg10
VSymanCGOLD15BGenR2Q15e
p301
sg12
Vhttp://52.8.24.90discount_code/?code=SymanCGOLD15BGenR2Q15e
p302
sg14
g15
sg16
g17
sg18
S'Wed, 13 May 2015 03:36:34 UTC'
p303
sg20
S'-100%'
p304
sg22
g301
sg23
I5
sa(dp305
g3
I78735834
sg4
g25
sg6
I223381
sg7
g300
sg9
g300
sg10
VSymanCGOLD15BBoSR2Q15e
p306
sg12
Vhttp://52.8.24.90discount_code/?code=SymanCGOLD15BBoSR2Q15e
p307
sg14
g28
sg16
g29
sg18
S'Wed, 13 May 2015 03:36:34 UTC'
p308
sg20
S'-100%'
p309
sg22
g306
sg23
I2
sa(dp310
g3
I78943484
sg4
g5
sg6
I223380
sg7
S'ABI Partners Only - Platinum'
p311
sg9
g311
sg10
VIntelPLAT15BGenR2Q12Q
p312
sg12
Vhttp://52.8.24.90discount_code/?code=IntelPLAT15BGenR2Q12Q
p313
sg14
g15
sg16
g17
sg18
S'Wed, 13 May 2015 03:35:27 UTC'
p314
sg20
S'-100%'
p315
sg22
g312
sg23
I10
sa(dp316
g3
I78943484
sg4
g25
sg6
I223380
sg7
g311
sg9
g311
sg10
VIntelPLAT15BBoSR2Q12Q
p317
sg12
Vhttp://52.8.24.90discount_code/?code=IntelPLAT15BBoSR2Q12Q
p318
sg14
g28
sg16
g29
sg18
S'Wed, 13 May 2015 03:35:27 UTC'
p319
sg20
S'-100%'
p320
sg22
g317
sg23
I8
sa(dp321
g3
I79019098
sg4
g25
sg6
I223382
sg7
S'Corporate - Silver'
p322
sg9
g322
sg10
VT. RoCSIL15BBoSR2Q17p
p323
sg12
Vhttp://52.8.24.90discount_code/?code=T. RoCSIL15BBoSR2Q17p
p324
sg14
g28
sg16
g29
sg18
S'Wed, 13 May 2015 03:37:25 UTC'
p325
sg20
S'-100%'
p326
sg22
g323
sg23
I3
sa(dp327
g3
I79019098
sg4
g5
sg6
I223382
sg7
g322
sg9
g322
sg10
VT. RoCSIL15BGenR2Q17p
p328
sg12
Vhttp://52.8.24.90discount_code/?code=T. RoCSIL15BGenR2Q17p
p329
sg14
g15
sg16
g17
sg18
S'Wed, 13 May 2015 03:37:25 UTC'
p330
sg20
S'-100%'
p331
sg22
g328
sg23
I3
sa(dp332
g3
I79027154
sg4
g5
sg6
I223382
sg7
S'Corporate - Silver'
p333
sg9
g333
sg10
VHubSpCSIL15BGenR2Q17u
p334
sg12
Vhttp://52.8.24.90discount_code/?code=HubSpCSIL15BGenR2Q17u
p335
sg14
g15
sg16
g17
sg18
S'Wed, 13 May 2015 03:37:27 UTC'
p336
sg20
S'-100%'
p337
sg22
g334
sg23
I3
sa(dp338
g3
I79027154
sg4
g25
sg6
I223382
sg7
g333
sg9
g333
sg10
VHubSpCSIL15BBoSR2Q17u
p339
sg12
Vhttp://52.8.24.90discount_code/?code=HubSpCSIL15BBoSR2Q17u
p340
sg14
g28
sg16
g29
sg18
S'Wed, 13 May 2015 03:37:27 UTC'
p341
sg20
S'-100%'
p342
sg22
g339
sg23
I3
sa(dp343
g3
I79043680
sg4
g25
sg6
I223381
sg7
S'Corporate - Gold'
p344
sg9
g344
sg10
VYelpCGOLD15BBoSR2Q15j
p345
sg12
Vhttp://52.8.24.90discount_code/?code=YelpCGOLD15BBoSR2Q15j
p346
sg14
g28
sg16
g29
sg18
S'Wed, 13 May 2015 03:36:36 UTC'
p347
sg20
S'-100%'
p348
sg22
g345
sg23
I2
sa(dp349
g3
I79043680
sg4
g5
sg6
I223381
sg7
g344
sg9
g344
sg10
VYelpCGOLD15BGenR2Q15j
p350
sg12
Vhttp://52.8.24.90discount_code/?code=YelpCGOLD15BGenR2Q15j
p351
sg14
g15
sg16
g17
sg18
S'Wed, 13 May 2015 03:36:36 UTC'
p352
sg20
S'-100%'
p353
sg22
g350
sg23
I5
sa(dp354
g3
I79052836
sg4
g33
sg6
I226598
sg7
S'Show Management'
p355
sg9
g355
sg10
VAnita152Q1AP
p356
sg12
Vhttp://52.8.24.90discount_code/?code=Anita152Q1AP
p357
sg14
g37
sg16
g38
sg18
S'Wed, 13 May 2015 03:38:23 UTC'
p358
sg20
S'-100%'
p359
sg22
g356
sg23
I1
sa(dp360
g3
I79052836
sg4
g33
sg6
I226598
sg7
g355
sg9
g355
sg10
VAnita15TEF2Q1AP
p361
sg12
Vhttp://52.8.24.90discount_code/?code=Anita15TEF2Q1AP
p362
sg14
g37
sg16
g38
sg18
S'Wed, 13 May 2015 03:38:23 UTC'
p363
sg20
S'-100%'
p364
sg22
g361
sg23
I2
sa(dp365
g3
I79141580
sg4
g25
sg6
I223381
sg7
S'Corporate - Gold'
p366
sg9
g366
sg10
VSalesCGOLD15BBoSR2Q14q
p367
sg12
Vhttp://52.8.24.90discount_code/?code=SalesCGOLD15BBoSR2Q14q
p368
sg14
g28
sg16
g29
sg18
S'Wed, 13 May 2015 03:36:18 UTC'
p369
sg20
S'-100%'
p370
sg22
g367
sg23
I2
sa(dp371
g3
I79141580
sg4
g5
sg6
I223381
sg7
VEnterprise Pack
p372
sg9
g366
sg10
VSales1510DGenR2Q14q
p373
sg12
Vhttp://52.8.24.90discount_code/?code=Sales1510DGenR2Q14q
p374
sg14
g15
sg16
g17
sg18
S'Wed, 13 May 2015 03:36:18 UTC'
p375
sg20
S'-100%'
p376
sg22
g373
sg23
I20
sa(dp377
g3
I79141580
sg4
g5
sg6
I223381
sg7
g366
sg9
g366
sg10
VSalesCGOLD15BGenR2Q14q
p378
sg12
Vhttp://52.8.24.90discount_code/?code=SalesCGOLD15BGenR2Q14q
p379
sg14
g15
sg16
g17
sg18
S'Wed, 13 May 2015 03:36:18 UTC'
p380
sg20
S'-100%'
p381
sg22
g378
sg23
I5
sa(dp382
g3
I79177074
sg4
g5
sg6
I226853
sg7
S'Lab & Non-Profit - Bronze'
p383
sg9
g383
sg10
VBlackL&NBRZ15BGenR2Q1Af
p384
sg12
Vhttp://52.8.24.90discount_code/?code=BlackL&NBRZ15BGenR2Q1Af
p385
sg14
g15
sg16
g17
sg18
S'Wed, 13 May 2015 03:38:29 UTC'
p386
sg20
S'-100%'
p387
sg22
g384
sg23
I1
sa(dp388
g3
I79196510
sg4
g5
sg6
I223381
sg7
S'Corporate - Gold'
p389
sg9
g389
sg10
VStateCGOLD15BGenR2Q14v
p390
sg12
Vhttp://52.8.24.90discount_code/?code=StateCGOLD15BGenR2Q14v
p391
sg14
g15
sg16
g17
sg18
S'Wed, 13 May 2015 03:36:19 UTC'
p392
sg20
S'-100%'
p393
sg22
g390
sg23
I5
sa(dp394
g3
I79196510
sg4
g25
sg6
I223381
sg7
g389
sg9
g389
sg10
VStateCGOLD15BBoSR2Q14v
p395
sg12
Vhttp://52.8.24.90discount_code/?code=StateCGOLD15BBoSR2Q14v
p396
sg14
g28
sg16
g29
sg18
S'Wed, 13 May 2015 03:36:19 UTC'
p397
sg20
S'-100%'
p398
sg22
g395
sg23
I2
sa(dp399
g3
I79208313
sg4
g5
sg6
I223381
sg7
S'Corporate - Gold'
p400
sg9
g400
sg10
VBNY MCGOLD15BGenR2Q150
p401
sg12
Vhttp://52.8.24.90discount_code/?code=BNY MCGOLD15BGenR2Q150
p402
sg14
g15
sg16
g17
sg18
S'Wed, 13 May 2015 03:36:21 UTC'
p403
sg20
S'-100%'
p404
sg22
g401
sg23
I5
sa(dp405
g3
I79208313
sg4
g25
sg6
I223381
sg7
g400
sg9
g400
sg10
VBNY MCGOLD15BBoSR2Q150
p406
sg12
Vhttp://52.8.24.90discount_code/?code=BNY MCGOLD15BBoSR2Q150
p407
sg14
g28
sg16
g29
sg18
S'Wed, 13 May 2015 03:36:21 UTC'
p408
sg20
S'-100%'
p409
sg22
g406
sg23
I2
sa(dp410
g3
I79217975
sg4
g5
sg6
I223380
sg7
S'ABI Partners Only - Platinum'
p411
sg9
g411
sg10
VCA TePLAT15BGenR2Q12V
p412
sg12
Vhttp://52.8.24.90discount_code/?code=CA TePLAT15BGenR2Q12V
p413
sg14
g15
sg16
g17
sg18
S'Wed, 13 May 2015 03:35:29 UTC'
p414
sg20
S'-100%'
p415
sg22
g412
sg23
I10
sa(dp416
g3
I79217975
sg4
g25
sg6
I223380
sg7
g411
sg9
g411
sg10
VCA TePLAT15BBoSR2Q12V
p417
sg12
Vhttp://52.8.24.90discount_code/?code=CA TePLAT15BBoSR2Q12V
p418
sg14
g28
sg16
g29
sg18
S'Wed, 13 May 2015 03:35:29 UTC'
p419
sg20
S'-100%'
p420
sg22
g417
sg23
I8
sa(dp421
g3
I79217975
sg4
g5
sg6
I223380
sg7
VEnterprise Pack
p422
sg9
g411
sg10
VCA Te1510DGenR2Q12V
p423
sg12
Vhttp://52.8.24.90discount_code/?code=CA Te1510DGenR2Q12V
p424
sg14
g15
sg16
g17
sg18
S'Wed, 13 May 2015 03:35:29 UTC'
p425
sg20
S'-100%'
p426
sg22
g423
sg23
I10
sa(dp427
g3
I79217975
sg4
g33
sg6
I223380
sg7
g411
sg9
g411
sg10
VCA Te152Q12V
p428
sg12
Vhttp://52.8.24.90discount_code/?code=CA Te152Q12V
p429
sg14
g37
sg16
g38
sg18
S'Wed, 13 May 2015 03:35:29 UTC'
p430
sg20
S'-100%'
p431
sg22
g428
sg23
I1
sa(dp432
g3
I79255748
sg4
g25
sg6
I223384
sg7
S'Academic - Silver'
p433
sg9
g433
sg10
VUT-DaACASIL15BBoSR2Q19C
p434
sg12
Vhttp://52.8.24.90discount_code/?code=UT-DaACASIL15BBoSR2Q19C
p435
sg14
g28
sg16
g29
sg18
S'Wed, 13 May 2015 03:37:57 UTC'
p436
sg20
S'-100%'
p437
sg22
g434
sg23
I3
sa(dp438
g3
I79255748
sg4
S'Academic'
p439
sg6
I223384
sg7
g433
sg9
g433
sg10
VUT-DaACASIL15BFacR2Q19C
p440
sg12
Vhttp://52.8.24.90discount_code/?code=UT-DaACASIL15BFacR2Q19C
p441
sg14
S'https://www.regonline.com?eventID=1702108&rTypeID=228783'
p442
sg16
S'academic_full'
p443
sg18
S'Wed, 13 May 2015 03:37:57 UTC'
p444
sg20
S'-100%'
p445
sg22
g440
sg23
I2
sa(dp446
g3
I79255748
sg4
S'Student 15% Off'
p447
sg6
I223384
sg7
g433
sg9
g433
sg10
VUT-DaACASIL15BStDc2Q19C
p448
sg12
Vhttp://52.8.24.90discount_code/?code=UT-DaACASIL15BStDc2Q19C
p449
sg14
S'https://www.regonline.com?eventID=1702108&rTypeID=228782'
p450
sg16
S'student_15'
p451
sg18
S'Wed, 13 May 2015 03:37:57 UTC'
p452
sg20
S'-15%'
p453
sg22
g448
sg23
I1
sa(dp454
g3
I79348115
sg4
g25
sg6
I223382
sg7
S'Corporate - Silver'
p455
sg9
g455
sg10
VSearsCSIL15BBoSR2Q17z
p456
sg12
Vhttp://52.8.24.90discount_code/?code=SearsCSIL15BBoSR2Q17z
p457
sg14
g28
sg16
g29
sg18
S'Wed, 13 May 2015 03:37:28 UTC'
p458
sg20
S'-100%'
p459
sg22
g456
sg23
I3
sa(dp460
g3
I79348115
sg4
g5
sg6
I223382
sg7
g455
sg9
g455
sg10
VSearsCSIL15BGenR2Q17z
p461
sg12
Vhttp://52.8.24.90discount_code/?code=SearsCSIL15BGenR2Q17z
p462
sg14
g15
sg16
g17
sg18
S'Wed, 13 May 2015 03:37:28 UTC'
p463
sg20
S'-100%'
p464
sg22
g461
sg23
I3
sa(dp465
g3
I79396333
sg4
g5
sg6
I226851
sg7
S'Lab & Non-Profit - Gold'
p466
sg9
g466
sg10
VMIT LL&NGOLD15BGenR2Q1AU
p467
sg12
Vhttp://52.8.24.90discount_code/?code=MIT LL&NGOLD15BGenR2Q1AU
p468
sg14
g15
sg16
g17
sg18
S'Wed, 13 May 2015 03:38:25 UTC'
p469
sg20
S'-100%'
p470
sg22
g467
sg23
I3
sa(dp471
g3
I79402913
sg4
g25
sg6
I223380
sg7
S'ABI Partners Only - Platinum'
p472
sg9
g472
sg10
VBank PLAT15BBoSR2Q12a
p473
sg12
Vhttp://52.8.24.90discount_code/?code=Bank PLAT15BBoSR2Q12a
p474
sg14
g28
sg16
g29
sg18
S'Wed, 13 May 2015 03:35:32 UTC'
p475
sg20
S'-100%'
p476
sg22
g473
sg23
I8
sa(dp477
g3
I79402913
sg4
g5
sg6
I223380
sg7
VEnterprise Pack
p478
sg9
g472
sg10
VBank 1510DGenR2Q12a
p479
sg12
Vhttp://52.8.24.90discount_code/?code=Bank 1510DGenR2Q12a
p480
sg14
g15
sg16
g17
sg18
S'Wed, 13 May 2015 03:35:32 UTC'
p481
sg20
S'-100%'
p482
sg22
g479
sg23
I50
sa(dp483
g3
I79402913
sg4
g5
sg6
I223380
sg7
g472
sg9
g472
sg10
VBank PLAT15BGenR2Q12a
p484
sg12
Vhttp://52.8.24.90discount_code/?code=Bank PLAT15BGenR2Q12a
p485
sg14
g15
sg16
g17
sg18
S'Wed, 13 May 2015 03:35:32 UTC'
p486
sg20
S'-100%'
p487
sg22
g484
sg23
I10
sa(dp488
g3
I79479575
sg4
g25
sg6
I223380
sg7
S'ABI Partners Only - Platinum'
p489
sg9
g489
sg10
VRacksPLAT15BBoSR2Q12f
p490
sg12
Vhttp://52.8.24.90discount_code/?code=RacksPLAT15BBoSR2Q12f
p491
sg14
g28
sg16
g29
sg18
S'Wed, 13 May 2015 03:35:33 UTC'
p492
sg20
S'-100%'
p493
sg22
g490
sg23
I8
sa(dp494
g3
I79479575
sg4
g5
sg6
I223380
sg7
g489
sg9
g489
sg10
VRacksPLAT15BGenR2Q12f
p495
sg12
Vhttp://52.8.24.90discount_code/?code=RacksPLAT15BGenR2Q12f
p496
sg14
g15
sg16
g17
sg18
S'Wed, 13 May 2015 03:35:33 UTC'
p497
sg20
S'-100%'
p498
sg22
g495
sg23
I10
sa(dp499
g3
I79584463
sg4
g5
sg6
I223381
sg7
S'Corporate - Gold'
p500
sg9
g500
sg10
VCrediCGOLD15BGenR2Q155
p501
sg12
Vhttp://52.8.24.90discount_code/?code=CrediCGOLD15BGenR2Q155
p502
sg14
g15
sg16
g17
sg18
S'Wed, 13 May 2015 03:36:23 UTC'
p503
sg20
S'-100%'
p504
sg22
g501
sg23
I5
sa(dp505
g3
I79584463
sg4
g25
sg6
I223381
sg7
g500
sg9
g500
sg10
VCrediCGOLD15BBoSR2Q155
p506
sg12
Vhttp://52.8.24.90discount_code/?code=CrediCGOLD15BBoSR2Q155
p507
sg14
g28
sg16
g29
sg18
S'Wed, 13 May 2015 03:36:23 UTC'
p508
sg20
S'-100%'
p509
sg22
g506
sg23
I2
sa(dp510
g3
I79599643
sg4
g33
sg6
I223380
sg7
S'ABI Partners Only - Platinum'
p511
sg9
g511
sg10
VThoms15TEF2Q12k
p512
sg12
Vhttp://52.8.24.90discount_code/?code=Thoms15TEF2Q12k
p513
sg14
g37
sg16
g38
sg18
S'Wed, 13 May 2015 03:35:35 UTC'
p514
sg20
S'-100%'
p515
sg22
g512
sg23
I1
sa(dp516
g3
I79599643
sg4
g5
sg6
I223380
sg7
g511
sg9
g511
sg10
VThomsPLAT15BGenR2Q12k
p517
sg12
Vhttp://52.8.24.90discount_code/?code=ThomsPLAT15BGenR2Q12k
p518
sg14
g15
sg16
g17
sg18
S'Wed, 13 May 2015 03:35:35 UTC'
p519
sg20
S'-100%'
p520
sg22
g517
sg23
I10
sa(dp521
g3
I79599643
sg4
g25
sg6
I223380
sg7
g511
sg9
g511
sg10
VThomsPLAT15BBoSR2Q12k
p522
sg12
Vhttp://52.8.24.90discount_code/?code=ThomsPLAT15BBoSR2Q12k
p523
sg14
g28
sg16
g29
sg18
S'Wed, 13 May 2015 03:35:35 UTC'
p524
sg20
S'-100%'
p525
sg22
g522
sg23
I8
sa(dp526
g3
I79600826
sg4
g5
sg6
I223381
sg7
S'Corporate - Gold'
p527
sg9
g527
sg10
VAT&TCGOLD15BGenR2Q15A
p528
sg12
Vhttp://52.8.24.90discount_code/?code=AT&TCGOLD15BGenR2Q15A
p529
sg14
g15
sg16
g17
sg18
S'Wed, 13 May 2015 03:36:24 UTC'
p530
sg20
S'-100%'
p531
sg22
g528
sg23
I5
sa(dp532
g3
I79600826
sg4
g25
sg6
I223381
sg7
g527
sg9
g527
sg10
VAT&TCGOLD15BBoSR2Q15A
p533
sg12
Vhttp://52.8.24.90discount_code/?code=AT&TCGOLD15BBoSR2Q15A
p534
sg14
g28
sg16
g29
sg18
S'Wed, 13 May 2015 03:36:24 UTC'
p535
sg20
S'-100%'
p536
sg22
g533
sg23
I2
sa(dp537
g3
I79609919
sg4
g25
sg6
I223380
sg7
S'ABI Partners Only - Platinum'
p538
sg9
g538
sg10
VVMwarPLAT15BBoSR2Q12p
p539
sg12
Vhttp://52.8.24.90discount_code/?code=VMwarPLAT15BBoSR2Q12p
p540
sg14
g28
sg16
g29
sg18
S'Wed, 13 May 2015 03:35:37 UTC'
p541
sg20
S'-100%'
p542
sg22
g539
sg23
I8
sa(dp543
g3
I79609919
sg4
g5
sg6
I223380
sg7
g538
sg9
g538
sg10
VVMwarPLAT15BGenR2Q12p
p544
sg12
Vhttp://52.8.24.90discount_code/?code=VMwarPLAT15BGenR2Q12p
p545
sg14
g15
sg16
g17
sg18
S'Wed, 13 May 2015 03:35:37 UTC'
p546
sg20
S'-100%'
p547
sg22
g544
sg23
I10
sa(dp548
g3
I79699190
sg4
g5
sg6
I223380
sg7
S'ABI Partners Only - Platinum'
p549
sg9
g549
sg10
VLinkePLAT15BGenR2Q121
p550
sg12
Vhttp://52.8.24.90discount_code/?code=LinkePLAT15BGenR2Q121
p551
sg14
g15
sg16
g17
sg18
S'Wed, 13 May 2015 03:35:18 UTC'
p552
sg20
S'-100%'
p553
sg22
g550
sg23
I10
sa(dp554
g3
I79699190
sg4
g25
sg6
I223380
sg7
g549
sg9
g549
sg10
VLinkePLAT15BBoSR2Q121
p555
sg12
Vhttp://52.8.24.90discount_code/?code=LinkePLAT15BBoSR2Q121
p556
sg14
g28
sg16
g29
sg18
S'Wed, 13 May 2015 03:35:18 UTC'
p557
sg20
S'-100%'
p558
sg22
g555
sg23
I8
sa(dp559
g3
I79781177
sg4
g5
sg6
I223379
sg7
S'ABI Partners Only - Diamond'
p560
sg9
g560
sg10
VCiscoDIA15BGenR2Q10y
p561
sg12
Vhttp://52.8.24.90discount_code/?code=CiscoDIA15BGenR2Q10y
p562
sg14
g15
sg16
g17
sg18
S'Wed, 13 May 2015 03:34:52 UTC'
p563
sg20
S'-100%'
p564
sg22
g561
sg23
I20
sa(dp565
g3
I79781177
sg4
g25
sg6
I223379
sg7
g560
sg9
g560
sg10
VCiscoDIA15BBoSR2Q10y
p566
sg12
Vhttp://52.8.24.90discount_code/?code=CiscoDIA15BBoSR2Q10y
p567
sg14
g28
sg16
g29
sg18
S'Wed, 13 May 2015 03:34:52 UTC'
p568
sg20
S'-100%'
p569
sg22
g566
sg23
I8
sa(dp570
g3
I79788597
sg4
g439
sg6
I223379
sg7
S'ABI Partners Only - Diamond'
p571
sg9
g571
sg10
VApple15BulkA2Q113
p572
sg12
Vhttp://52.8.24.90discount_code/?code=Apple15BulkA2Q113
p573
sg14
g442
sg16
g443
sg18
S'Thu, 14 May 2015 04:46:56 UTC'
p574
sg20
S'-100%'
p575
sg22
g572
sg23
I10
sa(dp576
g3
I79788597
sg4
g25
sg6
I223379
sg7
g571
sg9
g571
sg10
VAppleDIA15BBoSR2Q113
p577
sg12
Vhttp://52.8.24.90discount_code/?code=AppleDIA15BBoSR2Q113
p578
sg14
g28
sg16
g29
sg18
S'Thu, 14 May 2015 04:46:56 UTC'
p579
sg20
S'-100%'
p580
sg22
g577
sg23
I8
sa(dp581
g3
I79788597
sg4
g5
sg6
I223379
sg7
g571
sg9
g571
sg10
VAppleDIA15BGenR2Q113
p582
sg12
Vhttp://52.8.24.90discount_code/?code=AppleDIA15BGenR2Q113
p583
sg14
g15
sg16
g17
sg18
S'Thu, 14 May 2015 04:46:56 UTC'
p584
sg20
S'-100%'
p585
sg22
g582
sg23
I20
sa(dp586
g3
I79831298
sg4
g5
sg6
I223380
sg7
S'ABI Partners Only - Platinum'
p587
sg9
g587
sg10
VFacebPLAT15BGenR2Q126
p588
sg12
Vhttp://52.8.24.90discount_code/?code=FacebPLAT15BGenR2Q126
p589
sg14
g15
sg16
g17
sg18
S'Wed, 13 May 2015 03:35:19 UTC'
p590
sg20
S'-100%'
p591
sg22
g588
sg23
I10
sa(dp592
g3
I79831298
sg4
g33
sg6
I223380
sg7
g587
sg9
g587
sg10
VFaceb152Q126
p593
sg12
Vhttp://52.8.24.90discount_code/?code=Faceb152Q126
p594
sg14
g37
sg16
g38
sg18
S'Wed, 13 May 2015 03:35:19 UTC'
p595
sg20
S'-100%'
p596
sg22
g593
sg23
I1
sa(dp597
g3
I79831298
sg4
g25
sg6
I223380
sg7
g587
sg9
g587
sg10
VFacebPLAT15BBoSR2Q126
p598
sg12
Vhttp://52.8.24.90discount_code/?code=FacebPLAT15BBoSR2Q126
p599
sg14
g28
sg16
g29
sg18
S'Wed, 13 May 2015 03:35:19 UTC'
p600
sg20
S'-100%'
p601
sg22
g598
sg23
I8
sa(dp602
g3
I79831591
sg4
g439
sg6
I223384
sg7
S'Academic - Silver'
p603
sg9
g603
sg10
VDuke ACASIL15BFacR2Q19H
p604
sg12
Vhttp://52.8.24.90discount_code/?code=Duke ACASIL15BFacR2Q19H
p605
sg14
g442
sg16
g443
sg18
S'Wed, 13 May 2015 03:37:58 UTC'
p606
sg20
S'-100%'
p607
sg22
g604
sg23
I2
sa(dp608
g3
I79831591
sg4
g25
sg6
I223384
sg7
g603
sg9
g603
sg10
VDuke ACASIL15BBoSR2Q19H
p609
sg12
Vhttp://52.8.24.90discount_code/?code=Duke ACASIL15BBoSR2Q19H
p610
sg14
g28
sg16
g29
sg18
S'Wed, 13 May 2015 03:37:58 UTC'
p611
sg20
S'-100%'
p612
sg22
g609
sg23
I3
sa(dp613
g3
I79831591
sg4
g447
sg6
I223384
sg7
g603
sg9
g603
sg10
VDuke ACASIL15BStDc2Q19H
p614
sg12
Vhttp://52.8.24.90discount_code/?code=Duke ACASIL15BStDc2Q19H
p615
sg14
g450
sg16
S'student_15'
p616
sg18
S'Wed, 13 May 2015 03:37:58 UTC'
p617
sg20
S'-15%'
p618
sg22
g614
sg23
I1
sa(dp619
g3
I79855196
sg4
g5
sg6
I223380
sg7
S'ABI Partners Only - Platinum'
p620
sg9
g620
sg10
VHewlePLAT15BGenR2Q12B
p621
sg12
Vhttp://52.8.24.90discount_code/?code=HewlePLAT15BGenR2Q12B
p622
sg14
g15
sg16
g17
sg18
S'Wed, 13 May 2015 03:35:21 UTC'
p623
sg20
S'-100%'
p624
sg22
g621
sg23
I10
sa(dp625
g3
I79855196
sg4
g25
sg6
I223380
sg7
g620
sg9
g620
sg10
VHewlePLAT15BBoSR2Q12B
p626
sg12
Vhttp://52.8.24.90discount_code/?code=HewlePLAT15BBoSR2Q12B
p627
sg14
g28
sg16
g29
sg18
S'Wed, 13 May 2015 03:35:21 UTC'
p628
sg20
S'-100%'
p629
sg22
g626
sg23
I8
sa(dp630
g3
I79855196
sg4
g5
sg6
I223380
sg7
VEnterprise Pack
p631
sg9
g620
sg10
VHewle1510DGenR2Q12B
p632
sg12
Vhttp://52.8.24.90discount_code/?code=Hewle1510DGenR2Q12B
p633
sg14
g15
sg16
g17
sg18
S'Wed, 13 May 2015 03:35:21 UTC'
p634
sg20
S'-100%'
p635
sg22
g632
sg23
I60
sa(dp636
g3
I79858835
sg4
g25
sg6
I223379
sg7
S'ABI Partners Only - Diamond'
p637
sg9
g637
sg10
VMicroDIA15BBoSR2Q11D
p638
sg12
Vhttp://52.8.24.90discount_code/?code=MicroDIA15BBoSR2Q11D
p639
sg14
g28
sg16
g29
sg18
S'Wed, 13 May 2015 03:34:57 UTC'
p640
sg20
S'-100%'
p641
sg22
g638
sg23
I8
sa(dp642
g3
I79858835
sg4
g5
sg6
I223379
sg7
g637
sg9
g637
sg10
VMicroDIA15BGenR2Q11D
p643
sg12
Vhttp://52.8.24.90discount_code/?code=MicroDIA15BGenR2Q11D
p644
sg14
g15
sg16
g17
sg18
S'Wed, 13 May 2015 03:34:57 UTC'
p645
sg20
S'-100%'
p646
sg22
g643
sg23
I20
sa(dp647
g3
I79882696
sg4
g5
sg6
I223382
sg7
S'Corporate - Silver'
p648
sg9
g648
sg10
VFast CSIL15BGenR2Q184
p649
sg12
Vhttp://52.8.24.90discount_code/?code=Fast CSIL15BGenR2Q184
p650
sg14
g15
sg16
g17
sg18
S'Wed, 13 May 2015 03:37:30 UTC'
p651
sg20
S'-100%'
p652
sg22
g649
sg23
I3
sa(dp653
g3
I79882696
sg4
g25
sg6
I223382
sg7
g648
sg9
g648
sg10
VFast CSIL15BBoSR2Q184
p654
sg12
Vhttp://52.8.24.90discount_code/?code=Fast CSIL15BBoSR2Q184
p655
sg14
g28
sg16
g29
sg18
S'Wed, 13 May 2015 03:37:30 UTC'
p656
sg20
S'-100%'
p657
sg22
g654
sg23
I3
sa(dp658
g3
I79884963
sg4
g33
sg6
I223380
sg7
S'ABI Partners Only - Platinum'
p659
sg9
g659
sg10
VQualc152Q12G
p660
sg12
Vhttp://52.8.24.90discount_code/?code=Qualc152Q12G
p661
sg14
g37
sg16
g38
sg18
S'Wed, 13 May 2015 03:35:23 UTC'
p662
sg20
S'-100%'
p663
sg22
g660
sg23
I1
sa(dp664
g3
I79884963
sg4
g25
sg6
I223380
sg7
g659
sg9
g659
sg10
VQualcPLAT15BBoSR2Q12G
p665
sg12
Vhttp://52.8.24.90discount_code/?code=QualcPLAT15BBoSR2Q12G
p666
sg14
g28
sg16
g29
sg18
S'Wed, 13 May 2015 03:35:23 UTC'
p667
sg20
S'-100%'
p668
sg22
g665
sg23
I8
sa(dp669
g3
I79884963
sg4
g5
sg6
I223380
sg7
g659
sg9
g659
sg10
VQualcPLAT15BGenR2Q12G
p670
sg12
Vhttp://52.8.24.90discount_code/?code=QualcPLAT15BGenR2Q12G
p671
sg14
g15
sg16
g17
sg18
S'Wed, 13 May 2015 03:35:23 UTC'
p672
sg20
S'-100%'
p673
sg22
g670
sg23
I10
sa(dp674
g3
I79894238
sg4
g25
sg6
I223381
sg7
S'Corporate - Gold'
p675
sg9
g675
sg10
VBookiCGOLD15BBoSR2Q15F
p676
sg12
Vhttp://52.8.24.90discount_code/?code=BookiCGOLD15BBoSR2Q15F
p677
sg14
g28
sg16
g29
sg18
S'Wed, 13 May 2015 03:36:26 UTC'
p678
sg20
S'-100%'
p679
sg22
g676
sg23
I2
sa(dp680
g3
I79894238
sg4
g5
sg6
I223381
sg7
g675
sg9
g675
sg10
VBookiCGOLD15BGenR2Q15F
p681
sg12
Vhttp://52.8.24.90discount_code/?code=BookiCGOLD15BGenR2Q15F
p682
sg14
g15
sg16
g17
sg18
S'Wed, 13 May 2015 03:36:26 UTC'
p683
sg20
S'-100%'
p684
sg22
g681
sg23
I5
sa(dp685
g3
I79951282
sg4
g25
sg6
I223380
sg7
S'ABI Partners Only - Platinum'
p686
sg9
g686
sg10
VMastePLAT15BBoSR2Q12L
p687
sg12
Vhttp://52.8.24.90discount_code/?code=MastePLAT15BBoSR2Q12L
p688
sg14
g28
sg16
g29
sg18
S'Wed, 13 May 2015 03:35:24 UTC'
p689
sg20
S'-100%'
p690
sg22
g687
sg23
I8
sa(dp691
g3
I79951282
sg4
g5
sg6
I223380
sg7
g686
sg9
g686
sg10
VMastePLAT15BGenR2Q12L
p692
sg12
Vhttp://52.8.24.90discount_code/?code=MastePLAT15BGenR2Q12L
p693
sg14
g15
sg16
g17
sg18
S'Wed, 13 May 2015 03:35:24 UTC'
p694
sg20
S'-100%'
p695
sg22
g692
sg23
I10
sa(dp696
g3
I80018305
sg4
g5
sg6
I223381
sg7
S'Corporate - Gold'
p697
sg9
g697
sg10
VViaSaCGOLD15BGenR2Q14M
p698
sg12
Vhttp://52.8.24.90discount_code/?code=ViaSaCGOLD15BGenR2Q14M
p699
sg14
g15
sg16
g17
sg18
S'Wed, 13 May 2015 03:36:07 UTC'
p700
sg20
S'-100%'
p701
sg22
g698
sg23
I5
sa(dp702
g3
I80018305
sg4
g25
sg6
I223381
sg7
g697
sg9
g697
sg10
VViaSaCGOLD15BBoSR2Q14M
p703
sg12
Vhttp://52.8.24.90discount_code/?code=ViaSaCGOLD15BBoSR2Q14M
p704
sg14
g28
sg16
g29
sg18
S'Wed, 13 May 2015 03:36:07 UTC'
p705
sg20
S'-100%'
p706
sg22
g703
sg23
I2
sa(dp707
g3
I80033203
sg4
g5
sg6
I223381
sg7
S'Corporate - Gold'
p708
sg9
g708
sg10
VMarkeCGOLD15BGenR2Q14R
p709
sg12
Vhttp://52.8.24.90discount_code/?code=MarkeCGOLD15BGenR2Q14R
p710
sg14
g15
sg16
g17
sg18
S'Wed, 13 May 2015 03:36:09 UTC'
p711
sg20
S'-100%'
p712
sg22
g709
sg23
I5
sa(dp713
g3
I80033203
sg4
g25
sg6
I223381
sg7
g708
sg9
g708
sg10
VMarkeCGOLD15BBoSR2Q14R
p714
sg12
Vhttp://52.8.24.90discount_code/?code=MarkeCGOLD15BBoSR2Q14R
p715
sg14
g28
sg16
g29
sg18
S'Wed, 13 May 2015 03:36:09 UTC'
p716
sg20
S'-100%'
p717
sg22
g714
sg23
I2
sa(dp718
g3
I80133227
sg4
g25
sg6
I223384
sg7
S'Academic - Silver'
p719
sg9
g719
sg10
VNorthACASIL15BBoSR2Q19M
p720
sg12
Vhttp://52.8.24.90discount_code/?code=NorthACASIL15BBoSR2Q19M
p721
sg14
g28
sg16
g29
sg18
S'Wed, 13 May 2015 03:38:00 UTC'
p722
sg20
S'-100%'
p723
sg22
g720
sg23
I3
sa(dp724
g3
I80133227
sg4
g439
sg6
I223384
sg7
g719
sg9
g719
sg10
VNorthACASIL15BFacR2Q19M
p725
sg12
Vhttp://52.8.24.90discount_code/?code=NorthACASIL15BFacR2Q19M
p726
sg14
g442
sg16
g443
sg18
S'Wed, 13 May 2015 03:38:00 UTC'
p727
sg20
S'-100%'
p728
sg22
g725
sg23
I2
sa(dp729
g3
I80133227
sg4
g447
sg6
I223384
sg7
g719
sg9
g719
sg10
VNorthACASIL15BStDc2Q19M
p730
sg12
Vhttp://52.8.24.90discount_code/?code=NorthACASIL15BStDc2Q19M
p731
sg14
g450
sg16
S'student_15'
p732
sg18
S'Wed, 13 May 2015 03:38:00 UTC'
p733
sg20
S'-15%'
p734
sg22
g730
sg23
I1
sa(dp735
g3
I80138213
sg4
S'Student 10% Off'
p736
sg6
I223385
sg7
S'Academic - Bronze'
p737
sg9
g737
sg10
VSteveACABRZ15BStDc2Q1AK
p738
sg12
Vhttp://52.8.24.90discount_code/?code=SteveACABRZ15BStDc2Q1AK
p739
sg14
g450
sg16
S'student_10'
p740
sg18
S'Wed, 13 May 2015 03:38:21 UTC'
p741
sg20
S'-10%'
p742
sg22
g738
sg23
I1
sa(dp743
g3
I80138213
sg4
g439
sg6
I223385
sg7
g737
sg9
g737
sg10
VSteveACABRZ15BFacR2Q1AK
p744
sg12
Vhttp://52.8.24.90discount_code/?code=SteveACABRZ15BFacR2Q1AK
p745
sg14
g442
sg16
g443
sg18
S'Wed, 13 May 2015 03:38:21 UTC'
p746
sg20
S'-100%'
p747
sg22
g744
sg23
I1
sa(dp748
g3
I80144405
sg4
g25
sg6
I223382
sg7
S'Corporate - Silver'
p749
sg9
g749
sg10
VThumbCSIL15BBoSR2Q189
p750
sg12
Vhttp://52.8.24.90discount_code/?code=ThumbCSIL15BBoSR2Q189
p751
sg14
g28
sg16
g29
sg18
S'Wed, 13 May 2015 03:37:32 UTC'
p752
sg20
S'-100%'
p753
sg22
g750
sg23
I3
sa(dp754
g3
I80144405
sg4
g5
sg6
I223382
sg7
g749
sg9
g749
sg10
VThumbCSIL15BGenR2Q189
p755
sg12
Vhttp://52.8.24.90discount_code/?code=ThumbCSIL15BGenR2Q189
p756
sg14
g15
sg16
g17
sg18
S'Wed, 13 May 2015 03:37:32 UTC'
p757
sg20
S'-100%'
p758
sg22
g755
sg23
I3
sa(dp759
g3
I80146318
sg4
g5
sg6
I223381
sg7
S'Corporate - Gold'
p760
sg9
g760
sg10
VTwittCGOLD15BGenR2Q14W
p761
sg12
Vhttp://52.8.24.90discount_code/?code=TwittCGOLD15BGenR2Q14W
p762
sg14
g15
sg16
g17
sg18
S'Wed, 13 May 2015 03:36:11 UTC'
p763
sg20
S'-100%'
p764
sg22
g761
sg23
I5
sa(dp765
g3
I80146318
sg4
g25
sg6
I223381
sg7
g760
sg9
g760
sg10
VTwittCGOLD15BBoSR2Q14W
p766
sg12
Vhttp://52.8.24.90discount_code/?code=TwittCGOLD15BBoSR2Q14W
p767
sg14
g28
sg16
g29
sg18
S'Wed, 13 May 2015 03:36:11 UTC'
p768
sg20
S'-100%'
p769
sg22
g766
sg23
I2
sa(dp770
g3
I80166458
sg4
g5
sg6
I223381
sg7
S'Corporate - Gold'
p771
sg9
g771
sg10
VTripACGOLD15BGenR2Q14b
p772
sg12
Vhttp://52.8.24.90discount_code/?code=TripACGOLD15BGenR2Q14b
p773
sg14
g15
sg16
g17
sg18
S'Wed, 13 May 2015 03:36:12 UTC'
p774
sg20
S'-100%'
p775
sg22
g772
sg23
I5
sa(dp776
g3
I80166458
sg4
g25
sg6
I223381
sg7
g771
sg9
g771
sg10
VTripACGOLD15BBoSR2Q14b
p777
sg12
Vhttp://52.8.24.90discount_code/?code=TripACGOLD15BBoSR2Q14b
p778
sg14
g28
sg16
g29
sg18
S'Wed, 13 May 2015 03:36:12 UTC'
p779
sg20
S'-100%'
p780
sg22
g777
sg23
I2
sa(dp781
g3
I80171568
sg4
g25
sg6
I223382
sg7
S'Corporate - Silver'
p782
sg9
g782
sg10
VAppirCSIL15BBoSR2Q18E
p783
sg12
Vhttp://52.8.24.90discount_code/?code=AppirCSIL15BBoSR2Q18E
p784
sg14
g28
sg16
g29
sg18
S'Wed, 13 May 2015 03:37:34 UTC'
p785
sg20
S'-100%'
p786
sg22
g783
sg23
I3
sa(dp787
g3
I80171568
sg4
g5
sg6
I223382
sg7
g782
sg9
g782
sg10
VAppirCSIL15BGenR2Q18E
p788
sg12
Vhttp://52.8.24.90discount_code/?code=AppirCSIL15BGenR2Q18E
p789
sg14
g15
sg16
g17
sg18
S'Wed, 13 May 2015 03:37:34 UTC'
p790
sg20
S'-100%'
p791
sg22
g788
sg23
I3
sa(dp792
g3
I80173047
sg4
g5
sg6
I223382
sg7
S'Corporate - Silver'
p793
sg9
g793
sg10
VNorthCSIL15BGenR2Q17Q
p794
sg12
Vhttp://52.8.24.90discount_code/?code=NorthCSIL15BGenR2Q17Q
p795
sg14
g15
sg16
g17
sg18
S'Wed, 13 May 2015 03:37:16 UTC'
p796
sg20
S'-100%'
p797
sg22
g794
sg23
I3
sa(dp798
g3
I80173047
sg4
g25
sg6
I223382
sg7
g793
sg9
g793
sg10
VNorthCSIL15BBoSR2Q17Q
p799
sg12
Vhttp://52.8.24.90discount_code/?code=NorthCSIL15BBoSR2Q17Q
p800
sg14
g28
sg16
g29
sg18
S'Wed, 13 May 2015 03:37:16 UTC'
p801
sg20
S'-100%'
p802
sg22
g799
sg23
I3
sa(dp803
g3
I80173980
sg4
g5
sg6
I223382
sg7
S'Corporate - Silver'
p804
sg9
g804
sg10
VOptimCSIL15BGenR2Q17V
p805
sg12
Vhttp://52.8.24.90discount_code/?code=OptimCSIL15BGenR2Q17V
p806
sg14
g15
sg16
g17
sg18
S'Wed, 13 May 2015 03:37:17 UTC'
p807
sg20
S'-100%'
p808
sg22
g805
sg23
I3
sa(dp809
g3
I80173980
sg4
g25
sg6
I223382
sg7
g804
sg9
g804
sg10
VOptimCSIL15BBoSR2Q17V
p810
sg12
Vhttp://52.8.24.90discount_code/?code=OptimCSIL15BBoSR2Q17V
p811
sg14
g28
sg16
g29
sg18
S'Wed, 13 May 2015 03:37:17 UTC'
p812
sg20
S'-100%'
p813
sg22
g810
sg23
I3
sa(dp814
g3
I80216188
sg4
g25
sg6
I223380
sg7
S'ABI Partners Only - Platinum'
p815
sg9
g815
sg10
VAirbnPLAT15BBoSR2Q12H
p816
sg12
Vhttp://52.8.24.90discount_code/?code=AirbnPLAT15BBoSR2Q12H
p817
sg14
g28
sg16
g29
sg18
S'Wed, 13 May 2015 03:35:26 UTC'
p818
sg20
S'-100%'
p819
sg22
g816
sg23
I8
sa(dp820
g3
I80216188
sg4
g5
sg6
I223380
sg7
g815
sg9
g815
sg10
VAirbnPLAT15BGenR2Q12H
p821
sg12
Vhttp://52.8.24.90discount_code/?code=AirbnPLAT15BGenR2Q12H
p822
sg14
g15
sg16
g17
sg18
S'Wed, 13 May 2015 03:35:26 UTC'
p823
sg20
S'-100%'
p824
sg22
g821
sg23
I10
sa(dp825
g3
I80219214
sg4
g25
sg6
I223381
sg7
S'Corporate - Gold'
p826
sg9
g826
sg10
VLiberCGOLD15BBoSR2Q14g
p827
sg12
Vhttp://52.8.24.90discount_code/?code=LiberCGOLD15BBoSR2Q14g
p828
sg14
g28
sg16
g29
sg18
S'Wed, 13 May 2015 03:36:14 UTC'
p829
sg20
S'-100%'
p830
sg22
g827
sg23
I2
sa(dp831
g3
I80219214
sg4
g5
sg6
I223381
sg7
g826
sg9
g826
sg10
VLiberCGOLD15BGenR2Q14g
p832
sg12
Vhttp://52.8.24.90discount_code/?code=LiberCGOLD15BGenR2Q14g
p833
sg14
g15
sg16
g17
sg18
S'Wed, 13 May 2015 03:36:14 UTC'
p834
sg20
S'-100%'
p835
sg22
g832
sg23
I5
sa(dp836
g3
I80257688
sg4
g439
sg6
I223385
sg7
S'Academic - Bronze'
p837
sg9
g837
sg10
VUniveACABRZ15BFacR2Q19l
p838
sg12
Vhttp://52.8.24.90discount_code/?code=UniveACABRZ15BFacR2Q19l
p839
sg14
g442
sg16
g443
sg18
S'Wed, 13 May 2015 03:38:09 UTC'
p840
sg20
S'-100%'
p841
sg22
g838
sg23
I1
sa(dp842
g3
I80257688
sg4
g736
sg6
I223385
sg7
g837
sg9
g837
sg10
VUniveACABRZ15BStDc2Q19l
p843
sg12
Vhttp://52.8.24.90discount_code/?code=UniveACABRZ15BStDc2Q19l
p844
sg14
g450
sg16
S'student_10'
p845
sg18
S'Wed, 13 May 2015 03:38:09 UTC'
p846
sg20
S'-10%'
p847
sg22
g843
sg23
I1
sa(dp848
g3
I80275681
sg4
g25
sg6
I223381
sg7
S'Corporate - Gold'
p849
sg9
g849
sg10
VMylanCGOLD15BBoSR2Q14l
p850
sg12
Vhttp://52.8.24.90discount_code/?code=MylanCGOLD15BBoSR2Q14l
p851
sg14
g28
sg16
g29
sg18
S'Wed, 13 May 2015 03:36:16 UTC'
p852
sg20
S'-100%'
p853
sg22
g850
sg23
I2
sa(dp854
g3
I80275681
sg4
g5
sg6
I223381
sg7
g849
sg9
g849
sg10
VMylanCGOLD15BGenR2Q14l
p855
sg12
Vhttp://52.8.24.90discount_code/?code=MylanCGOLD15BGenR2Q14l
p856
sg14
g15
sg16
g17
sg18
S'Wed, 13 May 2015 03:36:16 UTC'
p857
sg20
S'-100%'
p858
sg22
g855
sg23
I5
sa(dp859
g3
I80282733
sg4
g5
sg6
I223382
sg7
S'Corporate - Silver'
p860
sg9
g860
sg10
VSamsuCSIL15BGenR2Q17a
p861
sg12
Vhttp://52.8.24.90discount_code/?code=SamsuCSIL15BGenR2Q17a
p862
sg14
g15
sg16
g17
sg18
S'Wed, 13 May 2015 03:37:19 UTC'
p863
sg20
S'-100%'
p864
sg22
g861
sg23
I3
sa(dp865
g3
I80282733
sg4
g25
sg6
I223382
sg7
g860
sg9
g860
sg10
VSamsuCSIL15BBoSR2Q17a
p866
sg12
Vhttp://52.8.24.90discount_code/?code=SamsuCSIL15BBoSR2Q17a
p867
sg14
g28
sg16
g29
sg18
S'Wed, 13 May 2015 03:37:19 UTC'
p868
sg20
S'-100%'
p869
sg22
g866
sg23
I3
sa(dp870
g3
I80332293
sg4
g5
sg6
I223381
sg7
S'Corporate - Gold'
p871
sg9
g871
sg10
VZenPaCGOLD15BGenR2Q13x
p872
sg12
Vhttp://52.8.24.90discount_code/?code=ZenPaCGOLD15BGenR2Q13x
p873
sg14
g15
sg16
g17
sg18
S'Wed, 13 May 2015 03:35:59 UTC'
p874
sg20
S'-100%'
p875
sg22
g872
sg23
I5
sa(dp876
g3
I80332293
sg4
g25
sg6
I223381
sg7
g871
sg9
g871
sg10
VZenPaCGOLD15BBoSR2Q13x
p877
sg12
Vhttp://52.8.24.90discount_code/?code=ZenPaCGOLD15BBoSR2Q13x
p878
sg14
g28
sg16
g29
sg18
S'Wed, 13 May 2015 03:35:59 UTC'
p879
sg20
S'-100%'
p880
sg22
g877
sg23
I2
sa(dp881
g3
I80376014
sg4
g25
sg6
I223381
sg7
S'Corporate - Gold'
p882
sg9
g882
sg10
VGroupCGOLD15BBoSR2Q142
p883
sg12
Vhttp://52.8.24.90discount_code/?code=GroupCGOLD15BBoSR2Q142
p884
sg14
g28
sg16
g29
sg18
S'Wed, 13 May 2015 03:36:00 UTC'
p885
sg20
S'-100%'
p886
sg22
g883
sg23
I2
sa(dp887
g3
I80376014
sg4
g5
sg6
I223381
sg7
g882
sg9
g882
sg10
VGroupCGOLD15BGenR2Q142
p888
sg12
Vhttp://52.8.24.90discount_code/?code=GroupCGOLD15BGenR2Q142
p889
sg14
g15
sg16
g17
sg18
S'Wed, 13 May 2015 03:36:00 UTC'
p890
sg20
S'-100%'
p891
sg22
g888
sg23
I5
sa(dp892
g3
I80426701
sg4
g25
sg6
I223381
sg7
S'Corporate - Gold'
p893
sg9
g893
sg10
VBrainCGOLD15BBoSR2Q147
p894
sg12
Vhttp://52.8.24.90discount_code/?code=BrainCGOLD15BBoSR2Q147
p895
sg14
g28
sg16
g29
sg18
S'Wed, 13 May 2015 03:36:02 UTC'
p896
sg20
S'-100%'
p897
sg22
g894
sg23
I2
sa(dp898
g3
I80426701
sg4
g5
sg6
I223381
sg7
g893
sg9
g893
sg10
VBrainCGOLD15BGenR2Q147
p899
sg12
Vhttp://52.8.24.90discount_code/?code=BrainCGOLD15BGenR2Q147
p900
sg14
g15
sg16
g17
sg18
S'Wed, 13 May 2015 03:36:02 UTC'
p901
sg20
S'-100%'
p902
sg22
g899
sg23
I5
sa(dp903
g3
I80458976
sg4
g25
sg6
I223381
sg7
S'Corporate - Gold'
p904
sg9
g904
sg10
VPwCCGOLD15BBoSR2Q14C
p905
sg12
Vhttp://52.8.24.90discount_code/?code=PwCCGOLD15BBoSR2Q14C
p906
sg14
g28
sg16
g29
sg18
S'Wed, 13 May 2015 03:36:04 UTC'
p907
sg20
S'-100%'
p908
sg22
g905
sg23
I2
sa(dp909
g3
I80458976
sg4
g5
sg6
I223381
sg7
g904
sg9
g904
sg10
VPwCCGOLD15BGenR2Q14C
p910
sg12
Vhttp://52.8.24.90discount_code/?code=PwCCGOLD15BGenR2Q14C
p911
sg14
g15
sg16
g17
sg18
S'Wed, 13 May 2015 03:36:04 UTC'
p912
sg20
S'-100%'
p913
sg22
g910
sg23
I5
sa(dp914
g3
I80479404
sg4
g25
sg6
I223382
sg7
S'Corporate - Silver'
p915
sg9
g915
sg10
VSequoCSIL15BBoSR2Q17f
p916
sg12
Vhttp://52.8.24.90discount_code/?code=SequoCSIL15BBoSR2Q17f
p917
sg14
g28
sg16
g29
sg18
S'Wed, 13 May 2015 03:37:20 UTC'
p918
sg20
S'-100%'
p919
sg22
g916
sg23
I3
sa(dp920
g3
I80479404
sg4
g5
sg6
I223382
sg7
g915
sg9
g915
sg10
VSequoCSIL15BGenR2Q17f
p921
sg12
Vhttp://52.8.24.90discount_code/?code=SequoCSIL15BGenR2Q17f
p922
sg14
g15
sg16
g17
sg18
S'Wed, 13 May 2015 03:37:20 UTC'
p923
sg20
S'-100%'
p924
sg22
g921
sg23
I3
sa(dp925
g3
I80535579
sg4
g5
sg6
I223381
sg7
S'Corporate - Gold'
p926
sg9
g926
sg10
VDeutsCGOLD15BGenR2Q14H
p927
sg12
Vhttp://52.8.24.90discount_code/?code=DeutsCGOLD15BGenR2Q14H
p928
sg14
g15
sg16
g17
sg18
S'Wed, 13 May 2015 03:36:05 UTC'
p929
sg20
S'-100%'
p930
sg22
g927
sg23
I5
sa(dp931
g3
I80535579
sg4
g25
sg6
I223381
sg7
g926
sg9
g926
sg10
VDeutsCGOLD15BBoSR2Q14H
p932
sg12
Vhttp://52.8.24.90discount_code/?code=DeutsCGOLD15BBoSR2Q14H
p933
sg14
g28
sg16
g29
sg18
S'Wed, 13 May 2015 03:36:05 UTC'
p934
sg20
S'-100%'
p935
sg22
g932
sg23
I2
sa(dp936
g3
I80541412
sg4
g25
sg6
I223382
sg7
S'Corporate - Silver'
p937
sg9
g937
sg10
VDeloiCSIL15BBoSR2Q151
p938
sg12
Vhttp://52.8.24.90discount_code/?code=DeloiCSIL15BBoSR2Q151
p939
sg14
g28
sg16
g29
sg18
S'Wed, 13 May 2015 03:37:22 UTC'
p940
sg20
S'-100%'
p941
sg22
g938
sg23
I3
sa(dp942
g3
I80541412
sg4
g5
sg6
I223382
sg7
g937
sg9
g937
sg10
VDeloiCSIL15BGenR2Q151
p943
sg12
Vhttp://52.8.24.90discount_code/?code=DeloiCSIL15BGenR2Q151
p944
sg14
g15
sg16
g17
sg18
S'Wed, 13 May 2015 03:37:22 UTC'
p945
sg20
S'-100%'
p946
sg22
g943
sg23
I3
sa(dp947
g3
I80544565
sg4
g5
sg6
I223382
sg7
S'Corporate - Silver'
p948
sg9
g948
sg10
VSpiceCSIL15BGenR2Q17k
p949
sg12
Vhttp://52.8.24.90discount_code/?code=SpiceCSIL15BGenR2Q17k
p950
sg14
g15
sg16
g17
sg18
S'Wed, 13 May 2015 03:37:23 UTC'
p951
sg20
S'-100%'
p952
sg22
g949
sg23
I3
sa(dp953
g3
I80544565
sg4
g25
sg6
I223382
sg7
g948
sg9
g948
sg10
VSpiceCSIL15BBoSR2Q17k
p954
sg12
Vhttp://52.8.24.90discount_code/?code=SpiceCSIL15BBoSR2Q17k
p955
sg14
g28
sg16
g29
sg18
S'Wed, 13 May 2015 03:37:23 UTC'
p956
sg20
S'-100%'
p957
sg22
g954
sg23
I3
sa(dp958
g3
I80601987
sg4
g5
sg6
I223382
sg7
S'Corporate - Silver'
p959
sg9
g959
sg10
VFlatiCSIL15BGenR2Q176
p960
sg12
Vhttp://52.8.24.90discount_code/?code=FlatiCSIL15BGenR2Q176
p961
sg14
g15
sg16
g17
sg18
S'Wed, 13 May 2015 03:37:06 UTC'
p962
sg20
S'-100%'
p963
sg22
g960
sg23
I3
sa(dp964
g3
I80601987
sg4
g25
sg6
I223382
sg7
g959
sg9
g959
sg10
VFlatiCSIL15BBoSR2Q176
p965
sg12
Vhttp://52.8.24.90discount_code/?code=FlatiCSIL15BBoSR2Q176
p966
sg14
g28
sg16
g29
sg18
S'Wed, 13 May 2015 03:37:06 UTC'
p967
sg20
S'-100%'
p968
sg22
g965
sg23
I3
sa(dp969
g3
I80605148
sg4
g25
sg6
I223383
sg7
S'Academic - Gold'
p970
sg9
g970
sg10
VPurduACAGOLD15BBoSR2Q18d
p971
sg12
Vhttp://52.8.24.90discount_code/?code=PurduACAGOLD15BBoSR2Q18d
p972
sg14
g28
sg16
g29
sg18
S'Wed, 13 May 2015 03:37:45 UTC'
p973
sg20
S'-100%'
p974
sg22
g971
sg23
I2
sa(dp975
g3
I80605148
sg4
g439
sg6
I223383
sg7
g970
sg9
g970
sg10
VPurduACAGOLD15BFacR2Q18d
p976
sg12
Vhttp://52.8.24.90discount_code/?code=PurduACAGOLD15BFacR2Q18d
p977
sg14
g442
sg16
g443
sg18
S'Wed, 13 May 2015 03:37:45 UTC'
p978
sg20
S'-100%'
p979
sg22
g976
sg23
I3
sa(dp980
g3
I80605148
sg4
S'Student 20% Off'
p981
sg6
I223383
sg7
g970
sg9
g970
sg10
VPurduACAGOLD15BStDc2Q18d
p982
sg12
Vhttp://52.8.24.90discount_code/?code=PurduACAGOLD15BStDc2Q18d
p983
sg14
g450
sg16
S'student_20'
p984
sg18
S'Wed, 13 May 2015 03:37:45 UTC'
p985
sg20
S'-20%'
p986
sg22
g982
sg23
I1
sa(dp987
g3
I80614404
sg4
g5
sg6
I226851
sg7
S'Lab & Non-Profit - Gold'
p988
sg9
g988
sg10
VDigniL&NGOLD15BGenR2Q1AZ
p989
sg12
Vhttp://52.8.24.90discount_code/?code=DigniL&NGOLD15BGenR2Q1AZ
p990
sg14
g15
sg16
g17
sg18
S'Wed, 13 May 2015 03:38:26 UTC'
p991
sg20
S'-100%'
p992
sg22
g989
sg23
I3
sa(dp993
g3
I80617786
sg4
g25
sg6
I223382
sg7
S'Corporate - Silver'
p994
sg9
g994
sg10
VUberCSIL15BBoSR2Q17B
p995
sg12
Vhttp://52.8.24.90discount_code/?code=UberCSIL15BBoSR2Q17B
p996
sg14
g28
sg16
g29
sg18
S'Wed, 13 May 2015 03:37:07 UTC'
p997
sg20
S'-100%'
p998
sg22
g995
sg23
I3
sa(dp999
g3
I80617786
sg4
g5
sg6
I223382
sg7
g994
sg9
g994
sg10
VUberCSIL15BGenR2Q17B
p1000
sg12
Vhttp://52.8.24.90discount_code/?code=UberCSIL15BGenR2Q17B
p1001
sg14
g15
sg16
g17
sg18
S'Wed, 13 May 2015 03:37:07 UTC'
p1002
sg20
S'-100%'
p1003
sg22
g1000
sg23
I3
sa(dp1004
g3
I80649549
sg4
g25
sg6
I223382
sg7
S'Corporate - Silver'
p1005
sg9
g1005
sg10
VOpenTCSIL15BBoSR2Q16s
p1006
sg12
Vhttp://52.8.24.90discount_code/?code=OpenTCSIL15BBoSR2Q16s
p1007
sg14
g28
sg16
g29
sg18
S'Wed, 13 May 2015 03:37:09 UTC'
p1008
sg20
S'-100%'
p1009
sg22
g1006
sg23
I3
sa(dp1010
g3
I80649549
sg4
g5
sg6
I223382
sg7
g1005
sg9
g1005
sg10
VOpenTCSIL15BGenR2Q16s
p1011
sg12
Vhttp://52.8.24.90discount_code/?code=OpenTCSIL15BGenR2Q16s
p1012
sg14
g15
sg16
g17
sg18
S'Wed, 13 May 2015 03:37:09 UTC'
p1013
sg20
S'-100%'
p1014
sg22
g1011
sg23
I3
sa(dp1015
g3
I80660768
sg4
g25
sg6
I223382
sg7
S'Corporate - Silver'
p1016
sg9
g1016
sg10
VHuluCSIL15BBoSR2Q17G
p1017
sg12
Vhttp://52.8.24.90discount_code/?code=HuluCSIL15BBoSR2Q17G
p1018
sg14
g28
sg16
g29
sg18
S'Wed, 13 May 2015 03:37:11 UTC'
p1019
sg20
S'-100%'
p1020
sg22
g1017
sg23
I3
sa(dp1021
g3
I80660768
sg4
g5
sg6
I223382
sg7
g1016
sg9
g1016
sg10
VHuluCSIL15BGenR2Q17G
p1022
sg12
Vhttp://52.8.24.90discount_code/?code=HuluCSIL15BGenR2Q17G
p1023
sg14
g15
sg16
g17
sg18
S'Wed, 13 May 2015 03:37:11 UTC'
p1024
sg20
S'-100%'
p1025
sg22
g1022
sg23
I3
sa(dp1026
g3
I80666758
sg4
g5
sg6
I223382
sg7
S'Corporate - Silver'
p1027
sg9
g1027
sg10
VBrocaCSIL15BGenR2Q17L
p1028
sg12
Vhttp://52.8.24.90discount_code/?code=BrocaCSIL15BGenR2Q17L
p1029
sg14
g15
sg16
g17
sg18
S'Wed, 13 May 2015 03:37:13 UTC'
p1030
sg20
S'-100%'
p1031
sg22
g1028
sg23
I3
sa(dp1032
g3
I80666758
sg4
g25
sg6
I223382
sg7
g1027
sg9
g1027
sg10
VBrocaCSIL15BBoSR2Q17L
p1033
sg12
Vhttp://52.8.24.90discount_code/?code=BrocaCSIL15BBoSR2Q17L
p1034
sg14
g28
sg16
g29
sg18
S'Wed, 13 May 2015 03:37:13 UTC'
p1035
sg20
S'-100%'
p1036
sg22
g1033
sg23
I3
sa(dp1037
g3
I80692237
sg4
g439
sg6
I223385
sg7
S'Academic - Bronze'
p1038
sg9
g1038
sg10
VBrownACABRZ15BFacR2Q19q
p1039
sg12
Vhttp://52.8.24.90discount_code/?code=BrownACABRZ15BFacR2Q19q
p1040
sg14
g442
sg16
g443
sg18
S'Wed, 13 May 2015 03:38:10 UTC'
p1041
sg20
S'-100%'
p1042
sg22
g1039
sg23
I1
sa(dp1043
g3
I80692237
sg4
g736
sg6
I223385
sg7
g1038
sg9
g1038
sg10
VBrownACABRZ15BStDc2Q19q
p1044
sg12
Vhttp://52.8.24.90discount_code/?code=BrownACABRZ15BStDc2Q19q
p1045
sg14
g450
sg16
S'student_10'
p1046
sg18
S'Wed, 13 May 2015 03:38:10 UTC'
p1047
sg20
S'-10%'
p1048
sg22
g1044
sg23
I1
sa(dp1049
g3
I80705093
sg4
g439
sg6
I223384
sg7
S'Academic - Silver'
p1050
sg9
g1050
sg10
VMITACASIL15BFacR2Q19R
p1051
sg12
Vhttp://52.8.24.90discount_code/?code=MITACASIL15BFacR2Q19R
p1052
sg14
g442
sg16
g443
sg18
S'Wed, 13 May 2015 03:38:02 UTC'
p1053
sg20
S'-100%'
p1054
sg22
g1051
sg23
I2
sa(dp1055
g3
I80705093
sg4
g447
sg6
I223384
sg7
g1050
sg9
g1050
sg10
VMITACASIL15BStDc2Q19R
p1056
sg12
Vhttp://52.8.24.90discount_code/?code=MITACASIL15BStDc2Q19R
p1057
sg14
g450
sg16
S'student_15'
p1058
sg18
S'Wed, 13 May 2015 03:38:02 UTC'
p1059
sg20
S'-15%'
p1060
sg22
g1056
sg23
I1
sa(dp1061
g3
I80705093
sg4
g25
sg6
I223384
sg7
g1050
sg9
g1050
sg10
VMITACASIL15BBoSR2Q19R
p1062
sg12
Vhttp://52.8.24.90discount_code/?code=MITACASIL15BBoSR2Q19R
p1063
sg14
g28
sg16
g29
sg18
S'Wed, 13 May 2015 03:38:02 UTC'
p1064
sg20
S'-100%'
p1065
sg22
g1062
sg23
I3
sa(dp1066
g3
I80710866
sg4
g25
sg6
I223381
sg7
S'Corporate - Gold'
p1067
sg9
g1067
sg10
VAtlasCGOLD15BBoSR2Q13J
p1068
sg12
Vhttp://52.8.24.90discount_code/?code=AtlasCGOLD15BBoSR2Q13J
p1069
sg14
g28
sg16
g29
sg18
S'Wed, 13 May 2015 03:35:48 UTC'
p1070
sg20
S'-100%'
p1071
sg22
g1068
sg23
I2
sa(dp1072
g3
I80710866
sg4
g5
sg6
I223381
sg7
g1067
sg9
g1067
sg10
VAtlasCGOLD15BGenR2Q13J
p1073
sg12
Vhttp://52.8.24.90discount_code/?code=AtlasCGOLD15BGenR2Q13J
p1074
sg14
g15
sg16
g17
sg18
S'Wed, 13 May 2015 03:35:48 UTC'
p1075
sg20
S'-100%'
p1076
sg22
g1073
sg23
I5
sa(dp1077
g3
I80715877
sg4
g736
sg6
I223385
sg7
S'Academic - Bronze'
p1078
sg9
g1078
sg10
VUniveACABRZ15BStDc2Q19v
p1079
sg12
Vhttp://52.8.24.90discount_code/?code=UniveACABRZ15BStDc2Q19v
p1080
sg14
g450
sg16
S'student_10'
p1081
sg18
S'Wed, 13 May 2015 03:38:12 UTC'
p1082
sg20
S'-10%'
p1083
sg22
g1079
sg23
I1
sa(dp1084
g3
I80715877
sg4
g439
sg6
I223385
sg7
g1078
sg9
g1078
sg10
VUniveACABRZ15BFacR2Q19v
p1085
sg12
Vhttp://52.8.24.90discount_code/?code=UniveACABRZ15BFacR2Q19v
p1086
sg14
g442
sg16
g443
sg18
S'Wed, 13 May 2015 03:38:12 UTC'
p1087
sg20
S'-100%'
p1088
sg22
g1085
sg23
I1
sa(dp1089
g3
I80722918
sg4
g439
sg6
I223384
sg7
S'Academic - Silver'
p1090
sg9
g1090
sg10
VCalteACASIL15BFacR2Q192
p1091
sg12
Vhttp://52.8.24.90discount_code/?code=CalteACASIL15BFacR2Q192
p1092
sg14
g442
sg16
g443
sg18
S'Wed, 13 May 2015 03:37:54 UTC'
p1093
sg20
S'-100%'
p1094
sg22
g1091
sg23
I2
sa(dp1095
g3
I80722918
sg4
g25
sg6
I223384
sg7
g1090
sg9
g1090
sg10
VCalteACASIL15BBoSR2Q192
p1096
sg12
Vhttp://52.8.24.90discount_code/?code=CalteACASIL15BBoSR2Q192
p1097
sg14
g28
sg16
g29
sg18
S'Wed, 13 May 2015 03:37:54 UTC'
p1098
sg20
S'-100%'
p1099
sg22
g1096
sg23
I3
sa(dp1100
g3
I80722918
sg4
g447
sg6
I223384
sg7
g1090
sg9
g1090
sg10
VCalteACASIL15BStDc2Q192
p1101
sg12
Vhttp://52.8.24.90discount_code/?code=CalteACASIL15BStDc2Q192
p1102
sg14
g450
sg16
S'student_15'
p1103
sg18
S'Wed, 13 May 2015 03:37:54 UTC'
p1104
sg20
S'-15%'
p1105
sg22
g1101
sg23
I1
sa(dp1106
g3
I80723273
sg4
g25
sg6
I223381
sg7
S'Corporate - Gold'
p1107
sg9
g1107
sg10
VPrudeCGOLD15BBoSR2Q13O
p1108
sg12
Vhttp://52.8.24.90discount_code/?code=PrudeCGOLD15BBoSR2Q13O
p1109
sg14
g28
sg16
g29
sg18
S'Wed, 13 May 2015 03:35:49 UTC'
p1110
sg20
S'-100%'
p1111
sg22
g1108
sg23
I2
sa(dp1112
g3
I80723273
sg4
g33
sg6
I223381
sg7
g1107
sg9
g1107
sg10
VPrude152Q13O
p1113
sg12
Vhttp://52.8.24.90discount_code/?code=Prude152Q13O
p1114
sg14
g37
sg16
g38
sg18
S'Wed, 13 May 2015 03:35:49 UTC'
p1115
sg20
S'-100%'
p1116
sg22
g1113
sg23
I1
sa(dp1117
g3
I80723273
sg4
g5
sg6
I223381
sg7
g1107
sg9
g1107
sg10
VPrudeCGOLD15BGenR2Q13O
p1118
sg12
Vhttp://52.8.24.90discount_code/?code=PrudeCGOLD15BGenR2Q13O
p1119
sg14
g15
sg16
g17
sg18
S'Wed, 13 May 2015 03:35:49 UTC'
p1120
sg20
S'-100%'
p1121
sg22
g1118
sg23
I5
sa(dp1122
g3
I80724512
sg4
g33
sg6
I227146
sg7
S'GHC Event Sponsorships and Enterprise Packages'
p1123
sg9
g1123
sg10
VLockh152Q1Ao
p1124
sg12
Vhttp://52.8.24.90discount_code/?code=Lockh152Q1Ao
p1125
sg14
g37
sg16
g38
sg18
S'Wed, 13 May 2015 03:38:33 UTC'
p1126
sg20
S'-100%'
p1127
sg22
g1124
sg23
I1
sa(dp1128
g3
I80725493
sg4
g981
sg6
I223383
sg7
S'Academic - Gold'
p1129
sg9
g1129
sg10
VHarveACAGOLD15BStDc2Q18o
p1130
sg12
Vhttp://52.8.24.90discount_code/?code=HarveACAGOLD15BStDc2Q18o
p1131
sg14
g450
sg16
S'student_20'
p1132
sg18
S'Wed, 13 May 2015 03:37:50 UTC'
p1133
sg20
S'-20%'
p1134
sg22
g1130
sg23
I1
sa(dp1135
g3
I80725493
sg4
g25
sg6
I223383
sg7
g1129
sg9
g1129
sg10
VHarveACAGOLD15BBoSR2Q18o
p1136
sg12
Vhttp://52.8.24.90discount_code/?code=HarveACAGOLD15BBoSR2Q18o
p1137
sg14
g28
sg16
g29
sg18
S'Wed, 13 May 2015 03:37:50 UTC'
p1138
sg20
S'-100%'
p1139
sg22
g1136
sg23
I2
sa(dp1140
g3
I80725493
sg4
g439
sg6
I223383
sg7
g1129
sg9
g1129
sg10
VHarveACAGOLD15BFacR2Q18o
p1141
sg12
Vhttp://52.8.24.90discount_code/?code=HarveACAGOLD15BFacR2Q18o
p1142
sg14
g442
sg16
g443
sg18
S'Wed, 13 May 2015 03:37:50 UTC'
p1143
sg20
S'-100%'
p1144
sg22
g1141
sg23
I3
sa(dp1145
g3
I80751863
sg4
g5
sg6
I223381
sg7
S'Corporate - Gold'
p1146
sg9
g1146
sg10
VAutodCGOLD15BGenR2Q13T
p1147
sg12
Vhttp://52.8.24.90discount_code/?code=AutodCGOLD15BGenR2Q13T
p1148
sg14
g15
sg16
g17
sg18
S'Wed, 13 May 2015 03:35:51 UTC'
p1149
sg20
S'-100%'
p1150
sg22
g1147
sg23
I5
sa(dp1151
g3
I80751863
sg4
g25
sg6
I223381
sg7
g1146
sg9
g1146
sg10
VAutodCGOLD15BBoSR2Q13T
p1152
sg12
Vhttp://52.8.24.90discount_code/?code=AutodCGOLD15BBoSR2Q13T
p1153
sg14
g28
sg16
g29
sg18
S'Wed, 13 May 2015 03:35:51 UTC'
p1154
sg20
S'-100%'
p1155
sg22
g1152
sg23
I2
sa(dp1156
g3
I80757386
sg4
g5
sg6
I223380
sg7
S'ABI Partners Only - Platinum'
p1157
sg9
g1157
sg10
VIntuiPLAT15BGenR2Q11c
p1158
sg12
Vhttp://52.8.24.90discount_code/?code=IntuiPLAT15BGenR2Q11c
p1159
sg14
g15
sg16
g17
sg18
S'Wed, 13 May 2015 03:35:08 UTC'
p1160
sg20
S'-100%'
p1161
sg22
g1158
sg23
I10
sa(dp1162
g3
I80757386
sg4
g25
sg6
I223380
sg7
g1157
sg9
g1157
sg10
VIntuiPLAT15BBoSR2Q11c
p1163
sg12
Vhttp://52.8.24.90discount_code/?code=IntuiPLAT15BBoSR2Q11c
p1164
sg14
g28
sg16
g29
sg18
S'Wed, 13 May 2015 03:35:08 UTC'
p1165
sg20
S'-100%'
p1166
sg22
g1163
sg23
I8
sa(dp1167
g3
I80757386
sg4
g5
sg6
I223380
sg7
VEnterprise Pack
p1168
sg9
g1157
sg10
VIntui1510DGenR2Q11c
p1169
sg12
Vhttp://52.8.24.90discount_code/?code=Intui1510DGenR2Q11c
p1170
sg14
g15
sg16
g17
sg18
S'Wed, 13 May 2015 03:35:08 UTC'
p1171
sg20
S'-100%'
p1172
sg22
g1169
sg23
I200
sa(dp1173
g3
I80766185
sg4
g5
sg6
I223380
sg7
S'ABI Partners Only - Platinum'
p1174
sg9
g1174
sg10
VEricsPLAT15BGenR2Q11h
p1175
sg12
Vhttp://52.8.24.90discount_code/?code=EricsPLAT15BGenR2Q11h
p1176
sg14
g15
sg16
g17
sg18
S'Wed, 13 May 2015 03:35:09 UTC'
p1177
sg20
S'-100%'
p1178
sg22
g1175
sg23
I10
sa(dp1179
g3
I80766185
sg4
g25
sg6
I223380
sg7
g1174
sg9
g1174
sg10
VEricsPLAT15BBoSR2Q11h
p1180
sg12
Vhttp://52.8.24.90discount_code/?code=EricsPLAT15BBoSR2Q11h
p1181
sg14
g28
sg16
g29
sg18
S'Wed, 13 May 2015 03:35:09 UTC'
p1182
sg20
S'-100%'
p1183
sg22
g1180
sg23
I8
sa(dp1184
g3
I80766185
sg4
g5
sg6
I223380
sg7
VEnterprise Pack
p1185
sg9
g1174
sg10
VErics1510DGenR2Q11h
p1186
sg12
Vhttp://52.8.24.90discount_code/?code=Erics1510DGenR2Q11h
p1187
sg14
g15
sg16
g17
sg18
S'Wed, 13 May 2015 03:35:09 UTC'
p1188
sg20
S'-100%'
p1189
sg22
g1186
sg23
I50
sa(dp1190
g3
I80837474
sg4
g439
sg6
I223384
sg7
S'Academic - Silver'
p1191
sg9
g1191
sg10
VIU-ScACASIL15BFacR2Q19W
p1192
sg12
Vhttp://52.8.24.90discount_code/?code=IU-ScACASIL15BFacR2Q19W
p1193
sg14
g442
sg16
g443
sg18
S'Wed, 13 May 2015 03:38:03 UTC'
p1194
sg20
S'-100%'
p1195
sg22
g1192
sg23
I2
sa(dp1196
g3
I80837474
sg4
g25
sg6
I223384
sg7
g1191
sg9
g1191
sg10
VIU-ScACASIL15BBoSR2Q19W
p1197
sg12
Vhttp://52.8.24.90discount_code/?code=IU-ScACASIL15BBoSR2Q19W
p1198
sg14
g28
sg16
g29
sg18
S'Wed, 13 May 2015 03:38:03 UTC'
p1199
sg20
S'-100%'
p1200
sg22
g1197
sg23
I3
sa(dp1201
g3
I80837474
sg4
g447
sg6
I223384
sg7
g1191
sg9
g1191
sg10
VIU-ScACASIL15BStDc2Q19W
p1202
sg12
Vhttp://52.8.24.90discount_code/?code=IU-ScACASIL15BStDc2Q19W
p1203
sg14
g450
sg16
S'student_15'
p1204
sg18
S'Wed, 13 May 2015 03:38:03 UTC'
p1205
sg20
S'-15%'
p1206
sg22
g1202
sg23
I1
sa(dp1207
g3
I80843521
sg4
g25
sg6
I223382
sg7
S'Corporate - Silver'
p1208
sg9
g1208
sg10
VOpoweCSIL15BBoSR2Q14D
p1209
sg12
Vhttp://52.8.24.90discount_code/?code=OpoweCSIL15BBoSR2Q14D
p1210
sg14
g28
sg16
g29
sg18
S'Wed, 13 May 2015 03:37:14 UTC'
p1211
sg20
S'-100%'
p1212
sg22
g1209
sg23
I3
sa(dp1213
g3
I80843521
sg4
g5
sg6
I223382
sg7
g1208
sg9
g1208
sg10
VOpoweCSIL15BGenR2Q14D
p1214
sg12
Vhttp://52.8.24.90discount_code/?code=OpoweCSIL15BGenR2Q14D
p1215
sg14
g15
sg16
g17
sg18
S'Wed, 13 May 2015 03:37:14 UTC'
p1216
sg20
S'-100%'
p1217
sg22
g1214
sg23
I3
sa(dp1218
g3
I80907398
sg4
g439
sg6
I223385
sg7
S'Academic - Bronze'
p1219
sg9
g1219
sg10
VRocheACABRZ15BFacR2Q1A0
p1220
sg12
Vhttp://52.8.24.90discount_code/?code=RocheACABRZ15BFacR2Q1A0
p1221
sg14
g442
sg16
g443
sg18
S'Wed, 13 May 2015 03:38:15 UTC'
p1222
sg20
S'-100%'
p1223
sg22
g1220
sg23
I1
sa(dp1224
g3
I80907398
sg4
g736
sg6
I223385
sg7
g1219
sg9
g1219
sg10
VRocheACABRZ15BStDc2Q1A0
p1225
sg12
Vhttp://52.8.24.90discount_code/?code=RocheACABRZ15BStDc2Q1A0
p1226
sg14
g450
sg16
S'student_10'
p1227
sg18
S'Wed, 13 May 2015 03:38:15 UTC'
p1228
sg20
S'-10%'
p1229
sg22
g1225
sg23
I1
sa(dp1230
g3
I80951114
sg4
g25
sg6
I223382
sg7
S'Corporate - Silver'
p1231
sg9
g1231
sg10
VCimprCSIL15BBoSR2Q16c
p1232
sg12
Vhttp://52.8.24.90discount_code/?code=CimprCSIL15BBoSR2Q16c
p1233
sg14
g28
sg16
g29
sg18
S'Wed, 13 May 2015 03:36:56 UTC'
p1234
sg20
S'-100%'
p1235
sg22
g1232
sg23
I3
sa(dp1236
g3
I80951114
sg4
g5
sg6
I223382
sg7
g1231
sg9
g1231
sg10
VCimprCSIL15BGenR2Q16c
p1237
sg12
Vhttp://52.8.24.90discount_code/?code=CimprCSIL15BGenR2Q16c
p1238
sg14
g15
sg16
g17
sg18
S'Wed, 13 May 2015 03:36:56 UTC'
p1239
sg20
S'-100%'
p1240
sg22
g1237
sg23
I3
sa(dp1241
g3
I80965581
sg4
g25
sg6
I223382
sg7
S'Corporate - Silver'
p1242
sg9
g1242
sg10
VStripCSIL15BBoSR2Q16h
p1243
sg12
Vhttp://52.8.24.90discount_code/?code=StripCSIL15BBoSR2Q16h
p1244
sg14
g28
sg16
g29
sg18
S'Wed, 13 May 2015 03:36:57 UTC'
p1245
sg20
S'-100%'
p1246
sg22
g1243
sg23
I3
sa(dp1247
g3
I80965581
sg4
g5
sg6
I223382
sg7
g1242
sg9
g1242
sg10
VStripCSIL15BGenR2Q16h
p1248
sg12
Vhttp://52.8.24.90discount_code/?code=StripCSIL15BGenR2Q16h
p1249
sg14
g15
sg16
g17
sg18
S'Wed, 13 May 2015 03:36:57 UTC'
p1250
sg20
S'-100%'
p1251
sg22
g1248
sg23
I3
sa(dp1252
g3
I81051813
sg4
g25
sg6
I223380
sg7
S'ABI Partners Only - Platinum'
p1253
sg9
g1253
sg10
VYahooPLAT15BBoSR2Q11T
p1254
sg12
Vhttp://52.8.24.90discount_code/?code=YahooPLAT15BBoSR2Q11T
p1255
sg14
g28
sg16
g29
sg18
S'Wed, 13 May 2015 03:35:11 UTC'
p1256
sg20
S'-100%'
p1257
sg22
g1254
sg23
I8
sa(dp1258
g3
I81051813
sg4
g5
sg6
I223380
sg7
VEnterprise Pack
p1259
sg9
g1253
sg10
VYahoo1510DGenR2Q11T
p1260
sg12
Vhttp://52.8.24.90discount_code/?code=Yahoo1510DGenR2Q11T
p1261
sg14
g15
sg16
g17
sg18
S'Wed, 13 May 2015 03:35:11 UTC'
p1262
sg20
S'-100%'
p1263
sg22
g1260
sg23
I130
sa(dp1264
g3
I81051813
sg4
g5
sg6
I223380
sg7
g1253
sg9
g1253
sg10
VYahooPLAT15BGenR2Q11T
p1265
sg12
Vhttp://52.8.24.90discount_code/?code=YahooPLAT15BGenR2Q11T
p1266
sg14
g15
sg16
g17
sg18
S'Wed, 13 May 2015 03:35:11 UTC'
p1267
sg20
S'-100%'
p1268
sg22
g1265
sg23
I10
sa(dp1269
g3
I81153506
sg4
g25
sg6
I223382
sg7
S'Corporate - Silver'
p1270
sg9
g1270
sg10
VLivinCSIL15BBoSR2Q16m
p1271
sg12
Vhttp://52.8.24.90discount_code/?code=LivinCSIL15BBoSR2Q16m
p1272
sg14
g28
sg16
g29
sg18
S'Wed, 13 May 2015 03:36:59 UTC'
p1273
sg20
S'-100%'
p1274
sg22
g1271
sg23
I3
sa(dp1275
g3
I81153506
sg4
g5
sg6
I223382
sg7
g1270
sg9
g1270
sg10
VLivinCSIL15BGenR2Q16m
p1276
sg12
Vhttp://52.8.24.90discount_code/?code=LivinCSIL15BGenR2Q16m
p1277
sg14
g15
sg16
g17
sg18
S'Wed, 13 May 2015 03:36:59 UTC'
p1278
sg20
S'-100%'
p1279
sg22
g1276
sg23
I3
sa(dp1280
g3
I81203930
sg4
g25
sg6
I223383
sg7
S'Academic - Gold'
p1281
sg9
g1281
sg10
VMontaACAGOLD15BBoSR2Q18i
p1282
sg12
Vhttp://52.8.24.90discount_code/?code=MontaACAGOLD15BBoSR2Q18i
p1283
sg14
g28
sg16
g29
sg18
S'Wed, 13 May 2015 03:37:46 UTC'
p1284
sg20
S'-100%'
p1285
sg22
g1282
sg23
I2
sa(dp1286
g3
I81203930
sg4
g981
sg6
I223383
sg7
g1281
sg9
g1281
sg10
VMontaACAGOLD15BStDc2Q18i
p1287
sg12
Vhttp://52.8.24.90discount_code/?code=MontaACAGOLD15BStDc2Q18i
p1288
sg14
g450
sg16
S'student_20'
p1289
sg18
S'Wed, 13 May 2015 03:37:46 UTC'
p1290
sg20
S'-20%'
p1291
sg22
g1287
sg23
I1
sa(dp1292
g3
I81203930
sg4
g439
sg6
I223383
sg7
g1281
sg9
g1281
sg10
VMontaACAGOLD15BFacR2Q18i
p1293
sg12
Vhttp://52.8.24.90discount_code/?code=MontaACAGOLD15BFacR2Q18i
p1294
sg14
g442
sg16
g443
sg18
S'Wed, 13 May 2015 03:37:46 UTC'
p1295
sg20
S'-100%'
p1296
sg22
g1293
sg23
I3
sa(dp1297
g3
I81211137
sg4
g33
sg6
I227146
sg7
S'GHC Event Sponsorships and Enterprise Packages'
p1298
sg9
g1298
sg10
VAccen15SWLnch2Q1At
p1299
sg12
Vhttp://52.8.24.90discount_code/?code=Accen15SWLnch2Q1At
p1300
sg14
g37
sg16
g38
sg18
S'Wed, 13 May 2015 03:38:34 UTC'
p1301
sg20
S'-100%'
p1302
sg22
g1299
sg23
I1
sa(dp1303
g3
I81211467
sg4
g5
sg6
I223381
sg7
S'Corporate - Gold'
p1304
sg9
g1304
sg10
VFactSCGOLD15BGenR2Q13d
p1305
sg12
Vhttp://52.8.24.90discount_code/?code=FactSCGOLD15BGenR2Q13d
p1306
sg14
g15
sg16
g17
sg18
S'Wed, 13 May 2015 03:35:52 UTC'
p1307
sg20
S'-100%'
p1308
sg22
g1305
sg23
I5
sa(dp1309
g3
I81211467
sg4
g25
sg6
I223381
sg7
g1304
sg9
g1304
sg10
VFactSCGOLD15BBoSR2Q13d
p1310
sg12
Vhttp://52.8.24.90discount_code/?code=FactSCGOLD15BBoSR2Q13d
p1311
sg14
g28
sg16
g29
sg18
S'Wed, 13 May 2015 03:35:53 UTC'
p1312
sg20
S'-100%'
p1313
sg22
g1310
sg23
I2
sa(dp1314
g3
I81219018
sg4
g25
sg6
I223382
sg7
S'Corporate - Silver'
p1315
sg9
g1315
sg10
VTableCSIL15BBoSR2Q16r
p1316
sg12
Vhttp://52.8.24.90discount_code/?code=TableCSIL15BBoSR2Q16r
p1317
sg14
g28
sg16
g29
sg18
S'Wed, 13 May 2015 03:37:00 UTC'
p1318
sg20
S'-100%'
p1319
sg22
g1316
sg23
I3
sa(dp1320
g3
I81219018
sg4
g5
sg6
I223382
sg7
g1315
sg9
g1315
sg10
VTableCSIL15BGenR2Q16r
p1321
sg12
Vhttp://52.8.24.90discount_code/?code=TableCSIL15BGenR2Q16r
p1322
sg14
g15
sg16
g17
sg18
S'Wed, 13 May 2015 03:37:00 UTC'
p1323
sg20
S'-100%'
p1324
sg22
g1321
sg23
I3
sa(dp1325
g3
I81269116
sg4
g5
sg6
I223381
sg7
S'Corporate - Gold'
p1326
sg9
g1326
sg10
VQuoraCGOLD15BGenR2Q13i
p1327
sg12
Vhttp://52.8.24.90discount_code/?code=QuoraCGOLD15BGenR2Q13i
p1328
sg14
g15
sg16
g17
sg18
S'Wed, 13 May 2015 03:35:54 UTC'
p1329
sg20
S'-100%'
p1330
sg22
g1327
sg23
I5
sa(dp1331
g3
I81269116
sg4
g25
sg6
I223381
sg7
g1326
sg9
g1326
sg10
VQuoraCGOLD15BBoSR2Q13i
p1332
sg12
Vhttp://52.8.24.90discount_code/?code=QuoraCGOLD15BBoSR2Q13i
p1333
sg14
g28
sg16
g29
sg18
S'Wed, 13 May 2015 03:35:54 UTC'
p1334
sg20
S'-100%'
p1335
sg22
g1332
sg23
I2
sa(dp1336
g3
I81277663
sg4
g33
sg6
I227146
sg7
S'GHC Event Sponsorships and Enterprise Packages'
p1337
sg9
g1337
sg10
VRMS152Q1Ay
p1338
sg12
Vhttp://52.8.24.90discount_code/?code=RMS152Q1Ay
p1339
sg14
g37
sg16
g38
sg18
S'Wed, 13 May 2015 03:38:36 UTC'
p1340
sg20
S'-100%'
p1341
sg22
g1338
sg23
I1
sa(dp1342
g3
I81294822
sg4
g25
sg6
I223382
sg7
S'Corporate - Silver'
p1343
sg9
g1343
sg10
VNatioCSIL15BBoSR2Q168
p1344
sg12
Vhttp://52.8.24.90discount_code/?code=NatioCSIL15BBoSR2Q168
p1345
sg14
g28
sg16
g29
sg18
S'Wed, 13 May 2015 03:36:46 UTC'
p1346
sg20
S'-100%'
p1347
sg22
g1344
sg23
I3
sa(dp1348
g3
I81294822
sg4
g5
sg6
I223382
sg7
g1343
sg9
g1343
sg10
VNatioCSIL15BGenR2Q168
p1349
sg12
Vhttp://52.8.24.90discount_code/?code=NatioCSIL15BGenR2Q168
p1350
sg14
g15
sg16
g17
sg18
S'Wed, 13 May 2015 03:36:46 UTC'
p1351
sg20
S'-100%'
p1352
sg22
g1349
sg23
I3
sa(dp1353
g3
I81295016
sg4
g25
sg6
I223382
sg7
S'Corporate - Silver'
p1354
sg9
g1354
sg10
VNatioCSIL15BBoSR2Q16D
p1355
sg12
Vhttp://52.8.24.90discount_code/?code=NatioCSIL15BBoSR2Q16D
p1356
sg14
g28
sg16
g29
sg18
S'Wed, 13 May 2015 03:36:48 UTC'
p1357
sg20
S'-100%'
p1358
sg22
g1355
sg23
I3
sa(dp1359
g3
I81295016
sg4
g5
sg6
I223382
sg7
g1354
sg9
g1354
sg10
VNatioCSIL15BGenR2Q16D
p1360
sg12
Vhttp://52.8.24.90discount_code/?code=NatioCSIL15BGenR2Q16D
p1361
sg14
g15
sg16
g17
sg18
S'Wed, 13 May 2015 03:36:48 UTC'
p1362
sg20
S'-100%'
p1363
sg22
g1360
sg23
I3
sa(dp1364
g3
I81303320
sg4
g5
sg6
I223382
sg7
S'Corporate - Silver'
p1365
sg9
g1365
sg10
VCerneCSIL15BGenR2Q16w
p1366
sg12
Vhttp://52.8.24.90discount_code/?code=CerneCSIL15BGenR2Q16w
p1367
sg14
g15
sg16
g17
sg18
S'Wed, 13 May 2015 03:37:02 UTC'
p1368
sg20
S'-100%'
p1369
sg22
g1366
sg23
I3
sa(dp1370
g3
I81303320
sg4
g25
sg6
I223382
sg7
g1365
sg9
g1365
sg10
VCerneCSIL15BBoSR2Q16w
p1371
sg12
Vhttp://52.8.24.90discount_code/?code=CerneCSIL15BBoSR2Q16w
p1372
sg14
g28
sg16
g29
sg18
S'Wed, 13 May 2015 03:37:02 UTC'
p1373
sg20
S'-100%'
p1374
sg22
g1371
sg23
I3
sa(dp1375
g3
I81315890
sg4
g5
sg6
I223381
sg7
S'Corporate - Gold'
p1376
sg9
g1376
sg10
VTargeCGOLD15BGenR2Q13n
p1377
sg12
Vhttp://52.8.24.90discount_code/?code=TargeCGOLD15BGenR2Q13n
p1378
sg14
g15
sg16
g17
sg18
S'Wed, 13 May 2015 03:35:55 UTC'
p1379
sg20
S'-100%'
p1380
sg22
g1377
sg23
I5
sa(dp1381
g3
I81315890
sg4
g25
sg6
I223381
sg7
g1376
sg9
g1376
sg10
VTargeCGOLD15BBoSR2Q13n
p1382
sg12
Vhttp://52.8.24.90discount_code/?code=TargeCGOLD15BBoSR2Q13n
p1383
sg14
g28
sg16
g29
sg18
S'Wed, 13 May 2015 03:35:55 UTC'
p1384
sg20
S'-100%'
p1385
sg22
g1382
sg23
I2
sa(dp1386
g3
I81322044
sg4
g5
sg6
I226852
sg7
S'Lab & Non-Profit - Silver'
p1387
sg9
g1387
sg10
VFreeBL&NSIL15BGenR2Q1Ae
p1388
sg12
Vhttp://52.8.24.90discount_code/?code=FreeBL&NSIL15BGenR2Q1Ae
p1389
sg14
g15
sg16
g17
sg18
S'Wed, 13 May 2015 03:38:28 UTC'
p1390
sg20
S'-100%'
p1391
sg22
g1388
sg23
I2
sa(dp1392
g3
I81332136
sg4
g5
sg6
I223382
sg7
S'Corporate - Silver'
p1393
sg9
g1393
sg10
VNVIDICSIL15BGenR2Q171
p1394
sg12
Vhttp://52.8.24.90discount_code/?code=NVIDICSIL15BGenR2Q171
p1395
sg14
g15
sg16
g17
sg18
S'Wed, 13 May 2015 03:37:04 UTC'
p1396
sg20
S'-100%'
p1397
sg22
g1394
sg23
I3
sa(dp1398
g3
I81332136
sg4
g25
sg6
I223382
sg7
g1393
sg9
g1393
sg10
VNVIDICSIL15BBoSR2Q171
p1399
sg12
Vhttp://52.8.24.90discount_code/?code=NVIDICSIL15BBoSR2Q171
p1400
sg14
g28
sg16
g29
sg18
S'Wed, 13 May 2015 03:37:04 UTC'
p1401
sg20
S'-100%'
p1402
sg22
g1399
sg23
I3
sa(dp1403
g3
I81365703
sg4
g25
sg6
I223380
sg7
S'ABI Partners Only - Platinum'
p1404
sg9
g1404
sg10
VTwo SPLAT15BBoSR2Q11m
p1405
sg12
Vhttp://52.8.24.90discount_code/?code=Two SPLAT15BBoSR2Q11m
p1406
sg14
g28
sg16
g29
sg18
S'Wed, 13 May 2015 03:35:13 UTC'
p1407
sg20
S'-100%'
p1408
sg22
g1405
sg23
I8
sa(dp1409
g3
I81365703
sg4
g5
sg6
I223380
sg7
g1404
sg9
g1404
sg10
VTwo SPLAT15BGenR2Q11m
p1410
sg12
Vhttp://52.8.24.90discount_code/?code=Two SPLAT15BGenR2Q11m
p1411
sg14
g15
sg16
g17
sg18
S'Wed, 13 May 2015 03:35:13 UTC'
p1412
sg20
S'-100%'
p1413
sg22
g1410
sg23
I10
sa(dp1414
g3
I81367464
sg4
g439
sg6
I223385
sg7
S'Academic - Bronze'
p1415
sg9
g1415
sg10
VIowa ACABRZ15BFacR2Q1A5
p1416
sg12
Vhttp://52.8.24.90discount_code/?code=Iowa ACABRZ15BFacR2Q1A5
p1417
sg14
g442
sg16
g443
sg18
S'Wed, 13 May 2015 03:38:16 UTC'
p1418
sg20
S'-100%'
p1419
sg22
g1416
sg23
I1
sa(dp1420
g3
I81367464
sg4
g736
sg6
I223385
sg7
g1415
sg9
g1415
sg10
VIowa ACABRZ15BStDc2Q1A5
p1421
sg12
Vhttp://52.8.24.90discount_code/?code=Iowa ACABRZ15BStDc2Q1A5
p1422
sg14
g450
sg16
S'student_10'
p1423
sg18
S'Wed, 13 May 2015 03:38:16 UTC'
p1424
sg20
S'-10%'
p1425
sg22
g1421
sg23
I1
sa(dp1426
g3
I81373609
sg4
g5
sg6
I223380
sg7
S'ABI Partners Only - Platinum'
p1427
sg9
g1427
sg10
VAmazoPLAT15BGenR2Q11r
p1428
sg12
Vhttp://52.8.24.90discount_code/?code=AmazoPLAT15BGenR2Q11r
p1429
sg14
g15
sg16
g17
sg18
S'Wed, 13 May 2015 03:35:14 UTC'
p1430
sg20
S'-100%'
p1431
sg22
g1428
sg23
I10
sa(dp1432
g3
I81373609
sg4
g25
sg6
I223380
sg7
g1427
sg9
g1427
sg10
VAmazoPLAT15BBoSR2Q11r
p1433
sg12
Vhttp://52.8.24.90discount_code/?code=AmazoPLAT15BBoSR2Q11r
p1434
sg14
g28
sg16
g29
sg18
S'Wed, 13 May 2015 03:35:14 UTC'
p1435
sg20
S'-100%'
p1436
sg22
g1433
sg23
I8
sa(dp1437
g3
I81373609
sg4
g5
sg6
I223380
sg7
VEnterprise Pack
p1438
sg9
g1427
sg10
VAmazo1510DGenR2Q11r
p1439
sg12
Vhttp://52.8.24.90discount_code/?code=Amazo1510DGenR2Q11r
p1440
sg14
g15
sg16
g17
sg18
S'Wed, 13 May 2015 03:35:14 UTC'
p1441
sg20
S'-100%'
p1442
sg22
g1439
sg23
I200
sa(dp1443
g3
I81398086
sg4
g25
sg6
I223382
sg7
S'Corporate - Silver'
p1444
sg9
g1444
sg10
VBlackCSIL15BBoSR2Q16I
p1445
sg12
Vhttp://52.8.24.90discount_code/?code=BlackCSIL15BBoSR2Q16I
p1446
sg14
g28
sg16
g29
sg18
S'Wed, 13 May 2015 03:36:49 UTC'
p1447
sg20
S'-100%'
p1448
sg22
g1445
sg23
I3
sa(dp1449
g3
I81398086
sg4
g5
sg6
I223382
sg7
g1444
sg9
g1444
sg10
VBlackCSIL15BGenR2Q16I
p1450
sg12
Vhttp://52.8.24.90discount_code/?code=BlackCSIL15BGenR2Q16I
p1451
sg14
g15
sg16
g17
sg18
S'Wed, 13 May 2015 03:36:49 UTC'
p1452
sg20
S'-100%'
p1453
sg22
g1450
sg23
I3
sa(dp1454
g3
I81432405
sg4
g5
sg6
I223380
sg7
VEnterprise Pack
p1455
sg9
S'ABI Partners Only - Platinum'
p1456
sg10
VTHOUG1510DGenR2Q11w
p1457
sg12
Vhttp://52.8.24.90discount_code/?code=THOUG1510DGenR2Q11w
p1458
sg14
g15
sg16
g17
sg18
S'Wed, 13 May 2015 03:35:16 UTC'
p1459
sg20
S'-100%'
p1460
sg22
g1457
sg23
I30
sa(dp1461
g3
I81432405
sg4
g25
sg6
I223380
sg7
g1456
sg9
g1456
sg10
VTHOUGPLAT15BBoSR2Q11w
p1462
sg12
Vhttp://52.8.24.90discount_code/?code=THOUGPLAT15BBoSR2Q11w
p1463
sg14
g28
sg16
g29
sg18
S'Wed, 13 May 2015 03:35:16 UTC'
p1464
sg20
S'-100%'
p1465
sg22
g1462
sg23
I8
sa(dp1466
g3
I81432405
sg4
g5
sg6
I223380
sg7
g1456
sg9
g1456
sg10
VTHOUGPLAT15BGenR2Q11w
p1467
sg12
Vhttp://52.8.24.90discount_code/?code=THOUGPLAT15BGenR2Q11w
p1468
sg14
g15
sg16
g17
sg18
S'Wed, 13 May 2015 03:35:16 UTC'
p1469
sg20
S'-100%'
p1470
sg22
g1467
sg23
I10
sa(dp1471
g3
I81440743
sg4
g25
sg6
I223383
sg7
S'Academic - Gold'
p1472
sg9
g1472
sg10
VUSCACAGOLD15BBoSR2Q18x
p1473
sg12
Vhttp://52.8.24.90discount_code/?code=USCACAGOLD15BBoSR2Q18x
p1474
sg14
g28
sg16
g29
sg18
S'Wed, 13 May 2015 03:37:52 UTC'
p1475
sg20
S'-100%'
p1476
sg22
g1473
sg23
I2
sa(dp1477
g3
I81440743
sg4
g439
sg6
I223383
sg7
g1472
sg9
g1472
sg10
VUSCACAGOLD15BFacR2Q18x
p1478
sg12
Vhttp://52.8.24.90discount_code/?code=USCACAGOLD15BFacR2Q18x
p1479
sg14
g442
sg16
g443
sg18
S'Wed, 13 May 2015 03:37:52 UTC'
p1480
sg20
S'-100%'
p1481
sg22
g1478
sg23
I3
sa(dp1482
g3
I81440743
sg4
g981
sg6
I223383
sg7
g1472
sg9
g1472
sg10
VUSCACAGOLD15BStDc2Q18x
p1483
sg12
Vhttp://52.8.24.90discount_code/?code=USCACAGOLD15BStDc2Q18x
p1484
sg14
g450
sg16
S'student_20'
p1485
sg18
S'Wed, 13 May 2015 03:37:52 UTC'
p1486
sg20
S'-20%'
p1487
sg22
g1483
sg23
I1
sa(dp1488
g3
I81447714
sg4
g25
sg6
I223381
sg7
S'Corporate - Gold'
p1489
sg9
g1489
sg10
VThe WCGOLD15BBoSR2Q12u
p1490
sg12
Vhttp://52.8.24.90discount_code/?code=The WCGOLD15BBoSR2Q12u
p1491
sg14
g28
sg16
g29
sg18
S'Wed, 13 May 2015 03:35:38 UTC'
p1492
sg20
S'-100%'
p1493
sg22
g1490
sg23
I2
sa(dp1494
g3
I81447714
sg4
g5
sg6
I223381
sg7
g1489
sg9
g1489
sg10
VThe WCGOLD15BGenR2Q12u
p1495
sg12
Vhttp://52.8.24.90discount_code/?code=The WCGOLD15BGenR2Q12u
p1496
sg14
g15
sg16
g17
sg18
S'Wed, 13 May 2015 03:35:38 UTC'
p1497
sg20
S'-100%'
p1498
sg22
g1495
sg23
I5
sa(dp1499
g3
I81481281
sg4
g25
sg6
I223382
sg7
S'Corporate - Silver'
p1500
sg9
g1500
sg10
VLGS ICSIL15BBoSR2Q16N
p1501
sg12
Vhttp://52.8.24.90discount_code/?code=LGS ICSIL15BBoSR2Q16N
p1502
sg14
g28
sg16
g29
sg18
S'Wed, 13 May 2015 03:36:51 UTC'
p1503
sg20
S'-100%'
p1504
sg22
g1501
sg23
I3
sa(dp1505
g3
I81481281
sg4
g5
sg6
I223382
sg7
g1500
sg9
g1500
sg10
VLGS ICSIL15BGenR2Q16N
p1506
sg12
Vhttp://52.8.24.90discount_code/?code=LGS ICSIL15BGenR2Q16N
p1507
sg14
g15
sg16
g17
sg18
S'Wed, 13 May 2015 03:36:51 UTC'
p1508
sg20
S'-100%'
p1509
sg22
g1506
sg23
I3
sa(dp1510
g3
I81484417
sg4
g5
sg6
I223381
sg7
S'Corporate - Gold'
p1511
sg9
g1511
sg10
VIBMCGOLD15BGenR2Q12z
p1512
sg12
Vhttp://52.8.24.90discount_code/?code=IBMCGOLD15BGenR2Q12z
p1513
sg14
g15
sg16
g17
sg18
S'Wed, 13 May 2015 03:35:40 UTC'
p1514
sg20
S'-100%'
p1515
sg22
g1512
sg23
I5
sa(dp1516
g3
I81484417
sg4
g25
sg6
I223381
sg7
g1511
sg9
g1511
sg10
VIBMCGOLD15BBoSR2Q12z
p1517
sg12
Vhttp://52.8.24.90discount_code/?code=IBMCGOLD15BBoSR2Q12z
p1518
sg14
g28
sg16
g29
sg18
S'Wed, 13 May 2015 03:35:40 UTC'
p1519
sg20
S'-100%'
p1520
sg22
g1517
sg23
I2
sa(dp1521
g3
I81510483
sg4
g439
sg6
I223385
sg7
S'Academic - Bronze'
p1522
sg9
g1522
sg10
VSteveACABRZ15BFacR2Q1AA
p1523
sg12
Vhttp://52.8.24.90discount_code/?code=SteveACABRZ15BFacR2Q1AA
p1524
sg14
g442
sg16
g443
sg18
S'Wed, 13 May 2015 03:38:18 UTC'
p1525
sg20
S'-100%'
p1526
sg22
g1523
sg23
I1
sa(dp1527
g3
I81510483
sg4
g736
sg6
I223385
sg7
g1522
sg9
g1522
sg10
VSteveACABRZ15BStDc2Q1AA
p1528
sg12
Vhttp://52.8.24.90discount_code/?code=SteveACABRZ15BStDc2Q1AA
p1529
sg14
g450
sg16
S'student_10'
p1530
sg18
S'Wed, 13 May 2015 03:38:18 UTC'
p1531
sg20
S'-10%'
p1532
sg22
g1528
sg23
I1
sa(dp1533
g3
I81526681
sg4
g439
sg6
I223383
sg7
S'Academic - Gold'
p1534
sg9
g1534
sg10
VNew YACAGOLD15BFacR2Q18n
p1535
sg12
Vhttp://52.8.24.90discount_code/?code=New YACAGOLD15BFacR2Q18n
p1536
sg14
g442
sg16
g443
sg18
S'Wed, 13 May 2015 03:37:47 UTC'
p1537
sg20
S'-100%'
p1538
sg22
g1535
sg23
I3
sa(dp1539
g3
I81526681
sg4
g25
sg6
I223383
sg7
g1534
sg9
g1534
sg10
VNew YACAGOLD15BBoSR2Q18n
p1540
sg12
Vhttp://52.8.24.90discount_code/?code=New YACAGOLD15BBoSR2Q18n
p1541
sg14
g28
sg16
g29
sg18
S'Wed, 13 May 2015 03:37:47 UTC'
p1542
sg20
S'-100%'
p1543
sg22
g1540
sg23
I2
sa(dp1544
g3
I81526681
sg4
g981
sg6
I223383
sg7
g1534
sg9
g1534
sg10
VNew YACAGOLD15BStDc2Q18n
p1545
sg12
Vhttp://52.8.24.90discount_code/?code=New YACAGOLD15BStDc2Q18n
p1546
sg14
g450
sg16
S'student_20'
p1547
sg18
S'Wed, 13 May 2015 03:37:47 UTC'
p1548
sg20
S'-20%'
p1549
sg22
g1545
sg23
I1
sa(dp1550
g3
I81526695
sg4
g439
sg6
I223384
sg7
S'Academic - Silver'
p1551
sg9
g1551
sg10
VColumACASIL15BFacR2Q19b
p1552
sg12
Vhttp://52.8.24.90discount_code/?code=ColumACASIL15BFacR2Q19b
p1553
sg14
g442
sg16
g443
sg18
S'Wed, 13 May 2015 03:38:05 UTC'
p1554
sg20
S'-100%'
p1555
sg22
g1552
sg23
I2
sa(dp1556
g3
I81526695
sg4
g447
sg6
I223384
sg7
g1551
sg9
g1551
sg10
VColumACASIL15BStDc2Q19b
p1557
sg12
Vhttp://52.8.24.90discount_code/?code=ColumACASIL15BStDc2Q19b
p1558
sg14
g450
sg16
S'student_15'
p1559
sg18
S'Wed, 13 May 2015 03:38:05 UTC'
p1560
sg20
S'-15%'
p1561
sg22
g1557
sg23
I1
sa(dp1562
g3
I81526695
sg4
g25
sg6
I223384
sg7
g1551
sg9
g1551
sg10
VColumACASIL15BBoSR2Q19b
p1563
sg12
Vhttp://52.8.24.90discount_code/?code=ColumACASIL15BBoSR2Q19b
p1564
sg14
g28
sg16
g29
sg18
S'Wed, 13 May 2015 03:38:05 UTC'
p1565
sg20
S'-100%'
p1566
sg22
g1563
sg23
I3
sa(dp1567
g3
I81532271
sg4
g25
sg6
I223381
sg7
S'Corporate - Gold'
p1568
sg9
g1568
sg10
VOraclCGOLD15BBoSR2Q134
p1569
sg12
Vhttp://52.8.24.90discount_code/?code=OraclCGOLD15BBoSR2Q134
p1570
sg14
g28
sg16
g29
sg18
S'Wed, 13 May 2015 03:35:42 UTC'
p1571
sg20
S'-100%'
p1572
sg22
g1569
sg23
I2
sa(dp1573
g3
I81532271
sg4
g5
sg6
I223381
sg7
g1568
sg9
g1568
sg10
VOraclCGOLD15BGenR2Q134
p1574
sg12
Vhttp://52.8.24.90discount_code/?code=OraclCGOLD15BGenR2Q134
p1575
sg14
g15
sg16
g17
sg18
S'Wed, 13 May 2015 03:35:42 UTC'
p1576
sg20
S'-100%'
p1577
sg22
g1574
sg23
I5
sa(dp1578
g3
I81556060
sg4
g25
sg6
I223384
sg7
S'Academic - Silver'
p1579
sg9
g1579
sg10
VHassoACASIL15BBoSR2Q197
p1580
sg12
Vhttp://52.8.24.90discount_code/?code=HassoACASIL15BBoSR2Q197
p1581
sg14
g28
sg16
g29
sg18
S'Wed, 13 May 2015 03:37:55 UTC'
p1582
sg20
S'-100%'
p1583
sg22
g1580
sg23
I3
sa(dp1584
g3
I81556060
sg4
g447
sg6
I223384
sg7
g1579
sg9
g1579
sg10
VHassoACASIL15BStDc2Q197
p1585
sg12
Vhttp://52.8.24.90discount_code/?code=HassoACASIL15BStDc2Q197
p1586
sg14
g450
sg16
S'student_15'
p1587
sg18
S'Wed, 13 May 2015 03:37:55 UTC'
p1588
sg20
S'-15%'
p1589
sg22
g1585
sg23
I1
sa(dp1590
g3
I81556060
sg4
g439
sg6
I223384
sg7
g1579
sg9
g1579
sg10
VHassoACASIL15BFacR2Q197
p1591
sg12
Vhttp://52.8.24.90discount_code/?code=HassoACASIL15BFacR2Q197
p1592
sg14
g442
sg16
g443
sg18
S'Wed, 13 May 2015 03:37:55 UTC'
p1593
sg20
S'-100%'
p1594
sg22
g1591
sg23
I2
sa(dp1595
g3
I81579382
sg4
g33
sg6
I227146
sg7
S'GHC Event Sponsorships and Enterprise Packages'
p1596
sg9
g1596
sg10
VRed H152Q1B3
p1597
sg12
Vhttp://52.8.24.90discount_code/?code=Red H152Q1B3
p1598
sg14
g37
sg16
g38
sg18
S'Wed, 13 May 2015 03:38:38 UTC'
p1599
sg20
S'-100%'
p1600
sg22
g1597
sg23
I2
sa(dp1601
g3
I81579619
sg4
g25
sg6
I223381
sg7
S'Corporate - Gold'
p1602
sg9
g1602
sg10
VRed HCGOLD15BBoSR2Q139
p1603
sg12
Vhttp://52.8.24.90discount_code/?code=Red HCGOLD15BBoSR2Q139
p1604
sg14
g28
sg16
g29
sg18
S'Wed, 13 May 2015 03:35:43 UTC'
p1605
sg20
S'-100%'
p1606
sg22
g1603
sg23
I2
sa(dp1607
g3
I81579619
sg4
g5
sg6
I223381
sg7
g1602
sg9
g1602
sg10
VRed HCGOLD15BGenR2Q139
p1608
sg12
Vhttp://52.8.24.90discount_code/?code=Red HCGOLD15BGenR2Q139
p1609
sg14
g15
sg16
g17
sg18
S'Wed, 13 May 2015 03:35:43 UTC'
p1610
sg20
S'-100%'
p1611
sg22
g1608
sg23
I5
sa(dp1612
g3
I81595325
sg4
g25
sg6
I223384
sg7
S'Academic - Silver'
p1613
sg9
g1613
sg10
VUniveACASIL15BBoSR2Q19g
p1614
sg12
Vhttp://52.8.24.90discount_code/?code=UniveACASIL15BBoSR2Q19g
p1615
sg14
g28
sg16
g29
sg18
S'Wed, 13 May 2015 03:38:07 UTC'
p1616
sg20
S'-100%'
p1617
sg22
g1614
sg23
I3
sa(dp1618
g3
I81595325
sg4
g439
sg6
I223384
sg7
g1613
sg9
g1613
sg10
VUniveACASIL15BFacR2Q19g
p1619
sg12
Vhttp://52.8.24.90discount_code/?code=UniveACASIL15BFacR2Q19g
p1620
sg14
g442
sg16
g443
sg18
S'Wed, 13 May 2015 03:38:07 UTC'
p1621
sg20
S'-100%'
p1622
sg22
g1619
sg23
I2
sa(dp1623
g3
I81595325
sg4
g447
sg6
I223384
sg7
g1613
sg9
g1613
sg10
VUniveACASIL15BStDc2Q19g
p1624
sg12
Vhttp://52.8.24.90discount_code/?code=UniveACASIL15BStDc2Q19g
p1625
sg14
g450
sg16
S'student_15'
p1626
sg18
S'Wed, 13 May 2015 03:38:07 UTC'
p1627
sg20
S'-15%'
p1628
sg22
g1624
sg23
I1
sa(dp1629
g3
I81602634
sg4
g439
sg6
I223385
sg7
S'Academic - Bronze'
p1630
sg9
g1630
sg10
VDeparACABRZ15BFacR2Q1AF
p1631
sg12
Vhttp://52.8.24.90discount_code/?code=DeparACABRZ15BFacR2Q1AF
p1632
sg14
g442
sg16
g443
sg18
S'Wed, 13 May 2015 03:38:20 UTC'
p1633
sg20
S'-100%'
p1634
sg22
g1631
sg23
I1
sa(dp1635
g3
I81602634
sg4
g736
sg6
I223385
sg7
g1630
sg9
g1630
sg10
VDeparACABRZ15BStDc2Q1AF
p1636
sg12
Vhttp://52.8.24.90discount_code/?code=DeparACABRZ15BStDc2Q1AF
p1637
sg14
g450
sg16
S'student_10'
p1638
sg18
S'Wed, 13 May 2015 03:38:20 UTC'
p1639
sg20
S'-10%'
p1640
sg22
g1636
sg23
I1
sa(dp1641
g3
I81604560
sg4
g5
sg6
I223382
sg7
S'Corporate - Silver'
p1642
sg9
g1642
sg10
VPremiCSIL15BGenR2Q16S
p1643
sg12
Vhttp://52.8.24.90discount_code/?code=PremiCSIL15BGenR2Q16S
p1644
sg14
g15
sg16
g17
sg18
S'Wed, 13 May 2015 03:36:53 UTC'
p1645
sg20
S'-100%'
p1646
sg22
g1643
sg23
I3
sa(dp1647
g3
I81604560
sg4
g25
sg6
I223382
sg7
g1642
sg9
g1642
sg10
VPremiCSIL15BBoSR2Q16S
p1648
sg12
Vhttp://52.8.24.90discount_code/?code=PremiCSIL15BBoSR2Q16S
p1649
sg14
g28
sg16
g29
sg18
S'Wed, 13 May 2015 03:36:53 UTC'
p1650
sg20
S'-100%'
p1651
sg22
g1648
sg23
I3
sa(dp1652
g3
I81604792
sg4
g25
sg6
I223383
sg7
S'Academic - Gold'
p1653
sg9
g1653
sg10
VGeorgACAGOLD15BBoSR2Q18s
p1654
sg12
Vhttp://52.8.24.90discount_code/?code=GeorgACAGOLD15BBoSR2Q18s
p1655
sg14
g28
sg16
g29
sg18
S'Wed, 13 May 2015 03:37:49 UTC'
p1656
sg20
S'-100%'
p1657
sg22
g1654
sg23
I2
sa(dp1658
g3
I81604792
sg4
g439
sg6
I223383
sg7
g1653
sg9
g1653
sg10
VGeorgACAGOLD15BFacR2Q18s
p1659
sg12
Vhttp://52.8.24.90discount_code/?code=GeorgACAGOLD15BFacR2Q18s
p1660
sg14
g442
sg16
g443
sg18
S'Wed, 13 May 2015 03:37:49 UTC'
p1661
sg20
S'-100%'
p1662
sg22
g1659
sg23
I3
sa(dp1663
g3
I81604792
sg4
g981
sg6
I223383
sg7
g1653
sg9
g1653
sg10
VGeorgACAGOLD15BStDc2Q18s
p1664
sg12
Vhttp://52.8.24.90discount_code/?code=GeorgACAGOLD15BStDc2Q18s
p1665
sg14
g450
sg16
S'student_20'
p1666
sg18
S'Wed, 13 May 2015 03:37:49 UTC'
p1667
sg20
S'-20%'
p1668
sg22
g1664
sg23
I1
sa(dp1669
g3
I81605421
sg4
g5
sg6
I223381
sg7
S'Corporate - Gold'
p1670
sg9
g1670
sg10
VAOLCGOLD15BGenR2Q13A
p1671
sg12
Vhttp://52.8.24.90discount_code/?code=AOLCGOLD15BGenR2Q13A
p1672
sg14
g15
sg16
g17
sg18
S'Wed, 13 May 2015 03:35:45 UTC'
p1673
sg20
S'-100%'
p1674
sg22
g1671
sg23
I5
sa(dp1675
g3
I81605421
sg4
g25
sg6
I223381
sg7
g1670
sg9
g1670
sg10
VAOLCGOLD15BBoSR2Q13A
p1676
sg12
Vhttp://52.8.24.90discount_code/?code=AOLCGOLD15BBoSR2Q13A
p1677
sg14
g28
sg16
g29
sg18
S'Wed, 13 May 2015 03:35:45 UTC'
p1678
sg20
S'-100%'
p1679
sg22
g1676
sg23
I2
sa(dp1680
g3
I80330099
sg4
g5
sg6
I223381
sg7
S'Corporate - Gold'
p1681
sg9
g1681
sg10
VBloomCGOLD15BGenR2Q13s
p1682
sg12
Vhttp://52.8.24.90discount_code/?code=BloomCGOLD15BGenR2Q13s
p1683
sg14
g15
sg16
g17
sg18
S'Wed, 13 May 2015 03:35:57 UTC'
p1684
sg20
S'-100%'
p1685
sg22
g1682
sg23
I5
sa(dp1686
g3
I80330099
sg4
g25
sg6
I223381
sg7
g1681
sg9
g1681
sg10
VBloomCGOLD15BBoSR2Q13s
p1687
sg12
Vhttp://52.8.24.90discount_code/?code=BloomCGOLD15BBoSR2Q13s
p1688
sg14
g28
sg16
g29
sg18
S'Wed, 13 May 2015 03:35:57 UTC'
p1689
sg20
S'-100%'
p1690
sg22
g1687
sg23
I2
sa.