(lp1
(dp2
S'SponsorID'
p3
I77845613
sS'badge_type_name'
p4
S'General'
p5
sS'RegTypeID'
p6
I223381
sS'code_source'
p7
S'Corporate - Gold'
p8
sS'RegistrationType'
p9
g8
sS'ID'
p10
VAccenCGOLD15BGenR2Q15o
p11
sS'discount_search_url'
p12
Vhttp://52.8.24.90discount_code/?code=AccenCGOLD15BGenR2Q15o
p13
sS'regonline_url'
p14
S'https://www.regonline.com?eventID=1702108&rTypeID=228781'
p15
sS'badge_type'
p16
S'general_full'
p17
sS'created_date'
p18
S'Wed, 13 May 2015 03:36:37 UTC'
p19
sS'regonline_str'
p20
S'-0%'
p21
sS'discount_code'
p22
g11
sS'quantity'
p23
I5
sa(dp24
g3
I77845613
sg4
S'Booth Staff Only'
p25
sg6
I223381
sg7
g8
sg9
g8
sg10
VAccenCGOLD15BBoSR2Q15o
p26
sg12
Vhttp://52.8.24.90discount_code/?code=AccenCGOLD15BBoSR2Q15o
p27
sg14
S'https://www.regonline.com?eventID=1702108&rTypeID=228807'
p28
sg16
S'booth'
p29
sg18
S'Wed, 13 May 2015 03:36:37 UTC'
p30
sg20
S'-0%'
p31
sg22
g26
sg23
I2
sa(dp32
g3
I77845651
sg4
S'General One Day'
p33
sg6
I223379
sg7
S'ABI Partners Only - Diamond'
p34
sg9
g34
sg10
VCapit152Q118
p35
sg12
Vhttp://52.8.24.90discount_code/?code=Capit152Q118
p36
sg14
S'https://www.regonline.com?eventID=1702108&rTypeID=228785'
p37
sg16
S'general_1'
p38
sg18
S'Wed, 13 May 2015 03:34:55 UTC'
p39
sg20
S'-0%'
p40
sg22
g35
sg23
I1
sa(dp41
g3
I77845651
sg4
g5
sg6
I223379
sg7
VEnterprise Pack
p42
sg9
g34
sg10
VCapit1510DGenR2Q118
p43
sg12
Vhttp://52.8.24.90discount_code/?code=Capit1510DGenR2Q118
p44
sg14
g15
sg16
g17
sg18
S'Wed, 13 May 2015 03:34:55 UTC'
p45
sg20
S'-0%'
p46
sg22
g43
sg23
I120
sa(dp47
g3
I77845651
sg4
g5
sg6
I223379
sg7
g34
sg9
g34
sg10
VCapitDIA15BGenR2Q118
p48
sg12
Vhttp://52.8.24.90discount_code/?code=CapitDIA15BGenR2Q118
p49
sg14
g15
sg16
g17
sg18
S'Wed, 13 May 2015 03:34:55 UTC'
p50
sg20
S'-0%'
p51
sg22
g48
sg23
I20
sa(dp52
g3
I77845651
sg4
g25
sg6
I223379
sg7
g34
sg9
g34
sg10
VCapitDIA15BBoSR2Q118
p53
sg12
Vhttp://52.8.24.90discount_code/?code=CapitDIA15BBoSR2Q118
p54
sg14
g28
sg16
g29
sg18
S'Wed, 13 May 2015 03:34:55 UTC'
p55
sg20
S'-0%'
p56
sg22
g53
sg23
I8
sa(dp57
g3
I77859939
sg4
g5
sg6
I223381
sg7
S'Corporate - Gold'
p58
sg9
g58
sg10
VBoxCGOLD15BGenR2Q15k
p59
sg12
Vhttp://52.8.24.90discount_code/?code=BoxCGOLD15BGenR2Q15k
p60
sg14
g15
sg16
g17
sg18
S'Wed, 13 May 2015 03:36:39 UTC'
p61
sg20
S'-0%'
p62
sg22
g59
sg23
I5
sa(dp63
g3
I77859939
sg4
g25
sg6
I223381
sg7
g58
sg9
g58
sg10
VBoxCGOLD15BBoSR2Q15k
p64
sg12
Vhttp://52.8.24.90discount_code/?code=BoxCGOLD15BBoSR2Q15k
p65
sg14
g28
sg16
g29
sg18
S'Wed, 13 May 2015 03:36:39 UTC'
p66
sg20
S'-0%'
p67
sg22
g64
sg23
I2
sa(dp68
g3
I77866379
sg4
g5
sg6
I223382
sg7
S'Corporate - Silver'
p69
sg9
g69
sg10
VMongoCSIL15BGenR2Q16X
p70
sg12
Vhttp://52.8.24.90discount_code/?code=MongoCSIL15BGenR2Q16X
p71
sg14
g15
sg16
g17
sg18
S'Wed, 13 May 2015 03:36:54 UTC'
p72
sg20
S'-0%'
p73
sg22
g70
sg23
I3
sa(dp74
g3
I77866379
sg4
g25
sg6
I223382
sg7
g69
sg9
g69
sg10
VMongoCSIL15BBoSR2Q16X
p75
sg12
Vhttp://52.8.24.90discount_code/?code=MongoCSIL15BBoSR2Q16X
p76
sg14
g28
sg16
g29
sg18
S'Wed, 13 May 2015 03:36:54 UTC'
p77
sg20
S'-0%'
p78
sg22
g75
sg23
I3
sa(dp79
g3
I77874390
sg4
g5
sg6
I223381
sg7
S'Corporate - Gold'
p80
sg9
g80
sg10
VGE SoCGOLD15BGenR2Q14m
p81
sg12
Vhttp://52.8.24.90discount_code/?code=GE SoCGOLD15BGenR2Q14m
p82
sg14
g15
sg16
g17
sg18
S'Wed, 13 May 2015 03:36:40 UTC'
p83
sg20
S'-0%'
p84
sg22
g81
sg23
I5
sa(dp85
g3
I77874390
sg4
g25
sg6
I223381
sg7
g80
sg9
g80
sg10
VGE SoCGOLD15BBoSR2Q14m
p86
sg12
Vhttp://52.8.24.90discount_code/?code=GE SoCGOLD15BBoSR2Q14m
p87
sg14
g28
sg16
g29
sg18
S'Wed, 13 May 2015 03:36:40 UTC'
p88
sg20
S'-0%'
p89
sg22
g86
sg23
I2
sa(dp90
g3
I77902004
sg4
g25
sg6
I223381
sg7
S'Corporate - Gold'
p91
sg9
g91
sg10
VPalanCGOLD15BBoSR2Q15t
p92
sg12
Vhttp://52.8.24.90discount_code/?code=PalanCGOLD15BBoSR2Q15t
p93
sg14
g28
sg16
g29
sg18
S'Wed, 13 May 2015 03:36:42 UTC'
p94
sg20
S'-0%'
p95
sg22
g92
sg23
I2
sa(dp96
g3
I77902004
sg4
g5
sg6
I223381
sg7
g91
sg9
g91
sg10
VPalanCGOLD15BGenR2Q15t
p97
sg12
Vhttp://52.8.24.90discount_code/?code=PalanCGOLD15BGenR2Q15t
p98
sg14
g15
sg16
g17
sg18
S'Wed, 13 May 2015 03:36:42 UTC'
p99
sg20
S'-0%'
p100
sg22
g97
sg23
I5
sa(dp101
g3
I77904414
sg4
g25
sg6
I223380
sg7
S'ABI Partners Only - Platinum'
p102
sg9
g102
sg10
VEMCPLAT15BBoSR2Q11I
p103
sg12
Vhttp://52.8.24.90discount_code/?code=EMCPLAT15BBoSR2Q11I
p104
sg14
g28
sg16
g29
sg18
S'Wed, 13 May 2015 03:35:00 UTC'
p105
sg20
S'-0%'
p106
sg22
g103
sg23
I8
sa(dp107
g3
I77904414
sg4
g5
sg6
I223380
sg7
g102
sg9
g102
sg10
VEMCPLAT15BGenR2Q11I
p108
sg12
Vhttp://52.8.24.90discount_code/?code=EMCPLAT15BGenR2Q11I
p109
sg14
g15
sg16
g17
sg18
S'Wed, 13 May 2015 03:35:00 UTC'
p110
sg20
S'-0%'
p111
sg22
g108
sg23
I10
sa(dp112
g3
I77904414
sg4
g5
sg6
I223380
sg7
VEnterprise Pack
p113
sg9
g102
sg10
VEMC1510DGenR2Q11I
p114
sg12
Vhttp://52.8.24.90discount_code/?code=EMC1510DGenR2Q11I
p115
sg14
g15
sg16
g17
sg18
S'Wed, 13 May 2015 03:35:00 UTC'
p116
sg20
S'-0%'
p117
sg22
g114
sg23
I10
sa(dp118
g3
I77928319
sg4
g25
sg6
I223381
sg7
S'Corporate - Gold'
p119
sg9
g119
sg10
VMorgaCGOLD15BBoSR2Q15y
p120
sg12
Vhttp://52.8.24.90discount_code/?code=MorgaCGOLD15BBoSR2Q15y
p121
sg14
g28
sg16
g29
sg18
S'Wed, 13 May 2015 03:36:43 UTC'
p122
sg20
S'-0%'
p123
sg22
g120
sg23
I2
sa(dp124
g3
I77928319
sg4
g5
sg6
I223381
sg7
g119
sg9
g119
sg10
VMorgaCGOLD15BGenR2Q15y
p125
sg12
Vhttp://52.8.24.90discount_code/?code=MorgaCGOLD15BGenR2Q15y
p126
sg14
g15
sg16
g17
sg18
S'Wed, 13 May 2015 03:36:43 UTC'
p127
sg20
S'-0%'
p128
sg22
g125
sg23
I5
sa(dp129
g3
I78012105
sg4
g5
sg6
I223381
sg7
S'Corporate - Gold'
p130
sg9
g130
sg10
VMacysCGOLD15BGenR2Q163
p131
sg12
Vhttp://52.8.24.90discount_code/?code=MacysCGOLD15BGenR2Q163
p132
sg14
g15
sg16
g17
sg18
S'Wed, 13 May 2015 03:36:45 UTC'
p133
sg20
S'-0%'
p134
sg22
g131
sg23
I5
sa(dp135
g3
I78012105
sg4
g25
sg6
I223381
sg7
g130
sg9
g130
sg10
VMacysCGOLD15BBoSR2Q163
p136
sg12
Vhttp://52.8.24.90discount_code/?code=MacysCGOLD15BBoSR2Q163
p137
sg14
g28
sg16
g29
sg18
S'Wed, 13 May 2015 03:36:45 UTC'
p138
sg20
S'-0%'
p139
sg22
g136
sg23
I2
sa(dp140
g3
I78012883
sg4
g25
sg6
I223380
sg7
S'ABI Partners Only - Platinum'
p141
sg9
g141
sg10
VJunipPLAT15BBoSR2Q11N
p142
sg12
Vhttp://52.8.24.90discount_code/?code=JunipPLAT15BBoSR2Q11N
p143
sg14
g28
sg16
g29
sg18
S'Wed, 13 May 2015 03:35:02 UTC'
p144
sg20
S'-0%'
p145
sg22
g142
sg23
I8
sa(dp146
g3
I78012883
sg4
g5
sg6
I223380
sg7
g141
sg9
g141
sg10
VJunipPLAT15BGenR2Q11N
p147
sg12
Vhttp://52.8.24.90discount_code/?code=JunipPLAT15BGenR2Q11N
p148
sg14
g15
sg16
g17
sg18
S'Wed, 13 May 2015 03:35:02 UTC'
p149
sg20
S'-0%'
p150
sg22
g147
sg23
I10
sa(dp151
g3
I78012883
sg4
g33
sg6
I223380
sg7
g141
sg9
g141
sg10
VJunip152Q11N
p152
sg12
Vhttp://52.8.24.90discount_code/?code=Junip152Q11N
p153
sg14
g37
sg16
g38
sg18
S'Wed, 13 May 2015 03:35:02 UTC'
p154
sg20
S'-0%'
p155
sg22
g152
sg23
I2
sa(dp156
g3
I78021784
sg4
g25
sg6
I223381
sg7
S'Corporate - Gold'
p157
sg9
g157
sg10
VSquarCGOLD15BBoSR2Q15K
p158
sg12
Vhttp://52.8.24.90discount_code/?code=SquarCGOLD15BBoSR2Q15K
p159
sg14
g28
sg16
g29
sg18
S'Wed, 13 May 2015 03:36:27 UTC'
p160
sg20
S'-0%'
p161
sg22
g158
sg23
I2
sa(dp162
g3
I78021784
sg4
g5
sg6
I223381
sg7
g157
sg9
g157
sg10
VSquarCGOLD15BGenR2Q15K
p163
sg12
Vhttp://52.8.24.90discount_code/?code=SquarCGOLD15BGenR2Q15K
p164
sg14
g15
sg16
g17
sg18
S'Wed, 13 May 2015 03:36:27 UTC'
p165
sg20
S'-0%'
p166
sg22
g163
sg23
I5
sa(dp167
g3
I78038806
sg4
g5
sg6
I223381
sg7
S'Corporate - Gold'
p168
sg9
g168
sg10
VJohnsCGOLD15BGenR2Q13E
p169
sg12
Vhttp://52.8.24.90discount_code/?code=JohnsCGOLD15BGenR2Q13E
p170
sg14
g15
sg16
g17
sg18
S'Wed, 13 May 2015 03:35:46 UTC'
p171
sg20
S'-0%'
p172
sg22
g169
sg23
I5
sa(dp173
g3
I78038806
sg4
g25
sg6
I223381
sg7
g168
sg9
g168
sg10
VJohnsCGOLD15BBoSR2Q13E
p174
sg12
Vhttp://52.8.24.90discount_code/?code=JohnsCGOLD15BBoSR2Q13E
p175
sg14
g28
sg16
g29
sg18
S'Wed, 13 May 2015 03:35:46 UTC'
p176
sg20
S'-0%'
p177
sg22
g174
sg23
I2
sa(dp178
g3
I78187521
sg4
g5
sg6
I223381
sg7
S'Corporate - Gold'
p179
sg9
g179
sg10
VTraveCGOLD15BGenR2Q15P
p180
sg12
Vhttp://52.8.24.90discount_code/?code=TraveCGOLD15BGenR2Q15P
p181
sg14
g15
sg16
g17
sg18
S'Wed, 13 May 2015 03:36:29 UTC'
p182
sg20
S'-0%'
p183
sg22
g180
sg23
I5
sa(dp184
g3
I78187521
sg4
g25
sg6
I223381
sg7
g179
sg9
g179
sg10
VTraveCGOLD15BBoSR2Q15P
p185
sg12
Vhttp://52.8.24.90discount_code/?code=TraveCGOLD15BBoSR2Q15P
p186
sg14
g28
sg16
g29
sg18
S'Wed, 13 May 2015 03:36:29 UTC'
p187
sg20
S'-0%'
p188
sg22
g185
sg23
I2
sa(dp189
g3
I78262005
sg4
g25
sg6
I223382
sg7
S'Corporate - Silver'
p190
sg9
g190
sg10
VKnewtCSIL15BBoSR2Q18J
p191
sg12
Vhttp://52.8.24.90discount_code/?code=KnewtCSIL15BBoSR2Q18J
p192
sg14
g28
sg16
g29
sg18
S'Wed, 13 May 2015 03:37:35 UTC'
p193
sg20
S'-0%'
p194
sg22
g191
sg23
I3
sa(dp195
g3
I78262005
sg4
g5
sg6
I223382
sg7
g190
sg9
g190
sg10
VKnewtCSIL15BGenR2Q18J
p196
sg12
Vhttp://52.8.24.90discount_code/?code=KnewtCSIL15BGenR2Q18J
p197
sg14
g15
sg16
g17
sg18
S'Wed, 13 May 2015 03:37:35 UTC'
p198
sg20
S'-0%'
p199
sg22
g196
sg23
I3
sa(dp200
g3
I78262635
sg4
g5
sg6
I223381
sg7
S'Corporate - Gold'
p201
sg9
g201
sg10
VMailCCGOLD15BGenR2Q15U
p202
sg12
Vhttp://52.8.24.90discount_code/?code=MailCCGOLD15BGenR2Q15U
p203
sg14
g15
sg16
g17
sg18
S'Wed, 13 May 2015 03:36:31 UTC'
p204
sg20
S'-0%'
p205
sg22
g202
sg23
I5
sa(dp206
g3
I78262635
sg4
g25
sg6
I223381
sg7
g201
sg9
g201
sg10
VMailCCGOLD15BBoSR2Q15U
p207
sg12
Vhttp://52.8.24.90discount_code/?code=MailCCGOLD15BBoSR2Q15U
p208
sg14
g28
sg16
g29
sg18
S'Wed, 13 May 2015 03:36:31 UTC'
p209
sg20
S'-0%'
p210
sg22
g207
sg23
I2
sa(dp211
g3
I78269185
sg4
g5
sg6
I223382
sg7
S'Corporate - Silver'
p212
sg9
g212
sg10
VD. E.CSIL15BGenR2Q18O
p213
sg12
Vhttp://52.8.24.90discount_code/?code=D. E.CSIL15BGenR2Q18O
p214
sg14
g15
sg16
g17
sg18
S'Wed, 13 May 2015 03:37:37 UTC'
p215
sg20
S'-0%'
p216
sg22
g213
sg23
I3
sa(dp217
g3
I78269185
sg4
g25
sg6
I223382
sg7
g212
sg9
g212
sg10
VD. E.CSIL15BBoSR2Q18O
p218
sg12
Vhttp://52.8.24.90discount_code/?code=D. E.CSIL15BBoSR2Q18O
p219
sg14
g28
sg16
g29
sg18
S'Wed, 13 May 2015 03:37:37 UTC'
p220
sg20
S'-0%'
p221
sg22
g218
sg23
I3
sa(dp222
g3
I78412181
sg4
g5
sg6
I223380
sg7
S'ABI Partners Only - Platinum'
p223
sg9
g223
sg10
VNetApPLAT15BGenR2Q11S
p224
sg12
Vhttp://52.8.24.90discount_code/?code=NetApPLAT15BGenR2Q11S
p225
sg14
g15
sg16
g17
sg18
S'Wed, 13 May 2015 03:35:04 UTC'
p226
sg20
S'-0%'
p227
sg22
g224
sg23
I10
sa(dp228
g3
I78412181
sg4
g25
sg6
I223380
sg7
g223
sg9
g223
sg10
VNetApPLAT15BBoSR2Q11S
p229
sg12
Vhttp://52.8.24.90discount_code/?code=NetApPLAT15BBoSR2Q11S
p230
sg14
g28
sg16
g29
sg18
S'Wed, 13 May 2015 03:35:04 UTC'
p231
sg20
S'-0%'
p232
sg22
g229
sg23
I8
sa(dp233
g3
I78465630
sg4
g5
sg6
I223382
sg7
S'Corporate - Silver'
p234
sg9
g234
sg10
VMarkLCSIL15BGenR2Q17M
p235
sg12
Vhttp://52.8.24.90discount_code/?code=MarkLCSIL15BGenR2Q17M
p236
sg14
g15
sg16
g17
sg18
S'Wed, 13 May 2015 03:37:38 UTC'
p237
sg20
S'-0%'
p238
sg22
g235
sg23
I3
sa(dp239
g3
I78465630
sg4
g25
sg6
I223382
sg7
g234
sg9
g234
sg10
VMarkLCSIL15BBoSR2Q17M
p240
sg12
Vhttp://52.8.24.90discount_code/?code=MarkLCSIL15BBoSR2Q17M
p241
sg14
g28
sg16
g29
sg18
S'Wed, 13 May 2015 03:37:38 UTC'
p242
sg20
S'-0%'
p243
sg22
g240
sg23
I3
sa(dp244
g3
I78562705
sg4
g25
sg6
I223380
sg7
S'ABI Partners Only - Platinum'
p245
sg9
g245
sg10
VDropbPLAT15BBoSR2Q11X
p246
sg12
Vhttp://52.8.24.90discount_code/?code=DropbPLAT15BBoSR2Q11X
p247
sg14
g28
sg16
g29
sg18
S'Wed, 13 May 2015 03:35:06 UTC'
p248
sg20
S'-0%'
p249
sg22
g246
sg23
I8
sa(dp250
g3
I78562705
sg4
g5
sg6
I223380
sg7
g245
sg9
g245
sg10
VDropbPLAT15BGenR2Q11X
p251
sg12
Vhttp://52.8.24.90discount_code/?code=DropbPLAT15BGenR2Q11X
p252
sg14
g15
sg16
g17
sg18
S'Wed, 13 May 2015 03:35:06 UTC'
p253
sg20
S'-0%'
p254
sg22
g251
sg23
I10
sa(dp255
g3
I78603554
sg4
g5
sg6
I223381
sg7
S'Corporate - Gold'
p256
sg9
g256
sg10
VNetSuCGOLD15BGenR2Q15Z
p257
sg12
Vhttp://52.8.24.90discount_code/?code=NetSuCGOLD15BGenR2Q15Z
p258
sg14
g15
sg16
g17
sg18
S'Wed, 13 May 2015 03:36:32 UTC'
p259
sg20
S'-0%'
p260
sg22
g257
sg23
I5
sa(dp261
g3
I78603554
sg4
g25
sg6
I223381
sg7
g256
sg9
g256
sg10
VNetSuCGOLD15BBoSR2Q15Z
p262
sg12
Vhttp://52.8.24.90discount_code/?code=NetSuCGOLD15BBoSR2Q15Z
p263
sg14
g28
sg16
g29
sg18
S'Wed, 13 May 2015 03:36:32 UTC'
p264
sg20
S'-0%'
p265
sg22
g262
sg23
I2
sa(dp266
g3
I78623682
sg4
g5
sg6
I223382
sg7
S'Corporate - Silver'
p267
sg9
g267
sg10
VFireECSIL15BGenR2Q18T
p268
sg12
Vhttp://52.8.24.90discount_code/?code=FireECSIL15BGenR2Q18T
p269
sg14
g15
sg16
g17
sg18
S'Wed, 13 May 2015 03:37:40 UTC'
p270
sg20
S'-0%'
p271
sg22
g268
sg23
I3
sa(dp272
g3
I78623682
sg4
g25
sg6
I223382
sg7
g267
sg9
g267
sg10
VFireECSIL15BBoSR2Q18T
p273
sg12
Vhttp://52.8.24.90discount_code/?code=FireECSIL15BBoSR2Q18T
p274
sg14
g28
sg16
g29
sg18
S'Wed, 13 May 2015 03:37:40 UTC'
p275
sg20
S'-0%'
p276
sg22
g273
sg23
I3
sa(dp277
g3
I78637801
sg4
g5
sg6
I223382
sg7
S'Corporate - Silver'
p278
sg9
g278
sg10
VBloomCSIL15BGenR2Q18Y
p279
sg12
Vhttp://52.8.24.90discount_code/?code=BloomCSIL15BGenR2Q18Y
p280
sg14
g15
sg16
g17
sg18
S'Wed, 13 May 2015 03:37:42 UTC'
p281
sg20
S'-0%'
p282
sg22
g279
sg23
I3
sa(dp283
g3
I78637801
sg4
g25
sg6
I223382
sg7
g278
sg9
g278
sg10
VBloomCSIL15BBoSR2Q18Y
p284
sg12
Vhttp://52.8.24.90discount_code/?code=BloomCSIL15BBoSR2Q18Y
p285
sg14
g28
sg16
g29
sg18
S'Wed, 13 May 2015 03:37:42 UTC'
p286
sg20
S'-0%'
p287
sg22
g284
sg23
I3
sa(dp288
g3
I78731228
sg4
g5
sg6
I223382
sg7
S'Corporate - Silver'
p289
sg9
g289
sg10
VPURE CSIL15BGenR2Q18U
p290
sg12
Vhttp://52.8.24.90discount_code/?code=PURE CSIL15BGenR2Q18U
p291
sg14
g15
sg16
g17
sg18
S'Wed, 13 May 2015 03:37:43 UTC'
p292
sg20
S'-0%'
p293
sg22
g290
sg23
I3
sa(dp294
g3
I78731228
sg4
g25
sg6
I223382
sg7
g289
sg9
g289
sg10
VPURE CSIL15BBoSR2Q18U
p295
sg12
Vhttp://52.8.24.90discount_code/?code=PURE CSIL15BBoSR2Q18U
p296
sg14
g28
sg16
g29
sg18
S'Wed, 13 May 2015 03:37:43 UTC'
p297
sg20
S'-0%'
p298
sg22
g295
sg23
I3
sa(dp299
g3
I78735834
sg4
g5
sg6
I223381
sg7
S'Corporate - Gold'
p300
sg9
g300
sg10
VSymanCGOLD15BGenR2Q15e
p301
sg12
Vhttp://52.8.24.90discount_code/?code=SymanCGOLD15BGenR2Q15e
p302
sg14
g15
sg16
g17
sg18
S'Wed, 13 May 2015 03:36:34 UTC'
p303
sg20
S'-0%'
p304
sg22
g301
sg23
I5
sa(dp305
g3
I78735834
sg4
g25
sg6
I223381
sg7
g300
sg9
g300
sg10
VSymanCGOLD15BBoSR2Q15e
p306
sg12
Vhttp://52.8.24.90discount_code/?code=SymanCGOLD15BBoSR2Q15e
p307
sg14
g28
sg16
g29
sg18
S'Wed, 13 May 2015 03:36:34 UTC'
p308
sg20
S'-0%'
p309
sg22
g306
sg23
I2
sa(dp310
g3
I78943484
sg4
g5
sg6
I223380
sg7
S'ABI Partners Only - Platinum'
p311
sg9
g311
sg10
VIntelPLAT15BGenR2Q12Q
p312
sg12
Vhttp://52.8.24.90discount_code/?code=IntelPLAT15BGenR2Q12Q
p313
sg14
g15
sg16
g17
sg18
S'Wed, 13 May 2015 03:35:27 UTC'
p314
sg20
S'-0%'
p315
sg22
g312
sg23
I10
sa(dp316
g3
I78943484
sg4
g25
sg6
I223380
sg7
g311
sg9
g311
sg10
VIntelPLAT15BBoSR2Q12Q
p317
sg12
Vhttp://52.8.24.90discount_code/?code=IntelPLAT15BBoSR2Q12Q
p318
sg14
g28
sg16
g29
sg18
S'Wed, 13 May 2015 03:35:27 UTC'
p319
sg20
S'-0%'
p320
sg22
g317
sg23
I8
sa(dp321
g3
I79019098
sg4
g25
sg6
I223382
sg7
S'Corporate - Silver'
p322
sg9
g322
sg10
VT. RoCSIL15BBoSR2Q17p
p323
sg12
Vhttp://52.8.24.90discount_code/?code=T. RoCSIL15BBoSR2Q17p
p324
sg14
g28
sg16
g29
sg18
S'Wed, 13 May 2015 03:37:25 UTC'
p325
sg20
S'-0%'
p326
sg22
g323
sg23
I3
sa(dp327
g3
I79019098
sg4
g5
sg6
I223382
sg7
g322
sg9
g322
sg10
VT. RoCSIL15BGenR2Q17p
p328
sg12
Vhttp://52.8.24.90discount_code/?code=T. RoCSIL15BGenR2Q17p
p329
sg14
g15
sg16
g17
sg18
S'Wed, 13 May 2015 03:37:25 UTC'
p330
sg20
S'-0%'
p331
sg22
g328
sg23
I3
sa(dp332
g3
I79027154
sg4
g5
sg6
I223382
sg7
S'Corporate - Silver'
p333
sg9
g333
sg10
VHubSpCSIL15BGenR2Q17u
p334
sg12
Vhttp://52.8.24.90discount_code/?code=HubSpCSIL15BGenR2Q17u
p335
sg14
g15
sg16
g17
sg18
S'Wed, 13 May 2015 03:37:27 UTC'
p336
sg20
S'-0%'
p337
sg22
g334
sg23
I3
sa(dp338
g3
I79027154
sg4
g25
sg6
I223382
sg7
g333
sg9
g333
sg10
VHubSpCSIL15BBoSR2Q17u
p339
sg12
Vhttp://52.8.24.90discount_code/?code=HubSpCSIL15BBoSR2Q17u
p340
sg14
g28
sg16
g29
sg18
S'Wed, 13 May 2015 03:37:27 UTC'
p341
sg20
S'-0%'
p342
sg22
g339
sg23
I3
sa(dp343
g3
I79043680
sg4
g25
sg6
I223381
sg7
S'Corporate - Gold'
p344
sg9
g344
sg10
VYelpCGOLD15BBoSR2Q15j
p345
sg12
Vhttp://52.8.24.90discount_code/?code=YelpCGOLD15BBoSR2Q15j
p346
sg14
g28
sg16
g29
sg18
S'Wed, 13 May 2015 03:36:36 UTC'
p347
sg20
S'-0%'
p348
sg22
g345
sg23
I2
sa(dp349
g3
I79043680
sg4
g5
sg6
I223381
sg7
g344
sg9
g344
sg10
VYelpCGOLD15BGenR2Q15j
p350
sg12
Vhttp://52.8.24.90discount_code/?code=YelpCGOLD15BGenR2Q15j
p351
sg14
g15
sg16
g17
sg18
S'Wed, 13 May 2015 03:36:36 UTC'
p352
sg20
S'-0%'
p353
sg22
g350
sg23
I5
sa(dp354
g3
I79052836
sg4
g33
sg6
I226598
sg7
S'Show Management'
p355
sg9
g355
sg10
VAnita152Q1AP
p356
sg12
Vhttp://52.8.24.90discount_code/?code=Anita152Q1AP
p357
sg14
g37
sg16
g38
sg18
S'Wed, 13 May 2015 03:38:23 UTC'
p358
sg20
S'-0%'
p359
sg22
g356
sg23
I1
sa(dp360
g3
I79052836
sg4
g33
sg6
I226598
sg7
g355
sg9
g355
sg10
VAnita15TEF2Q1AP
p361
sg12
Vhttp://52.8.24.90discount_code/?code=Anita15TEF2Q1AP
p362
sg14
g37
sg16
g38
sg18
S'Wed, 13 May 2015 03:38:23 UTC'
p363
sg20
S'-0%'
p364
sg22
g361
sg23
I2
sa(dp365
g3
I79141580
sg4
g25
sg6
I223381
sg7
S'Corporate - Gold'
p366
sg9
g366
sg10
VSalesCGOLD15BBoSR2Q14q
p367
sg12
Vhttp://52.8.24.90discount_code/?code=SalesCGOLD15BBoSR2Q14q
p368
sg14
g28
sg16
g29
sg18
S'Wed, 13 May 2015 03:36:18 UTC'
p369
sg20
S'-0%'
p370
sg22
g367
sg23
I2
sa(dp371
g3
I79141580
sg4
g5
sg6
I223381
sg7
VEnterprise Pack
p372
sg9
g366
sg10
VSales1510DGenR2Q14q
p373
sg12
Vhttp://52.8.24.90discount_code/?code=Sales1510DGenR2Q14q
p374
sg14
g15
sg16
g17
sg18
S'Wed, 13 May 2015 03:36:18 UTC'
p375
sg20
S'-0%'
p376
sg22
g373
sg23
I20
sa(dp377
g3
I79141580
sg4
g5
sg6
I223381
sg7
g366
sg9
g366
sg10
VSalesCGOLD15BGenR2Q14q
p378
sg12
Vhttp://52.8.24.90discount_code/?code=SalesCGOLD15BGenR2Q14q
p379
sg14
g15
sg16
g17
sg18
S'Wed, 13 May 2015 03:36:18 UTC'
p380
sg20
S'-0%'
p381
sg22
g378
sg23
I5
sa(dp382
g3
I79177074
sg4
g5
sg6
I226853
sg7
S'Lab & Non-Profit - Bronze'
p383
sg9
g383
sg10
VBlackL&NBRZ15BGenR2Q1Af
p384
sg12
Vhttp://52.8.24.90discount_code/?code=BlackL&NBRZ15BGenR2Q1Af
p385
sg14
g15
sg16
g17
sg18
S'Wed, 13 May 2015 03:38:29 UTC'
p386
sg20
S'-0%'
p387
sg22
g384
sg23
I1
sa(dp388
g3
I79196510
sg4
g5
sg6
I223381
sg7
S'Corporate - Gold'
p389
sg9
g389
sg10
VStateCGOLD15BGenR2Q14v
p390
sg12
Vhttp://52.8.24.90discount_code/?code=StateCGOLD15BGenR2Q14v
p391
sg14
g15
sg16
g17
sg18
S'Wed, 13 May 2015 03:36:19 UTC'
p392
sg20
S'-0%'
p393
sg22
g390
sg23
I5
sa(dp394
g3
I79196510
sg4
g25
sg6
I223381
sg7
g389
sg9
g389
sg10
VStateCGOLD15BBoSR2Q14v
p395
sg12
Vhttp://52.8.24.90discount_code/?code=StateCGOLD15BBoSR2Q14v
p396
sg14
g28
sg16
g29
sg18
S'Wed, 13 May 2015 03:36:19 UTC'
p397
sg20
S'-0%'
p398
sg22
g395
sg23
I2
sa(dp399
g3
I79208313
sg4
g5
sg6
I223381
sg7
S'Corporate - Gold'
p400
sg9
g400
sg10
VBNY MCGOLD15BGenR2Q150
p401
sg12
Vhttp://52.8.24.90discount_code/?code=BNY MCGOLD15BGenR2Q150
p402
sg14
g15
sg16
g17
sg18
S'Wed, 13 May 2015 03:36:21 UTC'
p403
sg20
S'-0%'
p404
sg22
g401
sg23
I5
sa(dp405
g3
I79208313
sg4
g25
sg6
I223381
sg7
g400
sg9
g400
sg10
VBNY MCGOLD15BBoSR2Q150
p406
sg12
Vhttp://52.8.24.90discount_code/?code=BNY MCGOLD15BBoSR2Q150
p407
sg14
g28
sg16
g29
sg18
S'Wed, 13 May 2015 03:36:21 UTC'
p408
sg20
S'-0%'
p409
sg22
g406
sg23
I2
sa(dp410
g3
I79217975
sg4
g5
sg6
I223380
sg7
S'ABI Partners Only - Platinum'
p411
sg9
g411
sg10
VCA TePLAT15BGenR2Q12V
p412
sg12
Vhttp://52.8.24.90discount_code/?code=CA TePLAT15BGenR2Q12V
p413
sg14
g15
sg16
g17
sg18
S'Wed, 13 May 2015 03:35:29 UTC'
p414
sg20
S'-0%'
p415
sg22
g412
sg23
I10
sa(dp416
g3
I79217975
sg4
g25
sg6
I223380
sg7
g411
sg9
g411
sg10
VCA TePLAT15BBoSR2Q12V
p417
sg12
Vhttp://52.8.24.90discount_code/?code=CA TePLAT15BBoSR2Q12V
p418
sg14
g28
sg16
g29
sg18
S'Wed, 13 May 2015 03:35:29 UTC'
p419
sg20
S'-0%'
p420
sg22
g417
sg23
I8
sa(dp421
g3
I79217975
sg4
g5
sg6
I223380
sg7
VEnterprise Pack
p422
sg9
g411
sg10
VCA Te1510DGenR2Q12V
p423
sg12
Vhttp://52.8.24.90discount_code/?code=CA Te1510DGenR2Q12V
p424
sg14
g15
sg16
g17
sg18
S'Wed, 13 May 2015 03:35:29 UTC'
p425
sg20
S'-0%'
p426
sg22
g423
sg23
I10
sa(dp427
g3
I79217975
sg4
g33
sg6
I223380
sg7
g411
sg9
g411
sg10
VCA Te152Q12V
p428
sg12
Vhttp://52.8.24.90discount_code/?code=CA Te152Q12V
p429
sg14
g37
sg16
g38
sg18
S'Wed, 13 May 2015 03:35:29 UTC'
p430
sg20
S'-0%'
p431
sg22
g428
sg23
I1
sa(dp432
g3
I79255748
sg4
g25
sg6
I223384
sg7
S'Academic - Silver'
p433
sg9
g433
sg10
VUT-DaACASIL15BBoSR2Q19C
p434
sg12
Vhttp://52.8.24.90discount_code/?code=UT-DaACASIL15BBoSR2Q19C
p435
sg14
g28
sg16
g29
sg18
S'Wed, 13 May 2015 03:37:57 UTC'
p436
sg20
S'-0%'
p437
sg22
g434
sg23
I3
sa(dp438
g3
I79255748
sg4
S'Academic'
p439
sg6
I223384
sg7
g433
sg9
g433
sg10
VUT-DaACASIL15BFacR2Q19C
p440
sg12
Vhttp://52.8.24.90discount_code/?code=UT-DaACASIL15BFacR2Q19C
p441
sg14
S'https://www.regonline.com?eventID=1702108&rTypeID=228783'
p442
sg16
S'academic_full'
p443
sg18
S'Wed, 13 May 2015 03:37:57 UTC'
p444
sg20
S'-0%'
p445
sg22
g440
sg23
I2
sa(dp446
g3
I79255748
sg4
S'Student'
p447
sg6
I223384
sg7
g433
sg9
g433
sg10
VUT-DaACASIL15BStDc2Q19C
p448
sg12
Vhttp://52.8.24.90discount_code/?code=UT-DaACASIL15BStDc2Q19C
p449
sg14
S'https://www.regonline.com?eventID=1702108&rTypeID=228782'
p450
sg16
S'student_full'
p451
sg18
S'Wed, 13 May 2015 03:37:57 UTC'
p452
sg20
S'-0%'
p453
sg22
g448
sg23
I1
sa(dp454
g3
I79348115
sg4
g25
sg6
I223382
sg7
S'Corporate - Silver'
p455
sg9
g455
sg10
VSearsCSIL15BBoSR2Q17z
p456
sg12
Vhttp://52.8.24.90discount_code/?code=SearsCSIL15BBoSR2Q17z
p457
sg14
g28
sg16
g29
sg18
S'Wed, 13 May 2015 03:37:28 UTC'
p458
sg20
S'-0%'
p459
sg22
g456
sg23
I3
sa(dp460
g3
I79348115
sg4
g5
sg6
I223382
sg7
g455
sg9
g455
sg10
VSearsCSIL15BGenR2Q17z
p461
sg12
Vhttp://52.8.24.90discount_code/?code=SearsCSIL15BGenR2Q17z
p462
sg14
g15
sg16
g17
sg18
S'Wed, 13 May 2015 03:37:28 UTC'
p463
sg20
S'-0%'
p464
sg22
g461
sg23
I3
sa(dp465
g3
I79396333
sg4
g5
sg6
I226851
sg7
S'Lab & Non-Profit - Gold'
p466
sg9
g466
sg10
VMIT LL&NGOLD15BGenR2Q1AU
p467
sg12
Vhttp://52.8.24.90discount_code/?code=MIT LL&NGOLD15BGenR2Q1AU
p468
sg14
g15
sg16
g17
sg18
S'Wed, 13 May 2015 03:38:25 UTC'
p469
sg20
S'-0%'
p470
sg22
g467
sg23
I3
sa(dp471
g3
I79402913
sg4
g25
sg6
I223380
sg7
S'ABI Partners Only - Platinum'
p472
sg9
g472
sg10
VBank PLAT15BBoSR2Q12a
p473
sg12
Vhttp://52.8.24.90discount_code/?code=Bank PLAT15BBoSR2Q12a
p474
sg14
g28
sg16
g29
sg18
S'Wed, 13 May 2015 03:35:32 UTC'
p475
sg20
S'-0%'
p476
sg22
g473
sg23
I8
sa(dp477
g3
I79402913
sg4
g5
sg6
I223380
sg7
VEnterprise Pack
p478
sg9
g472
sg10
VBank 1510DGenR2Q12a
p479
sg12
Vhttp://52.8.24.90discount_code/?code=Bank 1510DGenR2Q12a
p480
sg14
g15
sg16
g17
sg18
S'Wed, 13 May 2015 03:35:32 UTC'
p481
sg20
S'-0%'
p482
sg22
g479
sg23
I50
sa(dp483
g3
I79402913
sg4
g5
sg6
I223380
sg7
g472
sg9
g472
sg10
VBank PLAT15BGenR2Q12a
p484
sg12
Vhttp://52.8.24.90discount_code/?code=Bank PLAT15BGenR2Q12a
p485
sg14
g15
sg16
g17
sg18
S'Wed, 13 May 2015 03:35:32 UTC'
p486
sg20
S'-0%'
p487
sg22
g484
sg23
I10
sa(dp488
g3
I79479575
sg4
g25
sg6
I223380
sg7
S'ABI Partners Only - Platinum'
p489
sg9
g489
sg10
VRacksPLAT15BBoSR2Q12f
p490
sg12
Vhttp://52.8.24.90discount_code/?code=RacksPLAT15BBoSR2Q12f
p491
sg14
g28
sg16
g29
sg18
S'Wed, 13 May 2015 03:35:33 UTC'
p492
sg20
S'-0%'
p493
sg22
g490
sg23
I8
sa(dp494
g3
I79479575
sg4
g5
sg6
I223380
sg7
g489
sg9
g489
sg10
VRacksPLAT15BGenR2Q12f
p495
sg12
Vhttp://52.8.24.90discount_code/?code=RacksPLAT15BGenR2Q12f
p496
sg14
g15
sg16
g17
sg18
S'Wed, 13 May 2015 03:35:33 UTC'
p497
sg20
S'-0%'
p498
sg22
g495
sg23
I10
sa(dp499
g3
I79584463
sg4
g5
sg6
I223381
sg7
S'Corporate - Gold'
p500
sg9
g500
sg10
VCrediCGOLD15BGenR2Q155
p501
sg12
Vhttp://52.8.24.90discount_code/?code=CrediCGOLD15BGenR2Q155
p502
sg14
g15
sg16
g17
sg18
S'Wed, 13 May 2015 03:36:23 UTC'
p503
sg20
S'-0%'
p504
sg22
g501
sg23
I5
sa(dp505
g3
I79584463
sg4
g25
sg6
I223381
sg7
g500
sg9
g500
sg10
VCrediCGOLD15BBoSR2Q155
p506
sg12
Vhttp://52.8.24.90discount_code/?code=CrediCGOLD15BBoSR2Q155
p507
sg14
g28
sg16
g29
sg18
S'Wed, 13 May 2015 03:36:23 UTC'
p508
sg20
S'-0%'
p509
sg22
g506
sg23
I2
sa(dp510
g3
I79599643
sg4
g33
sg6
I223380
sg7
S'ABI Partners Only - Platinum'
p511
sg9
g511
sg10
VThoms15TEF2Q12k
p512
sg12
Vhttp://52.8.24.90discount_code/?code=Thoms15TEF2Q12k
p513
sg14
g37
sg16
g38
sg18
S'Wed, 13 May 2015 03:35:35 UTC'
p514
sg20
S'-0%'
p515
sg22
g512
sg23
I1
sa(dp516
g3
I79599643
sg4
g5
sg6
I223380
sg7
g511
sg9
g511
sg10
VThomsPLAT15BGenR2Q12k
p517
sg12
Vhttp://52.8.24.90discount_code/?code=ThomsPLAT15BGenR2Q12k
p518
sg14
g15
sg16
g17
sg18
S'Wed, 13 May 2015 03:35:35 UTC'
p519
sg20
S'-0%'
p520
sg22
g517
sg23
I10
sa(dp521
g3
I79599643
sg4
g25
sg6
I223380
sg7
g511
sg9
g511
sg10
VThomsPLAT15BBoSR2Q12k
p522
sg12
Vhttp://52.8.24.90discount_code/?code=ThomsPLAT15BBoSR2Q12k
p523
sg14
g28
sg16
g29
sg18
S'Wed, 13 May 2015 03:35:35 UTC'
p524
sg20
S'-0%'
p525
sg22
g522
sg23
I8
sa(dp526
g3
I79600826
sg4
g5
sg6
I223381
sg7
S'Corporate - Gold'
p527
sg9
g527
sg10
VAT&TCGOLD15BGenR2Q15A
p528
sg12
Vhttp://52.8.24.90discount_code/?code=AT&TCGOLD15BGenR2Q15A
p529
sg14
g15
sg16
g17
sg18
S'Wed, 13 May 2015 03:36:24 UTC'
p530
sg20
S'-0%'
p531
sg22
g528
sg23
I5
sa(dp532
g3
I79600826
sg4
g25
sg6
I223381
sg7
g527
sg9
g527
sg10
VAT&TCGOLD15BBoSR2Q15A
p533
sg12
Vhttp://52.8.24.90discount_code/?code=AT&TCGOLD15BBoSR2Q15A
p534
sg14
g28
sg16
g29
sg18
S'Wed, 13 May 2015 03:36:24 UTC'
p535
sg20
S'-0%'
p536
sg22
g533
sg23
I2
sa(dp537
g3
I79609919
sg4
g25
sg6
I223380
sg7
S'ABI Partners Only - Platinum'
p538
sg9
g538
sg10
VVMwarPLAT15BBoSR2Q12p
p539
sg12
Vhttp://52.8.24.90discount_code/?code=VMwarPLAT15BBoSR2Q12p
p540
sg14
g28
sg16
g29
sg18
S'Wed, 13 May 2015 03:35:37 UTC'
p541
sg20
S'-0%'
p542
sg22
g539
sg23
I8
sa(dp543
g3
I79609919
sg4
g5
sg6
I223380
sg7
g538
sg9
g538
sg10
VVMwarPLAT15BGenR2Q12p
p544
sg12
Vhttp://52.8.24.90discount_code/?code=VMwarPLAT15BGenR2Q12p
p545
sg14
g15
sg16
g17
sg18
S'Wed, 13 May 2015 03:35:37 UTC'
p546
sg20
S'-0%'
p547
sg22
g544
sg23
I10
sa(dp548
g3
I79699190
sg4
g5
sg6
I223380
sg7
S'ABI Partners Only - Platinum'
p549
sg9
g549
sg10
VLinkePLAT15BGenR2Q121
p550
sg12
Vhttp://52.8.24.90discount_code/?code=LinkePLAT15BGenR2Q121
p551
sg14
g15
sg16
g17
sg18
S'Wed, 13 May 2015 03:35:18 UTC'
p552
sg20
S'-0%'
p553
sg22
g550
sg23
I10
sa(dp554
g3
I79699190
sg4
g25
sg6
I223380
sg7
g549
sg9
g549
sg10
VLinkePLAT15BBoSR2Q121
p555
sg12
Vhttp://52.8.24.90discount_code/?code=LinkePLAT15BBoSR2Q121
p556
sg14
g28
sg16
g29
sg18
S'Wed, 13 May 2015 03:35:18 UTC'
p557
sg20
S'-0%'
p558
sg22
g555
sg23
I8
sa(dp559
g3
I79781177
sg4
g5
sg6
I223379
sg7
S'ABI Partners Only - Diamond'
p560
sg9
g560
sg10
VCiscoDIA15BGenR2Q10y
p561
sg12
Vhttp://52.8.24.90discount_code/?code=CiscoDIA15BGenR2Q10y
p562
sg14
g15
sg16
g17
sg18
S'Wed, 13 May 2015 03:34:52 UTC'
p563
sg20
S'-0%'
p564
sg22
g561
sg23
I20
sa(dp565
g3
I79781177
sg4
g25
sg6
I223379
sg7
g560
sg9
g560
sg10
VCiscoDIA15BBoSR2Q10y
p566
sg12
Vhttp://52.8.24.90discount_code/?code=CiscoDIA15BBoSR2Q10y
p567
sg14
g28
sg16
g29
sg18
S'Wed, 13 May 2015 03:34:52 UTC'
p568
sg20
S'-0%'
p569
sg22
g566
sg23
I8
sa(dp570
g3
I79788597
sg4
g25
sg6
I223379
sg7
S'ABI Partners Only - Diamond'
p571
sg9
g571
sg10
VAppleDIA15BBoSR2Q113
p572
sg12
Vhttp://52.8.24.90discount_code/?code=AppleDIA15BBoSR2Q113
p573
sg14
g28
sg16
g29
sg18
S'Wed, 13 May 2015 03:34:54 UTC'
p574
sg20
S'-0%'
p575
sg22
g572
sg23
I8
sa(dp576
g3
I79788597
sg4
g5
sg6
I223379
sg7
g571
sg9
g571
sg10
VAppleDIA15BGenR2Q113
p577
sg12
Vhttp://52.8.24.90discount_code/?code=AppleDIA15BGenR2Q113
p578
sg14
g15
sg16
g17
sg18
S'Wed, 13 May 2015 03:34:54 UTC'
p579
sg20
S'-0%'
p580
sg22
g577
sg23
I20
sa(dp581
g3
I79831298
sg4
g5
sg6
I223380
sg7
S'ABI Partners Only - Platinum'
p582
sg9
g582
sg10
VFacebPLAT15BGenR2Q126
p583
sg12
Vhttp://52.8.24.90discount_code/?code=FacebPLAT15BGenR2Q126
p584
sg14
g15
sg16
g17
sg18
S'Wed, 13 May 2015 03:35:19 UTC'
p585
sg20
S'-0%'
p586
sg22
g583
sg23
I10
sa(dp587
g3
I79831298
sg4
g33
sg6
I223380
sg7
g582
sg9
g582
sg10
VFaceb152Q126
p588
sg12
Vhttp://52.8.24.90discount_code/?code=Faceb152Q126
p589
sg14
g37
sg16
g38
sg18
S'Wed, 13 May 2015 03:35:19 UTC'
p590
sg20
S'-0%'
p591
sg22
g588
sg23
I1
sa(dp592
g3
I79831298
sg4
g25
sg6
I223380
sg7
g582
sg9
g582
sg10
VFacebPLAT15BBoSR2Q126
p593
sg12
Vhttp://52.8.24.90discount_code/?code=FacebPLAT15BBoSR2Q126
p594
sg14
g28
sg16
g29
sg18
S'Wed, 13 May 2015 03:35:19 UTC'
p595
sg20
S'-0%'
p596
sg22
g593
sg23
I8
sa(dp597
g3
I79831591
sg4
g439
sg6
I223384
sg7
S'Academic - Silver'
p598
sg9
g598
sg10
VDuke ACASIL15BFacR2Q19H
p599
sg12
Vhttp://52.8.24.90discount_code/?code=Duke ACASIL15BFacR2Q19H
p600
sg14
g442
sg16
g443
sg18
S'Wed, 13 May 2015 03:37:58 UTC'
p601
sg20
S'-0%'
p602
sg22
g599
sg23
I2
sa(dp603
g3
I79831591
sg4
g25
sg6
I223384
sg7
g598
sg9
g598
sg10
VDuke ACASIL15BBoSR2Q19H
p604
sg12
Vhttp://52.8.24.90discount_code/?code=Duke ACASIL15BBoSR2Q19H
p605
sg14
g28
sg16
g29
sg18
S'Wed, 13 May 2015 03:37:58 UTC'
p606
sg20
S'-0%'
p607
sg22
g604
sg23
I3
sa(dp608
g3
I79831591
sg4
g447
sg6
I223384
sg7
g598
sg9
g598
sg10
VDuke ACASIL15BStDc2Q19H
p609
sg12
Vhttp://52.8.24.90discount_code/?code=Duke ACASIL15BStDc2Q19H
p610
sg14
g450
sg16
g451
sg18
S'Wed, 13 May 2015 03:37:58 UTC'
p611
sg20
S'-0%'
p612
sg22
g609
sg23
I1
sa(dp613
g3
I79855196
sg4
g5
sg6
I223380
sg7
S'ABI Partners Only - Platinum'
p614
sg9
g614
sg10
VHewlePLAT15BGenR2Q12B
p615
sg12
Vhttp://52.8.24.90discount_code/?code=HewlePLAT15BGenR2Q12B
p616
sg14
g15
sg16
g17
sg18
S'Wed, 13 May 2015 03:35:21 UTC'
p617
sg20
S'-0%'
p618
sg22
g615
sg23
I10
sa(dp619
g3
I79855196
sg4
g25
sg6
I223380
sg7
g614
sg9
g614
sg10
VHewlePLAT15BBoSR2Q12B
p620
sg12
Vhttp://52.8.24.90discount_code/?code=HewlePLAT15BBoSR2Q12B
p621
sg14
g28
sg16
g29
sg18
S'Wed, 13 May 2015 03:35:21 UTC'
p622
sg20
S'-0%'
p623
sg22
g620
sg23
I8
sa(dp624
g3
I79855196
sg4
g5
sg6
I223380
sg7
VEnterprise Pack
p625
sg9
g614
sg10
VHewle1510DGenR2Q12B
p626
sg12
Vhttp://52.8.24.90discount_code/?code=Hewle1510DGenR2Q12B
p627
sg14
g15
sg16
g17
sg18
S'Wed, 13 May 2015 03:35:21 UTC'
p628
sg20
S'-0%'
p629
sg22
g626
sg23
I60
sa(dp630
g3
I79858835
sg4
g25
sg6
I223379
sg7
S'ABI Partners Only - Diamond'
p631
sg9
g631
sg10
VMicroDIA15BBoSR2Q11D
p632
sg12
Vhttp://52.8.24.90discount_code/?code=MicroDIA15BBoSR2Q11D
p633
sg14
g28
sg16
g29
sg18
S'Wed, 13 May 2015 03:34:57 UTC'
p634
sg20
S'-0%'
p635
sg22
g632
sg23
I8
sa(dp636
g3
I79858835
sg4
g5
sg6
I223379
sg7
g631
sg9
g631
sg10
VMicroDIA15BGenR2Q11D
p637
sg12
Vhttp://52.8.24.90discount_code/?code=MicroDIA15BGenR2Q11D
p638
sg14
g15
sg16
g17
sg18
S'Wed, 13 May 2015 03:34:57 UTC'
p639
sg20
S'-0%'
p640
sg22
g637
sg23
I20
sa(dp641
g3
I79882696
sg4
g5
sg6
I223382
sg7
S'Corporate - Silver'
p642
sg9
g642
sg10
VFast CSIL15BGenR2Q184
p643
sg12
Vhttp://52.8.24.90discount_code/?code=Fast CSIL15BGenR2Q184
p644
sg14
g15
sg16
g17
sg18
S'Wed, 13 May 2015 03:37:30 UTC'
p645
sg20
S'-0%'
p646
sg22
g643
sg23
I3
sa(dp647
g3
I79882696
sg4
g25
sg6
I223382
sg7
g642
sg9
g642
sg10
VFast CSIL15BBoSR2Q184
p648
sg12
Vhttp://52.8.24.90discount_code/?code=Fast CSIL15BBoSR2Q184
p649
sg14
g28
sg16
g29
sg18
S'Wed, 13 May 2015 03:37:30 UTC'
p650
sg20
S'-0%'
p651
sg22
g648
sg23
I3
sa(dp652
g3
I79884963
sg4
g33
sg6
I223380
sg7
S'ABI Partners Only - Platinum'
p653
sg9
g653
sg10
VQualc152Q12G
p654
sg12
Vhttp://52.8.24.90discount_code/?code=Qualc152Q12G
p655
sg14
g37
sg16
g38
sg18
S'Wed, 13 May 2015 03:35:23 UTC'
p656
sg20
S'-0%'
p657
sg22
g654
sg23
I1
sa(dp658
g3
I79884963
sg4
g25
sg6
I223380
sg7
g653
sg9
g653
sg10
VQualcPLAT15BBoSR2Q12G
p659
sg12
Vhttp://52.8.24.90discount_code/?code=QualcPLAT15BBoSR2Q12G
p660
sg14
g28
sg16
g29
sg18
S'Wed, 13 May 2015 03:35:23 UTC'
p661
sg20
S'-0%'
p662
sg22
g659
sg23
I8
sa(dp663
g3
I79884963
sg4
g5
sg6
I223380
sg7
g653
sg9
g653
sg10
VQualcPLAT15BGenR2Q12G
p664
sg12
Vhttp://52.8.24.90discount_code/?code=QualcPLAT15BGenR2Q12G
p665
sg14
g15
sg16
g17
sg18
S'Wed, 13 May 2015 03:35:23 UTC'
p666
sg20
S'-0%'
p667
sg22
g664
sg23
I10
sa(dp668
g3
I79894238
sg4
g25
sg6
I223381
sg7
S'Corporate - Gold'
p669
sg9
g669
sg10
VBookiCGOLD15BBoSR2Q15F
p670
sg12
Vhttp://52.8.24.90discount_code/?code=BookiCGOLD15BBoSR2Q15F
p671
sg14
g28
sg16
g29
sg18
S'Wed, 13 May 2015 03:36:26 UTC'
p672
sg20
S'-0%'
p673
sg22
g670
sg23
I2
sa(dp674
g3
I79894238
sg4
g5
sg6
I223381
sg7
g669
sg9
g669
sg10
VBookiCGOLD15BGenR2Q15F
p675
sg12
Vhttp://52.8.24.90discount_code/?code=BookiCGOLD15BGenR2Q15F
p676
sg14
g15
sg16
g17
sg18
S'Wed, 13 May 2015 03:36:26 UTC'
p677
sg20
S'-0%'
p678
sg22
g675
sg23
I5
sa(dp679
g3
I79951282
sg4
g25
sg6
I223380
sg7
S'ABI Partners Only - Platinum'
p680
sg9
g680
sg10
VMastePLAT15BBoSR2Q12L
p681
sg12
Vhttp://52.8.24.90discount_code/?code=MastePLAT15BBoSR2Q12L
p682
sg14
g28
sg16
g29
sg18
S'Wed, 13 May 2015 03:35:24 UTC'
p683
sg20
S'-0%'
p684
sg22
g681
sg23
I8
sa(dp685
g3
I79951282
sg4
g5
sg6
I223380
sg7
g680
sg9
g680
sg10
VMastePLAT15BGenR2Q12L
p686
sg12
Vhttp://52.8.24.90discount_code/?code=MastePLAT15BGenR2Q12L
p687
sg14
g15
sg16
g17
sg18
S'Wed, 13 May 2015 03:35:24 UTC'
p688
sg20
S'-0%'
p689
sg22
g686
sg23
I10
sa(dp690
g3
I80018305
sg4
g5
sg6
I223381
sg7
S'Corporate - Gold'
p691
sg9
g691
sg10
VViaSaCGOLD15BGenR2Q14M
p692
sg12
Vhttp://52.8.24.90discount_code/?code=ViaSaCGOLD15BGenR2Q14M
p693
sg14
g15
sg16
g17
sg18
S'Wed, 13 May 2015 03:36:07 UTC'
p694
sg20
S'-0%'
p695
sg22
g692
sg23
I5
sa(dp696
g3
I80018305
sg4
g25
sg6
I223381
sg7
g691
sg9
g691
sg10
VViaSaCGOLD15BBoSR2Q14M
p697
sg12
Vhttp://52.8.24.90discount_code/?code=ViaSaCGOLD15BBoSR2Q14M
p698
sg14
g28
sg16
g29
sg18
S'Wed, 13 May 2015 03:36:07 UTC'
p699
sg20
S'-0%'
p700
sg22
g697
sg23
I2
sa(dp701
g3
I80033203
sg4
g5
sg6
I223381
sg7
S'Corporate - Gold'
p702
sg9
g702
sg10
VMarkeCGOLD15BGenR2Q14R
p703
sg12
Vhttp://52.8.24.90discount_code/?code=MarkeCGOLD15BGenR2Q14R
p704
sg14
g15
sg16
g17
sg18
S'Wed, 13 May 2015 03:36:09 UTC'
p705
sg20
S'-0%'
p706
sg22
g703
sg23
I5
sa(dp707
g3
I80033203
sg4
g25
sg6
I223381
sg7
g702
sg9
g702
sg10
VMarkeCGOLD15BBoSR2Q14R
p708
sg12
Vhttp://52.8.24.90discount_code/?code=MarkeCGOLD15BBoSR2Q14R
p709
sg14
g28
sg16
g29
sg18
S'Wed, 13 May 2015 03:36:09 UTC'
p710
sg20
S'-0%'
p711
sg22
g708
sg23
I2
sa(dp712
g3
I80133227
sg4
g25
sg6
I223384
sg7
S'Academic - Silver'
p713
sg9
g713
sg10
VNorthACASIL15BBoSR2Q19M
p714
sg12
Vhttp://52.8.24.90discount_code/?code=NorthACASIL15BBoSR2Q19M
p715
sg14
g28
sg16
g29
sg18
S'Wed, 13 May 2015 03:38:00 UTC'
p716
sg20
S'-0%'
p717
sg22
g714
sg23
I3
sa(dp718
g3
I80133227
sg4
g439
sg6
I223384
sg7
g713
sg9
g713
sg10
VNorthACASIL15BFacR2Q19M
p719
sg12
Vhttp://52.8.24.90discount_code/?code=NorthACASIL15BFacR2Q19M
p720
sg14
g442
sg16
g443
sg18
S'Wed, 13 May 2015 03:38:00 UTC'
p721
sg20
S'-0%'
p722
sg22
g719
sg23
I2
sa(dp723
g3
I80133227
sg4
g447
sg6
I223384
sg7
g713
sg9
g713
sg10
VNorthACASIL15BStDc2Q19M
p724
sg12
Vhttp://52.8.24.90discount_code/?code=NorthACASIL15BStDc2Q19M
p725
sg14
g450
sg16
g451
sg18
S'Wed, 13 May 2015 03:38:00 UTC'
p726
sg20
S'-0%'
p727
sg22
g724
sg23
I1
sa(dp728
g3
I80138213
sg4
g447
sg6
I223385
sg7
S'Academic - Bronze'
p729
sg9
g729
sg10
VSteveACABRZ15BStDc2Q1AK
p730
sg12
Vhttp://52.8.24.90discount_code/?code=SteveACABRZ15BStDc2Q1AK
p731
sg14
g450
sg16
g451
sg18
S'Wed, 13 May 2015 03:38:21 UTC'
p732
sg20
S'-0%'
p733
sg22
g730
sg23
I1
sa(dp734
g3
I80138213
sg4
g439
sg6
I223385
sg7
g729
sg9
g729
sg10
VSteveACABRZ15BFacR2Q1AK
p735
sg12
Vhttp://52.8.24.90discount_code/?code=SteveACABRZ15BFacR2Q1AK
p736
sg14
g442
sg16
g443
sg18
S'Wed, 13 May 2015 03:38:21 UTC'
p737
sg20
S'-0%'
p738
sg22
g735
sg23
I1
sa(dp739
g3
I80144405
sg4
g25
sg6
I223382
sg7
S'Corporate - Silver'
p740
sg9
g740
sg10
VThumbCSIL15BBoSR2Q189
p741
sg12
Vhttp://52.8.24.90discount_code/?code=ThumbCSIL15BBoSR2Q189
p742
sg14
g28
sg16
g29
sg18
S'Wed, 13 May 2015 03:37:32 UTC'
p743
sg20
S'-0%'
p744
sg22
g741
sg23
I3
sa(dp745
g3
I80144405
sg4
g5
sg6
I223382
sg7
g740
sg9
g740
sg10
VThumbCSIL15BGenR2Q189
p746
sg12
Vhttp://52.8.24.90discount_code/?code=ThumbCSIL15BGenR2Q189
p747
sg14
g15
sg16
g17
sg18
S'Wed, 13 May 2015 03:37:32 UTC'
p748
sg20
S'-0%'
p749
sg22
g746
sg23
I3
sa(dp750
g3
I80146318
sg4
g5
sg6
I223381
sg7
S'Corporate - Gold'
p751
sg9
g751
sg10
VTwittCGOLD15BGenR2Q14W
p752
sg12
Vhttp://52.8.24.90discount_code/?code=TwittCGOLD15BGenR2Q14W
p753
sg14
g15
sg16
g17
sg18
S'Wed, 13 May 2015 03:36:11 UTC'
p754
sg20
S'-0%'
p755
sg22
g752
sg23
I5
sa(dp756
g3
I80146318
sg4
g25
sg6
I223381
sg7
g751
sg9
g751
sg10
VTwittCGOLD15BBoSR2Q14W
p757
sg12
Vhttp://52.8.24.90discount_code/?code=TwittCGOLD15BBoSR2Q14W
p758
sg14
g28
sg16
g29
sg18
S'Wed, 13 May 2015 03:36:11 UTC'
p759
sg20
S'-0%'
p760
sg22
g757
sg23
I2
sa(dp761
g3
I80166458
sg4
g5
sg6
I223381
sg7
S'Corporate - Gold'
p762
sg9
g762
sg10
VTripACGOLD15BGenR2Q14b
p763
sg12
Vhttp://52.8.24.90discount_code/?code=TripACGOLD15BGenR2Q14b
p764
sg14
g15
sg16
g17
sg18
S'Wed, 13 May 2015 03:36:12 UTC'
p765
sg20
S'-0%'
p766
sg22
g763
sg23
I5
sa(dp767
g3
I80166458
sg4
g25
sg6
I223381
sg7
g762
sg9
g762
sg10
VTripACGOLD15BBoSR2Q14b
p768
sg12
Vhttp://52.8.24.90discount_code/?code=TripACGOLD15BBoSR2Q14b
p769
sg14
g28
sg16
g29
sg18
S'Wed, 13 May 2015 03:36:12 UTC'
p770
sg20
S'-0%'
p771
sg22
g768
sg23
I2
sa(dp772
g3
I80171568
sg4
g25
sg6
I223382
sg7
S'Corporate - Silver'
p773
sg9
g773
sg10
VAppirCSIL15BBoSR2Q18E
p774
sg12
Vhttp://52.8.24.90discount_code/?code=AppirCSIL15BBoSR2Q18E
p775
sg14
g28
sg16
g29
sg18
S'Wed, 13 May 2015 03:37:34 UTC'
p776
sg20
S'-0%'
p777
sg22
g774
sg23
I3
sa(dp778
g3
I80171568
sg4
g5
sg6
I223382
sg7
g773
sg9
g773
sg10
VAppirCSIL15BGenR2Q18E
p779
sg12
Vhttp://52.8.24.90discount_code/?code=AppirCSIL15BGenR2Q18E
p780
sg14
g15
sg16
g17
sg18
S'Wed, 13 May 2015 03:37:34 UTC'
p781
sg20
S'-0%'
p782
sg22
g779
sg23
I3
sa(dp783
g3
I80173047
sg4
g5
sg6
I223382
sg7
S'Corporate - Silver'
p784
sg9
g784
sg10
VNorthCSIL15BGenR2Q17Q
p785
sg12
Vhttp://52.8.24.90discount_code/?code=NorthCSIL15BGenR2Q17Q
p786
sg14
g15
sg16
g17
sg18
S'Wed, 13 May 2015 03:37:16 UTC'
p787
sg20
S'-0%'
p788
sg22
g785
sg23
I3
sa(dp789
g3
I80173047
sg4
g25
sg6
I223382
sg7
g784
sg9
g784
sg10
VNorthCSIL15BBoSR2Q17Q
p790
sg12
Vhttp://52.8.24.90discount_code/?code=NorthCSIL15BBoSR2Q17Q
p791
sg14
g28
sg16
g29
sg18
S'Wed, 13 May 2015 03:37:16 UTC'
p792
sg20
S'-0%'
p793
sg22
g790
sg23
I3
sa(dp794
g3
I80173980
sg4
g5
sg6
I223382
sg7
S'Corporate - Silver'
p795
sg9
g795
sg10
VOptimCSIL15BGenR2Q17V
p796
sg12
Vhttp://52.8.24.90discount_code/?code=OptimCSIL15BGenR2Q17V
p797
sg14
g15
sg16
g17
sg18
S'Wed, 13 May 2015 03:37:17 UTC'
p798
sg20
S'-0%'
p799
sg22
g796
sg23
I3
sa(dp800
g3
I80173980
sg4
g25
sg6
I223382
sg7
g795
sg9
g795
sg10
VOptimCSIL15BBoSR2Q17V
p801
sg12
Vhttp://52.8.24.90discount_code/?code=OptimCSIL15BBoSR2Q17V
p802
sg14
g28
sg16
g29
sg18
S'Wed, 13 May 2015 03:37:17 UTC'
p803
sg20
S'-0%'
p804
sg22
g801
sg23
I3
sa(dp805
g3
I80216188
sg4
g25
sg6
I223380
sg7
S'ABI Partners Only - Platinum'
p806
sg9
g806
sg10
VAirbnPLAT15BBoSR2Q12H
p807
sg12
Vhttp://52.8.24.90discount_code/?code=AirbnPLAT15BBoSR2Q12H
p808
sg14
g28
sg16
g29
sg18
S'Wed, 13 May 2015 03:35:26 UTC'
p809
sg20
S'-0%'
p810
sg22
g807
sg23
I8
sa(dp811
g3
I80216188
sg4
g5
sg6
I223380
sg7
g806
sg9
g806
sg10
VAirbnPLAT15BGenR2Q12H
p812
sg12
Vhttp://52.8.24.90discount_code/?code=AirbnPLAT15BGenR2Q12H
p813
sg14
g15
sg16
g17
sg18
S'Wed, 13 May 2015 03:35:26 UTC'
p814
sg20
S'-0%'
p815
sg22
g812
sg23
I10
sa(dp816
g3
I80219214
sg4
g25
sg6
I223381
sg7
S'Corporate - Gold'
p817
sg9
g817
sg10
VLiberCGOLD15BBoSR2Q14g
p818
sg12
Vhttp://52.8.24.90discount_code/?code=LiberCGOLD15BBoSR2Q14g
p819
sg14
g28
sg16
g29
sg18
S'Wed, 13 May 2015 03:36:14 UTC'
p820
sg20
S'-0%'
p821
sg22
g818
sg23
I2
sa(dp822
g3
I80219214
sg4
g5
sg6
I223381
sg7
g817
sg9
g817
sg10
VLiberCGOLD15BGenR2Q14g
p823
sg12
Vhttp://52.8.24.90discount_code/?code=LiberCGOLD15BGenR2Q14g
p824
sg14
g15
sg16
g17
sg18
S'Wed, 13 May 2015 03:36:14 UTC'
p825
sg20
S'-0%'
p826
sg22
g823
sg23
I5
sa(dp827
g3
I80257688
sg4
g439
sg6
I223385
sg7
S'Academic - Bronze'
p828
sg9
g828
sg10
VUniveACABRZ15BFacR2Q19l
p829
sg12
Vhttp://52.8.24.90discount_code/?code=UniveACABRZ15BFacR2Q19l
p830
sg14
g442
sg16
g443
sg18
S'Wed, 13 May 2015 03:38:09 UTC'
p831
sg20
S'-0%'
p832
sg22
g829
sg23
I1
sa(dp833
g3
I80257688
sg4
g447
sg6
I223385
sg7
g828
sg9
g828
sg10
VUniveACABRZ15BStDc2Q19l
p834
sg12
Vhttp://52.8.24.90discount_code/?code=UniveACABRZ15BStDc2Q19l
p835
sg14
g450
sg16
g451
sg18
S'Wed, 13 May 2015 03:38:09 UTC'
p836
sg20
S'-0%'
p837
sg22
g834
sg23
I1
sa(dp838
g3
I80275681
sg4
g25
sg6
I223381
sg7
S'Corporate - Gold'
p839
sg9
g839
sg10
VMylanCGOLD15BBoSR2Q14l
p840
sg12
Vhttp://52.8.24.90discount_code/?code=MylanCGOLD15BBoSR2Q14l
p841
sg14
g28
sg16
g29
sg18
S'Wed, 13 May 2015 03:36:16 UTC'
p842
sg20
S'-0%'
p843
sg22
g840
sg23
I2
sa(dp844
g3
I80275681
sg4
g5
sg6
I223381
sg7
g839
sg9
g839
sg10
VMylanCGOLD15BGenR2Q14l
p845
sg12
Vhttp://52.8.24.90discount_code/?code=MylanCGOLD15BGenR2Q14l
p846
sg14
g15
sg16
g17
sg18
S'Wed, 13 May 2015 03:36:16 UTC'
p847
sg20
S'-0%'
p848
sg22
g845
sg23
I5
sa(dp849
g3
I80282733
sg4
g5
sg6
I223382
sg7
S'Corporate - Silver'
p850
sg9
g850
sg10
VSamsuCSIL15BGenR2Q17a
p851
sg12
Vhttp://52.8.24.90discount_code/?code=SamsuCSIL15BGenR2Q17a
p852
sg14
g15
sg16
g17
sg18
S'Wed, 13 May 2015 03:37:19 UTC'
p853
sg20
S'-0%'
p854
sg22
g851
sg23
I3
sa(dp855
g3
I80282733
sg4
g25
sg6
I223382
sg7
g850
sg9
g850
sg10
VSamsuCSIL15BBoSR2Q17a
p856
sg12
Vhttp://52.8.24.90discount_code/?code=SamsuCSIL15BBoSR2Q17a
p857
sg14
g28
sg16
g29
sg18
S'Wed, 13 May 2015 03:37:19 UTC'
p858
sg20
S'-0%'
p859
sg22
g856
sg23
I3
sa(dp860
g3
I80332293
sg4
g5
sg6
I223381
sg7
S'Corporate - Gold'
p861
sg9
g861
sg10
VZenPaCGOLD15BGenR2Q13x
p862
sg12
Vhttp://52.8.24.90discount_code/?code=ZenPaCGOLD15BGenR2Q13x
p863
sg14
g15
sg16
g17
sg18
S'Wed, 13 May 2015 03:35:59 UTC'
p864
sg20
S'-0%'
p865
sg22
g862
sg23
I5
sa(dp866
g3
I80332293
sg4
g25
sg6
I223381
sg7
g861
sg9
g861
sg10
VZenPaCGOLD15BBoSR2Q13x
p867
sg12
Vhttp://52.8.24.90discount_code/?code=ZenPaCGOLD15BBoSR2Q13x
p868
sg14
g28
sg16
g29
sg18
S'Wed, 13 May 2015 03:35:59 UTC'
p869
sg20
S'-0%'
p870
sg22
g867
sg23
I2
sa(dp871
g3
I80376014
sg4
g25
sg6
I223381
sg7
S'Corporate - Gold'
p872
sg9
g872
sg10
VGroupCGOLD15BBoSR2Q142
p873
sg12
Vhttp://52.8.24.90discount_code/?code=GroupCGOLD15BBoSR2Q142
p874
sg14
g28
sg16
g29
sg18
S'Wed, 13 May 2015 03:36:00 UTC'
p875
sg20
S'-0%'
p876
sg22
g873
sg23
I2
sa(dp877
g3
I80376014
sg4
g5
sg6
I223381
sg7
g872
sg9
g872
sg10
VGroupCGOLD15BGenR2Q142
p878
sg12
Vhttp://52.8.24.90discount_code/?code=GroupCGOLD15BGenR2Q142
p879
sg14
g15
sg16
g17
sg18
S'Wed, 13 May 2015 03:36:00 UTC'
p880
sg20
S'-0%'
p881
sg22
g878
sg23
I5
sa(dp882
g3
I80426701
sg4
g25
sg6
I223381
sg7
S'Corporate - Gold'
p883
sg9
g883
sg10
VBrainCGOLD15BBoSR2Q147
p884
sg12
Vhttp://52.8.24.90discount_code/?code=BrainCGOLD15BBoSR2Q147
p885
sg14
g28
sg16
g29
sg18
S'Wed, 13 May 2015 03:36:02 UTC'
p886
sg20
S'-0%'
p887
sg22
g884
sg23
I2
sa(dp888
g3
I80426701
sg4
g5
sg6
I223381
sg7
g883
sg9
g883
sg10
VBrainCGOLD15BGenR2Q147
p889
sg12
Vhttp://52.8.24.90discount_code/?code=BrainCGOLD15BGenR2Q147
p890
sg14
g15
sg16
g17
sg18
S'Wed, 13 May 2015 03:36:02 UTC'
p891
sg20
S'-0%'
p892
sg22
g889
sg23
I5
sa(dp893
g3
I80458976
sg4
g25
sg6
I223381
sg7
S'Corporate - Gold'
p894
sg9
g894
sg10
VPwCCGOLD15BBoSR2Q14C
p895
sg12
Vhttp://52.8.24.90discount_code/?code=PwCCGOLD15BBoSR2Q14C
p896
sg14
g28
sg16
g29
sg18
S'Wed, 13 May 2015 03:36:04 UTC'
p897
sg20
S'-0%'
p898
sg22
g895
sg23
I2
sa(dp899
g3
I80458976
sg4
g5
sg6
I223381
sg7
g894
sg9
g894
sg10
VPwCCGOLD15BGenR2Q14C
p900
sg12
Vhttp://52.8.24.90discount_code/?code=PwCCGOLD15BGenR2Q14C
p901
sg14
g15
sg16
g17
sg18
S'Wed, 13 May 2015 03:36:04 UTC'
p902
sg20
S'-0%'
p903
sg22
g900
sg23
I5
sa(dp904
g3
I80479404
sg4
g25
sg6
I223382
sg7
S'Corporate - Silver'
p905
sg9
g905
sg10
VSequoCSIL15BBoSR2Q17f
p906
sg12
Vhttp://52.8.24.90discount_code/?code=SequoCSIL15BBoSR2Q17f
p907
sg14
g28
sg16
g29
sg18
S'Wed, 13 May 2015 03:37:20 UTC'
p908
sg20
S'-0%'
p909
sg22
g906
sg23
I3
sa(dp910
g3
I80479404
sg4
g5
sg6
I223382
sg7
g905
sg9
g905
sg10
VSequoCSIL15BGenR2Q17f
p911
sg12
Vhttp://52.8.24.90discount_code/?code=SequoCSIL15BGenR2Q17f
p912
sg14
g15
sg16
g17
sg18
S'Wed, 13 May 2015 03:37:20 UTC'
p913
sg20
S'-0%'
p914
sg22
g911
sg23
I3
sa(dp915
g3
I80535579
sg4
g5
sg6
I223381
sg7
S'Corporate - Gold'
p916
sg9
g916
sg10
VDeutsCGOLD15BGenR2Q14H
p917
sg12
Vhttp://52.8.24.90discount_code/?code=DeutsCGOLD15BGenR2Q14H
p918
sg14
g15
sg16
g17
sg18
S'Wed, 13 May 2015 03:36:05 UTC'
p919
sg20
S'-0%'
p920
sg22
g917
sg23
I5
sa(dp921
g3
I80535579
sg4
g25
sg6
I223381
sg7
g916
sg9
g916
sg10
VDeutsCGOLD15BBoSR2Q14H
p922
sg12
Vhttp://52.8.24.90discount_code/?code=DeutsCGOLD15BBoSR2Q14H
p923
sg14
g28
sg16
g29
sg18
S'Wed, 13 May 2015 03:36:05 UTC'
p924
sg20
S'-0%'
p925
sg22
g922
sg23
I2
sa(dp926
g3
I80541412
sg4
g25
sg6
I223382
sg7
S'Corporate - Silver'
p927
sg9
g927
sg10
VDeloiCSIL15BBoSR2Q151
p928
sg12
Vhttp://52.8.24.90discount_code/?code=DeloiCSIL15BBoSR2Q151
p929
sg14
g28
sg16
g29
sg18
S'Wed, 13 May 2015 03:37:22 UTC'
p930
sg20
S'-0%'
p931
sg22
g928
sg23
I3
sa(dp932
g3
I80541412
sg4
g5
sg6
I223382
sg7
g927
sg9
g927
sg10
VDeloiCSIL15BGenR2Q151
p933
sg12
Vhttp://52.8.24.90discount_code/?code=DeloiCSIL15BGenR2Q151
p934
sg14
g15
sg16
g17
sg18
S'Wed, 13 May 2015 03:37:22 UTC'
p935
sg20
S'-0%'
p936
sg22
g933
sg23
I3
sa(dp937
g3
I80544565
sg4
g5
sg6
I223382
sg7
S'Corporate - Silver'
p938
sg9
g938
sg10
VSpiceCSIL15BGenR2Q17k
p939
sg12
Vhttp://52.8.24.90discount_code/?code=SpiceCSIL15BGenR2Q17k
p940
sg14
g15
sg16
g17
sg18
S'Wed, 13 May 2015 03:37:23 UTC'
p941
sg20
S'-0%'
p942
sg22
g939
sg23
I3
sa(dp943
g3
I80544565
sg4
g25
sg6
I223382
sg7
g938
sg9
g938
sg10
VSpiceCSIL15BBoSR2Q17k
p944
sg12
Vhttp://52.8.24.90discount_code/?code=SpiceCSIL15BBoSR2Q17k
p945
sg14
g28
sg16
g29
sg18
S'Wed, 13 May 2015 03:37:23 UTC'
p946
sg20
S'-0%'
p947
sg22
g944
sg23
I3
sa(dp948
g3
I80601987
sg4
g5
sg6
I223382
sg7
S'Corporate - Silver'
p949
sg9
g949
sg10
VFlatiCSIL15BGenR2Q176
p950
sg12
Vhttp://52.8.24.90discount_code/?code=FlatiCSIL15BGenR2Q176
p951
sg14
g15
sg16
g17
sg18
S'Wed, 13 May 2015 03:37:06 UTC'
p952
sg20
S'-0%'
p953
sg22
g950
sg23
I3
sa(dp954
g3
I80601987
sg4
g25
sg6
I223382
sg7
g949
sg9
g949
sg10
VFlatiCSIL15BBoSR2Q176
p955
sg12
Vhttp://52.8.24.90discount_code/?code=FlatiCSIL15BBoSR2Q176
p956
sg14
g28
sg16
g29
sg18
S'Wed, 13 May 2015 03:37:06 UTC'
p957
sg20
S'-0%'
p958
sg22
g955
sg23
I3
sa(dp959
g3
I80605148
sg4
g25
sg6
I223383
sg7
S'Academic - Gold'
p960
sg9
g960
sg10
VPurduACAGOLD15BBoSR2Q18d
p961
sg12
Vhttp://52.8.24.90discount_code/?code=PurduACAGOLD15BBoSR2Q18d
p962
sg14
g28
sg16
g29
sg18
S'Wed, 13 May 2015 03:37:45 UTC'
p963
sg20
S'-0%'
p964
sg22
g961
sg23
I2
sa(dp965
g3
I80605148
sg4
g439
sg6
I223383
sg7
g960
sg9
g960
sg10
VPurduACAGOLD15BFacR2Q18d
p966
sg12
Vhttp://52.8.24.90discount_code/?code=PurduACAGOLD15BFacR2Q18d
p967
sg14
g442
sg16
g443
sg18
S'Wed, 13 May 2015 03:37:45 UTC'
p968
sg20
S'-0%'
p969
sg22
g966
sg23
I3
sa(dp970
g3
I80605148
sg4
g447
sg6
I223383
sg7
g960
sg9
g960
sg10
VPurduACAGOLD15BStDc2Q18d
p971
sg12
Vhttp://52.8.24.90discount_code/?code=PurduACAGOLD15BStDc2Q18d
p972
sg14
g450
sg16
g451
sg18
S'Wed, 13 May 2015 03:37:45 UTC'
p973
sg20
S'-0%'
p974
sg22
g971
sg23
I1
sa(dp975
g3
I80614404
sg4
g5
sg6
I226851
sg7
S'Lab & Non-Profit - Gold'
p976
sg9
g976
sg10
VDigniL&NGOLD15BGenR2Q1AZ
p977
sg12
Vhttp://52.8.24.90discount_code/?code=DigniL&NGOLD15BGenR2Q1AZ
p978
sg14
g15
sg16
g17
sg18
S'Wed, 13 May 2015 03:38:26 UTC'
p979
sg20
S'-0%'
p980
sg22
g977
sg23
I3
sa(dp981
g3
I80617786
sg4
g25
sg6
I223382
sg7
S'Corporate - Silver'
p982
sg9
g982
sg10
VUberCSIL15BBoSR2Q17B
p983
sg12
Vhttp://52.8.24.90discount_code/?code=UberCSIL15BBoSR2Q17B
p984
sg14
g28
sg16
g29
sg18
S'Wed, 13 May 2015 03:37:07 UTC'
p985
sg20
S'-0%'
p986
sg22
g983
sg23
I3
sa(dp987
g3
I80617786
sg4
g5
sg6
I223382
sg7
g982
sg9
g982
sg10
VUberCSIL15BGenR2Q17B
p988
sg12
Vhttp://52.8.24.90discount_code/?code=UberCSIL15BGenR2Q17B
p989
sg14
g15
sg16
g17
sg18
S'Wed, 13 May 2015 03:37:07 UTC'
p990
sg20
S'-0%'
p991
sg22
g988
sg23
I3
sa(dp992
g3
I80649549
sg4
g25
sg6
I223382
sg7
S'Corporate - Silver'
p993
sg9
g993
sg10
VOpenTCSIL15BBoSR2Q16s
p994
sg12
Vhttp://52.8.24.90discount_code/?code=OpenTCSIL15BBoSR2Q16s
p995
sg14
g28
sg16
g29
sg18
S'Wed, 13 May 2015 03:37:09 UTC'
p996
sg20
S'-0%'
p997
sg22
g994
sg23
I3
sa(dp998
g3
I80649549
sg4
g5
sg6
I223382
sg7
g993
sg9
g993
sg10
VOpenTCSIL15BGenR2Q16s
p999
sg12
Vhttp://52.8.24.90discount_code/?code=OpenTCSIL15BGenR2Q16s
p1000
sg14
g15
sg16
g17
sg18
S'Wed, 13 May 2015 03:37:09 UTC'
p1001
sg20
S'-0%'
p1002
sg22
g999
sg23
I3
sa(dp1003
g3
I80660768
sg4
g25
sg6
I223382
sg7
S'Corporate - Silver'
p1004
sg9
g1004
sg10
VHuluCSIL15BBoSR2Q17G
p1005
sg12
Vhttp://52.8.24.90discount_code/?code=HuluCSIL15BBoSR2Q17G
p1006
sg14
g28
sg16
g29
sg18
S'Wed, 13 May 2015 03:37:11 UTC'
p1007
sg20
S'-0%'
p1008
sg22
g1005
sg23
I3
sa(dp1009
g3
I80660768
sg4
g5
sg6
I223382
sg7
g1004
sg9
g1004
sg10
VHuluCSIL15BGenR2Q17G
p1010
sg12
Vhttp://52.8.24.90discount_code/?code=HuluCSIL15BGenR2Q17G
p1011
sg14
g15
sg16
g17
sg18
S'Wed, 13 May 2015 03:37:11 UTC'
p1012
sg20
S'-0%'
p1013
sg22
g1010
sg23
I3
sa(dp1014
g3
I80666758
sg4
g5
sg6
I223382
sg7
S'Corporate - Silver'
p1015
sg9
g1015
sg10
VBrocaCSIL15BGenR2Q17L
p1016
sg12
Vhttp://52.8.24.90discount_code/?code=BrocaCSIL15BGenR2Q17L
p1017
sg14
g15
sg16
g17
sg18
S'Wed, 13 May 2015 03:37:13 UTC'
p1018
sg20
S'-0%'
p1019
sg22
g1016
sg23
I3
sa(dp1020
g3
I80666758
sg4
g25
sg6
I223382
sg7
g1015
sg9
g1015
sg10
VBrocaCSIL15BBoSR2Q17L
p1021
sg12
Vhttp://52.8.24.90discount_code/?code=BrocaCSIL15BBoSR2Q17L
p1022
sg14
g28
sg16
g29
sg18
S'Wed, 13 May 2015 03:37:13 UTC'
p1023
sg20
S'-0%'
p1024
sg22
g1021
sg23
I3
sa(dp1025
g3
I80692237
sg4
g439
sg6
I223385
sg7
S'Academic - Bronze'
p1026
sg9
g1026
sg10
VBrownACABRZ15BFacR2Q19q
p1027
sg12
Vhttp://52.8.24.90discount_code/?code=BrownACABRZ15BFacR2Q19q
p1028
sg14
g442
sg16
g443
sg18
S'Wed, 13 May 2015 03:38:10 UTC'
p1029
sg20
S'-0%'
p1030
sg22
g1027
sg23
I1
sa(dp1031
g3
I80692237
sg4
g447
sg6
I223385
sg7
g1026
sg9
g1026
sg10
VBrownACABRZ15BStDc2Q19q
p1032
sg12
Vhttp://52.8.24.90discount_code/?code=BrownACABRZ15BStDc2Q19q
p1033
sg14
g450
sg16
g451
sg18
S'Wed, 13 May 2015 03:38:10 UTC'
p1034
sg20
S'-0%'
p1035
sg22
g1032
sg23
I1
sa(dp1036
g3
I80705093
sg4
g439
sg6
I223384
sg7
S'Academic - Silver'
p1037
sg9
g1037
sg10
VMITACASIL15BFacR2Q19R
p1038
sg12
Vhttp://52.8.24.90discount_code/?code=MITACASIL15BFacR2Q19R
p1039
sg14
g442
sg16
g443
sg18
S'Wed, 13 May 2015 03:38:02 UTC'
p1040
sg20
S'-0%'
p1041
sg22
g1038
sg23
I2
sa(dp1042
g3
I80705093
sg4
g447
sg6
I223384
sg7
g1037
sg9
g1037
sg10
VMITACASIL15BStDc2Q19R
p1043
sg12
Vhttp://52.8.24.90discount_code/?code=MITACASIL15BStDc2Q19R
p1044
sg14
g450
sg16
g451
sg18
S'Wed, 13 May 2015 03:38:02 UTC'
p1045
sg20
S'-0%'
p1046
sg22
g1043
sg23
I1
sa(dp1047
g3
I80705093
sg4
g25
sg6
I223384
sg7
g1037
sg9
g1037
sg10
VMITACASIL15BBoSR2Q19R
p1048
sg12
Vhttp://52.8.24.90discount_code/?code=MITACASIL15BBoSR2Q19R
p1049
sg14
g28
sg16
g29
sg18
S'Wed, 13 May 2015 03:38:02 UTC'
p1050
sg20
S'-0%'
p1051
sg22
g1048
sg23
I3
sa(dp1052
g3
I80710866
sg4
g25
sg6
I223381
sg7
S'Corporate - Gold'
p1053
sg9
g1053
sg10
VAtlasCGOLD15BBoSR2Q13J
p1054
sg12
Vhttp://52.8.24.90discount_code/?code=AtlasCGOLD15BBoSR2Q13J
p1055
sg14
g28
sg16
g29
sg18
S'Wed, 13 May 2015 03:35:48 UTC'
p1056
sg20
S'-0%'
p1057
sg22
g1054
sg23
I2
sa(dp1058
g3
I80710866
sg4
g5
sg6
I223381
sg7
g1053
sg9
g1053
sg10
VAtlasCGOLD15BGenR2Q13J
p1059
sg12
Vhttp://52.8.24.90discount_code/?code=AtlasCGOLD15BGenR2Q13J
p1060
sg14
g15
sg16
g17
sg18
S'Wed, 13 May 2015 03:35:48 UTC'
p1061
sg20
S'-0%'
p1062
sg22
g1059
sg23
I5
sa(dp1063
g3
I80715877
sg4
g447
sg6
I223385
sg7
S'Academic - Bronze'
p1064
sg9
g1064
sg10
VUniveACABRZ15BStDc2Q19v
p1065
sg12
Vhttp://52.8.24.90discount_code/?code=UniveACABRZ15BStDc2Q19v
p1066
sg14
g450
sg16
g451
sg18
S'Wed, 13 May 2015 03:38:12 UTC'
p1067
sg20
S'-0%'
p1068
sg22
g1065
sg23
I1
sa(dp1069
g3
I80715877
sg4
g439
sg6
I223385
sg7
g1064
sg9
g1064
sg10
VUniveACABRZ15BFacR2Q19v
p1070
sg12
Vhttp://52.8.24.90discount_code/?code=UniveACABRZ15BFacR2Q19v
p1071
sg14
g442
sg16
g443
sg18
S'Wed, 13 May 2015 03:38:12 UTC'
p1072
sg20
S'-0%'
p1073
sg22
g1070
sg23
I1
sa(dp1074
g3
I80722918
sg4
g439
sg6
I223384
sg7
S'Academic - Silver'
p1075
sg9
g1075
sg10
VCalteACASIL15BFacR2Q192
p1076
sg12
Vhttp://52.8.24.90discount_code/?code=CalteACASIL15BFacR2Q192
p1077
sg14
g442
sg16
g443
sg18
S'Wed, 13 May 2015 03:37:54 UTC'
p1078
sg20
S'-0%'
p1079
sg22
g1076
sg23
I2
sa(dp1080
g3
I80722918
sg4
g25
sg6
I223384
sg7
g1075
sg9
g1075
sg10
VCalteACASIL15BBoSR2Q192
p1081
sg12
Vhttp://52.8.24.90discount_code/?code=CalteACASIL15BBoSR2Q192
p1082
sg14
g28
sg16
g29
sg18
S'Wed, 13 May 2015 03:37:54 UTC'
p1083
sg20
S'-0%'
p1084
sg22
g1081
sg23
I3
sa(dp1085
g3
I80722918
sg4
g447
sg6
I223384
sg7
g1075
sg9
g1075
sg10
VCalteACASIL15BStDc2Q192
p1086
sg12
Vhttp://52.8.24.90discount_code/?code=CalteACASIL15BStDc2Q192
p1087
sg14
g450
sg16
g451
sg18
S'Wed, 13 May 2015 03:37:54 UTC'
p1088
sg20
S'-0%'
p1089
sg22
g1086
sg23
I1
sa(dp1090
g3
I80723273
sg4
g25
sg6
I223381
sg7
S'Corporate - Gold'
p1091
sg9
g1091
sg10
VPrudeCGOLD15BBoSR2Q13O
p1092
sg12
Vhttp://52.8.24.90discount_code/?code=PrudeCGOLD15BBoSR2Q13O
p1093
sg14
g28
sg16
g29
sg18
S'Wed, 13 May 2015 03:35:49 UTC'
p1094
sg20
S'-0%'
p1095
sg22
g1092
sg23
I2
sa(dp1096
g3
I80723273
sg4
g33
sg6
I223381
sg7
g1091
sg9
g1091
sg10
VPrude152Q13O
p1097
sg12
Vhttp://52.8.24.90discount_code/?code=Prude152Q13O
p1098
sg14
g37
sg16
g38
sg18
S'Wed, 13 May 2015 03:35:49 UTC'
p1099
sg20
S'-0%'
p1100
sg22
g1097
sg23
I1
sa(dp1101
g3
I80723273
sg4
g5
sg6
I223381
sg7
g1091
sg9
g1091
sg10
VPrudeCGOLD15BGenR2Q13O
p1102
sg12
Vhttp://52.8.24.90discount_code/?code=PrudeCGOLD15BGenR2Q13O
p1103
sg14
g15
sg16
g17
sg18
S'Wed, 13 May 2015 03:35:49 UTC'
p1104
sg20
S'-0%'
p1105
sg22
g1102
sg23
I5
sa(dp1106
g3
I80724512
sg4
g33
sg6
I227146
sg7
S'GHC Event Sponsorships and Enterprise Packages'
p1107
sg9
g1107
sg10
VLockh152Q1Ao
p1108
sg12
Vhttp://52.8.24.90discount_code/?code=Lockh152Q1Ao
p1109
sg14
g37
sg16
g38
sg18
S'Wed, 13 May 2015 03:38:33 UTC'
p1110
sg20
S'-0%'
p1111
sg22
g1108
sg23
I1
sa(dp1112
g3
I80725493
sg4
g447
sg6
I223383
sg7
S'Academic - Gold'
p1113
sg9
g1113
sg10
VHarveACAGOLD15BStDc2Q18o
p1114
sg12
Vhttp://52.8.24.90discount_code/?code=HarveACAGOLD15BStDc2Q18o
p1115
sg14
g450
sg16
g451
sg18
S'Wed, 13 May 2015 03:37:50 UTC'
p1116
sg20
S'-0%'
p1117
sg22
g1114
sg23
I1
sa(dp1118
g3
I80725493
sg4
g25
sg6
I223383
sg7
g1113
sg9
g1113
sg10
VHarveACAGOLD15BBoSR2Q18o
p1119
sg12
Vhttp://52.8.24.90discount_code/?code=HarveACAGOLD15BBoSR2Q18o
p1120
sg14
g28
sg16
g29
sg18
S'Wed, 13 May 2015 03:37:50 UTC'
p1121
sg20
S'-0%'
p1122
sg22
g1119
sg23
I2
sa(dp1123
g3
I80725493
sg4
g439
sg6
I223383
sg7
g1113
sg9
g1113
sg10
VHarveACAGOLD15BFacR2Q18o
p1124
sg12
Vhttp://52.8.24.90discount_code/?code=HarveACAGOLD15BFacR2Q18o
p1125
sg14
g442
sg16
g443
sg18
S'Wed, 13 May 2015 03:37:50 UTC'
p1126
sg20
S'-0%'
p1127
sg22
g1124
sg23
I3
sa(dp1128
g3
I80751863
sg4
g5
sg6
I223381
sg7
S'Corporate - Gold'
p1129
sg9
g1129
sg10
VAutodCGOLD15BGenR2Q13T
p1130
sg12
Vhttp://52.8.24.90discount_code/?code=AutodCGOLD15BGenR2Q13T
p1131
sg14
g15
sg16
g17
sg18
S'Wed, 13 May 2015 03:35:51 UTC'
p1132
sg20
S'-0%'
p1133
sg22
g1130
sg23
I5
sa(dp1134
g3
I80751863
sg4
g25
sg6
I223381
sg7
g1129
sg9
g1129
sg10
VAutodCGOLD15BBoSR2Q13T
p1135
sg12
Vhttp://52.8.24.90discount_code/?code=AutodCGOLD15BBoSR2Q13T
p1136
sg14
g28
sg16
g29
sg18
S'Wed, 13 May 2015 03:35:51 UTC'
p1137
sg20
S'-0%'
p1138
sg22
g1135
sg23
I2
sa(dp1139
g3
I80757386
sg4
g5
sg6
I223380
sg7
S'ABI Partners Only - Platinum'
p1140
sg9
g1140
sg10
VIntuiPLAT15BGenR2Q11c
p1141
sg12
Vhttp://52.8.24.90discount_code/?code=IntuiPLAT15BGenR2Q11c
p1142
sg14
g15
sg16
g17
sg18
S'Wed, 13 May 2015 03:35:08 UTC'
p1143
sg20
S'-0%'
p1144
sg22
g1141
sg23
I10
sa(dp1145
g3
I80757386
sg4
g25
sg6
I223380
sg7
g1140
sg9
g1140
sg10
VIntuiPLAT15BBoSR2Q11c
p1146
sg12
Vhttp://52.8.24.90discount_code/?code=IntuiPLAT15BBoSR2Q11c
p1147
sg14
g28
sg16
g29
sg18
S'Wed, 13 May 2015 03:35:08 UTC'
p1148
sg20
S'-0%'
p1149
sg22
g1146
sg23
I8
sa(dp1150
g3
I80757386
sg4
g5
sg6
I223380
sg7
VEnterprise Pack
p1151
sg9
g1140
sg10
VIntui1510DGenR2Q11c
p1152
sg12
Vhttp://52.8.24.90discount_code/?code=Intui1510DGenR2Q11c
p1153
sg14
g15
sg16
g17
sg18
S'Wed, 13 May 2015 03:35:08 UTC'
p1154
sg20
S'-0%'
p1155
sg22
g1152
sg23
I200
sa(dp1156
g3
I80766185
sg4
g5
sg6
I223380
sg7
S'ABI Partners Only - Platinum'
p1157
sg9
g1157
sg10
VEricsPLAT15BGenR2Q11h
p1158
sg12
Vhttp://52.8.24.90discount_code/?code=EricsPLAT15BGenR2Q11h
p1159
sg14
g15
sg16
g17
sg18
S'Wed, 13 May 2015 03:35:09 UTC'
p1160
sg20
S'-0%'
p1161
sg22
g1158
sg23
I10
sa(dp1162
g3
I80766185
sg4
g25
sg6
I223380
sg7
g1157
sg9
g1157
sg10
VEricsPLAT15BBoSR2Q11h
p1163
sg12
Vhttp://52.8.24.90discount_code/?code=EricsPLAT15BBoSR2Q11h
p1164
sg14
g28
sg16
g29
sg18
S'Wed, 13 May 2015 03:35:09 UTC'
p1165
sg20
S'-0%'
p1166
sg22
g1163
sg23
I8
sa(dp1167
g3
I80766185
sg4
g5
sg6
I223380
sg7
VEnterprise Pack
p1168
sg9
g1157
sg10
VErics1510DGenR2Q11h
p1169
sg12
Vhttp://52.8.24.90discount_code/?code=Erics1510DGenR2Q11h
p1170
sg14
g15
sg16
g17
sg18
S'Wed, 13 May 2015 03:35:09 UTC'
p1171
sg20
S'-0%'
p1172
sg22
g1169
sg23
I50
sa(dp1173
g3
I80837474
sg4
g439
sg6
I223384
sg7
S'Academic - Silver'
p1174
sg9
g1174
sg10
VIU-ScACASIL15BFacR2Q19W
p1175
sg12
Vhttp://52.8.24.90discount_code/?code=IU-ScACASIL15BFacR2Q19W
p1176
sg14
g442
sg16
g443
sg18
S'Wed, 13 May 2015 03:38:03 UTC'
p1177
sg20
S'-0%'
p1178
sg22
g1175
sg23
I2
sa(dp1179
g3
I80837474
sg4
g25
sg6
I223384
sg7
g1174
sg9
g1174
sg10
VIU-ScACASIL15BBoSR2Q19W
p1180
sg12
Vhttp://52.8.24.90discount_code/?code=IU-ScACASIL15BBoSR2Q19W
p1181
sg14
g28
sg16
g29
sg18
S'Wed, 13 May 2015 03:38:03 UTC'
p1182
sg20
S'-0%'
p1183
sg22
g1180
sg23
I3
sa(dp1184
g3
I80837474
sg4
g447
sg6
I223384
sg7
g1174
sg9
g1174
sg10
VIU-ScACASIL15BStDc2Q19W
p1185
sg12
Vhttp://52.8.24.90discount_code/?code=IU-ScACASIL15BStDc2Q19W
p1186
sg14
g450
sg16
g451
sg18
S'Wed, 13 May 2015 03:38:03 UTC'
p1187
sg20
S'-0%'
p1188
sg22
g1185
sg23
I1
sa(dp1189
g3
I80843521
sg4
g25
sg6
I223382
sg7
S'Corporate - Silver'
p1190
sg9
g1190
sg10
VOpoweCSIL15BBoSR2Q14D
p1191
sg12
Vhttp://52.8.24.90discount_code/?code=OpoweCSIL15BBoSR2Q14D
p1192
sg14
g28
sg16
g29
sg18
S'Wed, 13 May 2015 03:37:14 UTC'
p1193
sg20
S'-0%'
p1194
sg22
g1191
sg23
I3
sa(dp1195
g3
I80843521
sg4
g5
sg6
I223382
sg7
g1190
sg9
g1190
sg10
VOpoweCSIL15BGenR2Q14D
p1196
sg12
Vhttp://52.8.24.90discount_code/?code=OpoweCSIL15BGenR2Q14D
p1197
sg14
g15
sg16
g17
sg18
S'Wed, 13 May 2015 03:37:14 UTC'
p1198
sg20
S'-0%'
p1199
sg22
g1196
sg23
I3
sa(dp1200
g3
I80907398
sg4
g439
sg6
I223385
sg7
S'Academic - Bronze'
p1201
sg9
g1201
sg10
VRocheACABRZ15BFacR2Q1A0
p1202
sg12
Vhttp://52.8.24.90discount_code/?code=RocheACABRZ15BFacR2Q1A0
p1203
sg14
g442
sg16
g443
sg18
S'Wed, 13 May 2015 03:38:15 UTC'
p1204
sg20
S'-0%'
p1205
sg22
g1202
sg23
I1
sa(dp1206
g3
I80907398
sg4
g447
sg6
I223385
sg7
g1201
sg9
g1201
sg10
VRocheACABRZ15BStDc2Q1A0
p1207
sg12
Vhttp://52.8.24.90discount_code/?code=RocheACABRZ15BStDc2Q1A0
p1208
sg14
g450
sg16
g451
sg18
S'Wed, 13 May 2015 03:38:15 UTC'
p1209
sg20
S'-0%'
p1210
sg22
g1207
sg23
I1
sa(dp1211
g3
I80951114
sg4
g25
sg6
I223382
sg7
S'Corporate - Silver'
p1212
sg9
g1212
sg10
VCimprCSIL15BBoSR2Q16c
p1213
sg12
Vhttp://52.8.24.90discount_code/?code=CimprCSIL15BBoSR2Q16c
p1214
sg14
g28
sg16
g29
sg18
S'Wed, 13 May 2015 03:36:56 UTC'
p1215
sg20
S'-0%'
p1216
sg22
g1213
sg23
I3
sa(dp1217
g3
I80951114
sg4
g5
sg6
I223382
sg7
g1212
sg9
g1212
sg10
VCimprCSIL15BGenR2Q16c
p1218
sg12
Vhttp://52.8.24.90discount_code/?code=CimprCSIL15BGenR2Q16c
p1219
sg14
g15
sg16
g17
sg18
S'Wed, 13 May 2015 03:36:56 UTC'
p1220
sg20
S'-0%'
p1221
sg22
g1218
sg23
I3
sa(dp1222
g3
I80965581
sg4
g25
sg6
I223382
sg7
S'Corporate - Silver'
p1223
sg9
g1223
sg10
VStripCSIL15BBoSR2Q16h
p1224
sg12
Vhttp://52.8.24.90discount_code/?code=StripCSIL15BBoSR2Q16h
p1225
sg14
g28
sg16
g29
sg18
S'Wed, 13 May 2015 03:36:57 UTC'
p1226
sg20
S'-0%'
p1227
sg22
g1224
sg23
I3
sa(dp1228
g3
I80965581
sg4
g5
sg6
I223382
sg7
g1223
sg9
g1223
sg10
VStripCSIL15BGenR2Q16h
p1229
sg12
Vhttp://52.8.24.90discount_code/?code=StripCSIL15BGenR2Q16h
p1230
sg14
g15
sg16
g17
sg18
S'Wed, 13 May 2015 03:36:57 UTC'
p1231
sg20
S'-0%'
p1232
sg22
g1229
sg23
I3
sa(dp1233
g3
I81051813
sg4
g25
sg6
I223380
sg7
S'ABI Partners Only - Platinum'
p1234
sg9
g1234
sg10
VYahooPLAT15BBoSR2Q11T
p1235
sg12
Vhttp://52.8.24.90discount_code/?code=YahooPLAT15BBoSR2Q11T
p1236
sg14
g28
sg16
g29
sg18
S'Wed, 13 May 2015 03:35:11 UTC'
p1237
sg20
S'-0%'
p1238
sg22
g1235
sg23
I8
sa(dp1239
g3
I81051813
sg4
g5
sg6
I223380
sg7
VEnterprise Pack
p1240
sg9
g1234
sg10
VYahoo1510DGenR2Q11T
p1241
sg12
Vhttp://52.8.24.90discount_code/?code=Yahoo1510DGenR2Q11T
p1242
sg14
g15
sg16
g17
sg18
S'Wed, 13 May 2015 03:35:11 UTC'
p1243
sg20
S'-0%'
p1244
sg22
g1241
sg23
I130
sa(dp1245
g3
I81051813
sg4
g5
sg6
I223380
sg7
g1234
sg9
g1234
sg10
VYahooPLAT15BGenR2Q11T
p1246
sg12
Vhttp://52.8.24.90discount_code/?code=YahooPLAT15BGenR2Q11T
p1247
sg14
g15
sg16
g17
sg18
S'Wed, 13 May 2015 03:35:11 UTC'
p1248
sg20
S'-0%'
p1249
sg22
g1246
sg23
I10
sa(dp1250
g3
I81153506
sg4
g25
sg6
I223382
sg7
S'Corporate - Silver'
p1251
sg9
g1251
sg10
VLivinCSIL15BBoSR2Q16m
p1252
sg12
Vhttp://52.8.24.90discount_code/?code=LivinCSIL15BBoSR2Q16m
p1253
sg14
g28
sg16
g29
sg18
S'Wed, 13 May 2015 03:36:59 UTC'
p1254
sg20
S'-0%'
p1255
sg22
g1252
sg23
I3
sa(dp1256
g3
I81153506
sg4
g5
sg6
I223382
sg7
g1251
sg9
g1251
sg10
VLivinCSIL15BGenR2Q16m
p1257
sg12
Vhttp://52.8.24.90discount_code/?code=LivinCSIL15BGenR2Q16m
p1258
sg14
g15
sg16
g17
sg18
S'Wed, 13 May 2015 03:36:59 UTC'
p1259
sg20
S'-0%'
p1260
sg22
g1257
sg23
I3
sa(dp1261
g3
I81203930
sg4
g25
sg6
I223383
sg7
S'Academic - Gold'
p1262
sg9
g1262
sg10
VMontaACAGOLD15BBoSR2Q18i
p1263
sg12
Vhttp://52.8.24.90discount_code/?code=MontaACAGOLD15BBoSR2Q18i
p1264
sg14
g28
sg16
g29
sg18
S'Wed, 13 May 2015 03:37:46 UTC'
p1265
sg20
S'-0%'
p1266
sg22
g1263
sg23
I2
sa(dp1267
g3
I81203930
sg4
g447
sg6
I223383
sg7
g1262
sg9
g1262
sg10
VMontaACAGOLD15BStDc2Q18i
p1268
sg12
Vhttp://52.8.24.90discount_code/?code=MontaACAGOLD15BStDc2Q18i
p1269
sg14
g450
sg16
g451
sg18
S'Wed, 13 May 2015 03:37:46 UTC'
p1270
sg20
S'-0%'
p1271
sg22
g1268
sg23
I1
sa(dp1272
g3
I81203930
sg4
g439
sg6
I223383
sg7
g1262
sg9
g1262
sg10
VMontaACAGOLD15BFacR2Q18i
p1273
sg12
Vhttp://52.8.24.90discount_code/?code=MontaACAGOLD15BFacR2Q18i
p1274
sg14
g442
sg16
g443
sg18
S'Wed, 13 May 2015 03:37:46 UTC'
p1275
sg20
S'-0%'
p1276
sg22
g1273
sg23
I3
sa(dp1277
g3
I81211137
sg4
g33
sg6
I227146
sg7
S'GHC Event Sponsorships and Enterprise Packages'
p1278
sg9
g1278
sg10
VAccen15SWLnch2Q1At
p1279
sg12
Vhttp://52.8.24.90discount_code/?code=Accen15SWLnch2Q1At
p1280
sg14
g37
sg16
g38
sg18
S'Wed, 13 May 2015 03:38:34 UTC'
p1281
sg20
S'-0%'
p1282
sg22
g1279
sg23
I1
sa(dp1283
g3
I81211467
sg4
g5
sg6
I223381
sg7
S'Corporate - Gold'
p1284
sg9
g1284
sg10
VFactSCGOLD15BGenR2Q13d
p1285
sg12
Vhttp://52.8.24.90discount_code/?code=FactSCGOLD15BGenR2Q13d
p1286
sg14
g15
sg16
g17
sg18
S'Wed, 13 May 2015 03:35:52 UTC'
p1287
sg20
S'-0%'
p1288
sg22
g1285
sg23
I5
sa(dp1289
g3
I81211467
sg4
g25
sg6
I223381
sg7
g1284
sg9
g1284
sg10
VFactSCGOLD15BBoSR2Q13d
p1290
sg12
Vhttp://52.8.24.90discount_code/?code=FactSCGOLD15BBoSR2Q13d
p1291
sg14
g28
sg16
g29
sg18
S'Wed, 13 May 2015 03:35:53 UTC'
p1292
sg20
S'-0%'
p1293
sg22
g1290
sg23
I2
sa(dp1294
g3
I81219018
sg4
g25
sg6
I223382
sg7
S'Corporate - Silver'
p1295
sg9
g1295
sg10
VTableCSIL15BBoSR2Q16r
p1296
sg12
Vhttp://52.8.24.90discount_code/?code=TableCSIL15BBoSR2Q16r
p1297
sg14
g28
sg16
g29
sg18
S'Wed, 13 May 2015 03:37:00 UTC'
p1298
sg20
S'-0%'
p1299
sg22
g1296
sg23
I3
sa(dp1300
g3
I81219018
sg4
g5
sg6
I223382
sg7
g1295
sg9
g1295
sg10
VTableCSIL15BGenR2Q16r
p1301
sg12
Vhttp://52.8.24.90discount_code/?code=TableCSIL15BGenR2Q16r
p1302
sg14
g15
sg16
g17
sg18
S'Wed, 13 May 2015 03:37:00 UTC'
p1303
sg20
S'-0%'
p1304
sg22
g1301
sg23
I3
sa(dp1305
g3
I81269116
sg4
g5
sg6
I223381
sg7
S'Corporate - Gold'
p1306
sg9
g1306
sg10
VQuoraCGOLD15BGenR2Q13i
p1307
sg12
Vhttp://52.8.24.90discount_code/?code=QuoraCGOLD15BGenR2Q13i
p1308
sg14
g15
sg16
g17
sg18
S'Wed, 13 May 2015 03:35:54 UTC'
p1309
sg20
S'-0%'
p1310
sg22
g1307
sg23
I5
sa(dp1311
g3
I81269116
sg4
g25
sg6
I223381
sg7
g1306
sg9
g1306
sg10
VQuoraCGOLD15BBoSR2Q13i
p1312
sg12
Vhttp://52.8.24.90discount_code/?code=QuoraCGOLD15BBoSR2Q13i
p1313
sg14
g28
sg16
g29
sg18
S'Wed, 13 May 2015 03:35:54 UTC'
p1314
sg20
S'-0%'
p1315
sg22
g1312
sg23
I2
sa(dp1316
g3
I81277663
sg4
g33
sg6
I227146
sg7
S'GHC Event Sponsorships and Enterprise Packages'
p1317
sg9
g1317
sg10
VRMS152Q1Ay
p1318
sg12
Vhttp://52.8.24.90discount_code/?code=RMS152Q1Ay
p1319
sg14
g37
sg16
g38
sg18
S'Wed, 13 May 2015 03:38:36 UTC'
p1320
sg20
S'-0%'
p1321
sg22
g1318
sg23
I1
sa(dp1322
g3
I81294822
sg4
g25
sg6
I223382
sg7
S'Corporate - Silver'
p1323
sg9
g1323
sg10
VNatioCSIL15BBoSR2Q168
p1324
sg12
Vhttp://52.8.24.90discount_code/?code=NatioCSIL15BBoSR2Q168
p1325
sg14
g28
sg16
g29
sg18
S'Wed, 13 May 2015 03:36:46 UTC'
p1326
sg20
S'-0%'
p1327
sg22
g1324
sg23
I3
sa(dp1328
g3
I81294822
sg4
g5
sg6
I223382
sg7
g1323
sg9
g1323
sg10
VNatioCSIL15BGenR2Q168
p1329
sg12
Vhttp://52.8.24.90discount_code/?code=NatioCSIL15BGenR2Q168
p1330
sg14
g15
sg16
g17
sg18
S'Wed, 13 May 2015 03:36:46 UTC'
p1331
sg20
S'-0%'
p1332
sg22
g1329
sg23
I3
sa(dp1333
g3
I81295016
sg4
g25
sg6
I223382
sg7
S'Corporate - Silver'
p1334
sg9
g1334
sg10
VNatioCSIL15BBoSR2Q16D
p1335
sg12
Vhttp://52.8.24.90discount_code/?code=NatioCSIL15BBoSR2Q16D
p1336
sg14
g28
sg16
g29
sg18
S'Wed, 13 May 2015 03:36:48 UTC'
p1337
sg20
S'-0%'
p1338
sg22
g1335
sg23
I3
sa(dp1339
g3
I81295016
sg4
g5
sg6
I223382
sg7
g1334
sg9
g1334
sg10
VNatioCSIL15BGenR2Q16D
p1340
sg12
Vhttp://52.8.24.90discount_code/?code=NatioCSIL15BGenR2Q16D
p1341
sg14
g15
sg16
g17
sg18
S'Wed, 13 May 2015 03:36:48 UTC'
p1342
sg20
S'-0%'
p1343
sg22
g1340
sg23
I3
sa(dp1344
g3
I81303320
sg4
g5
sg6
I223382
sg7
S'Corporate - Silver'
p1345
sg9
g1345
sg10
VCerneCSIL15BGenR2Q16w
p1346
sg12
Vhttp://52.8.24.90discount_code/?code=CerneCSIL15BGenR2Q16w
p1347
sg14
g15
sg16
g17
sg18
S'Wed, 13 May 2015 03:37:02 UTC'
p1348
sg20
S'-0%'
p1349
sg22
g1346
sg23
I3
sa(dp1350
g3
I81303320
sg4
g25
sg6
I223382
sg7
g1345
sg9
g1345
sg10
VCerneCSIL15BBoSR2Q16w
p1351
sg12
Vhttp://52.8.24.90discount_code/?code=CerneCSIL15BBoSR2Q16w
p1352
sg14
g28
sg16
g29
sg18
S'Wed, 13 May 2015 03:37:02 UTC'
p1353
sg20
S'-0%'
p1354
sg22
g1351
sg23
I3
sa(dp1355
g3
I81315890
sg4
g5
sg6
I223381
sg7
S'Corporate - Gold'
p1356
sg9
g1356
sg10
VTargeCGOLD15BGenR2Q13n
p1357
sg12
Vhttp://52.8.24.90discount_code/?code=TargeCGOLD15BGenR2Q13n
p1358
sg14
g15
sg16
g17
sg18
S'Wed, 13 May 2015 03:35:55 UTC'
p1359
sg20
S'-0%'
p1360
sg22
g1357
sg23
I5
sa(dp1361
g3
I81315890
sg4
g25
sg6
I223381
sg7
g1356
sg9
g1356
sg10
VTargeCGOLD15BBoSR2Q13n
p1362
sg12
Vhttp://52.8.24.90discount_code/?code=TargeCGOLD15BBoSR2Q13n
p1363
sg14
g28
sg16
g29
sg18
S'Wed, 13 May 2015 03:35:55 UTC'
p1364
sg20
S'-0%'
p1365
sg22
g1362
sg23
I2
sa(dp1366
g3
I81322044
sg4
g5
sg6
I226852
sg7
S'Lab & Non-Profit - Silver'
p1367
sg9
g1367
sg10
VFreeBL&NSIL15BGenR2Q1Ae
p1368
sg12
Vhttp://52.8.24.90discount_code/?code=FreeBL&NSIL15BGenR2Q1Ae
p1369
sg14
g15
sg16
g17
sg18
S'Wed, 13 May 2015 03:38:28 UTC'
p1370
sg20
S'-0%'
p1371
sg22
g1368
sg23
I2
sa(dp1372
g3
I81332136
sg4
g5
sg6
I223382
sg7
S'Corporate - Silver'
p1373
sg9
g1373
sg10
VNVIDICSIL15BGenR2Q171
p1374
sg12
Vhttp://52.8.24.90discount_code/?code=NVIDICSIL15BGenR2Q171
p1375
sg14
g15
sg16
g17
sg18
S'Wed, 13 May 2015 03:37:04 UTC'
p1376
sg20
S'-0%'
p1377
sg22
g1374
sg23
I3
sa(dp1378
g3
I81332136
sg4
g25
sg6
I223382
sg7
g1373
sg9
g1373
sg10
VNVIDICSIL15BBoSR2Q171
p1379
sg12
Vhttp://52.8.24.90discount_code/?code=NVIDICSIL15BBoSR2Q171
p1380
sg14
g28
sg16
g29
sg18
S'Wed, 13 May 2015 03:37:04 UTC'
p1381
sg20
S'-0%'
p1382
sg22
g1379
sg23
I3
sa(dp1383
g3
I81365703
sg4
g25
sg6
I223380
sg7
S'ABI Partners Only - Platinum'
p1384
sg9
g1384
sg10
VTwo SPLAT15BBoSR2Q11m
p1385
sg12
Vhttp://52.8.24.90discount_code/?code=Two SPLAT15BBoSR2Q11m
p1386
sg14
g28
sg16
g29
sg18
S'Wed, 13 May 2015 03:35:13 UTC'
p1387
sg20
S'-0%'
p1388
sg22
g1385
sg23
I8
sa(dp1389
g3
I81365703
sg4
g5
sg6
I223380
sg7
g1384
sg9
g1384
sg10
VTwo SPLAT15BGenR2Q11m
p1390
sg12
Vhttp://52.8.24.90discount_code/?code=Two SPLAT15BGenR2Q11m
p1391
sg14
g15
sg16
g17
sg18
S'Wed, 13 May 2015 03:35:13 UTC'
p1392
sg20
S'-0%'
p1393
sg22
g1390
sg23
I10
sa(dp1394
g3
I81367464
sg4
g439
sg6
I223385
sg7
S'Academic - Bronze'
p1395
sg9
g1395
sg10
VIowa ACABRZ15BFacR2Q1A5
p1396
sg12
Vhttp://52.8.24.90discount_code/?code=Iowa ACABRZ15BFacR2Q1A5
p1397
sg14
g442
sg16
g443
sg18
S'Wed, 13 May 2015 03:38:16 UTC'
p1398
sg20
S'-0%'
p1399
sg22
g1396
sg23
I1
sa(dp1400
g3
I81367464
sg4
g447
sg6
I223385
sg7
g1395
sg9
g1395
sg10
VIowa ACABRZ15BStDc2Q1A5
p1401
sg12
Vhttp://52.8.24.90discount_code/?code=Iowa ACABRZ15BStDc2Q1A5
p1402
sg14
g450
sg16
g451
sg18
S'Wed, 13 May 2015 03:38:16 UTC'
p1403
sg20
S'-0%'
p1404
sg22
g1401
sg23
I1
sa(dp1405
g3
I81373609
sg4
g5
sg6
I223380
sg7
S'ABI Partners Only - Platinum'
p1406
sg9
g1406
sg10
VAmazoPLAT15BGenR2Q11r
p1407
sg12
Vhttp://52.8.24.90discount_code/?code=AmazoPLAT15BGenR2Q11r
p1408
sg14
g15
sg16
g17
sg18
S'Wed, 13 May 2015 03:35:14 UTC'
p1409
sg20
S'-0%'
p1410
sg22
g1407
sg23
I10
sa(dp1411
g3
I81373609
sg4
g25
sg6
I223380
sg7
g1406
sg9
g1406
sg10
VAmazoPLAT15BBoSR2Q11r
p1412
sg12
Vhttp://52.8.24.90discount_code/?code=AmazoPLAT15BBoSR2Q11r
p1413
sg14
g28
sg16
g29
sg18
S'Wed, 13 May 2015 03:35:14 UTC'
p1414
sg20
S'-0%'
p1415
sg22
g1412
sg23
I8
sa(dp1416
g3
I81373609
sg4
g5
sg6
I223380
sg7
VEnterprise Pack
p1417
sg9
g1406
sg10
VAmazo1510DGenR2Q11r
p1418
sg12
Vhttp://52.8.24.90discount_code/?code=Amazo1510DGenR2Q11r
p1419
sg14
g15
sg16
g17
sg18
S'Wed, 13 May 2015 03:35:14 UTC'
p1420
sg20
S'-0%'
p1421
sg22
g1418
sg23
I200
sa(dp1422
g3
I81398086
sg4
g25
sg6
I223382
sg7
S'Corporate - Silver'
p1423
sg9
g1423
sg10
VBlackCSIL15BBoSR2Q16I
p1424
sg12
Vhttp://52.8.24.90discount_code/?code=BlackCSIL15BBoSR2Q16I
p1425
sg14
g28
sg16
g29
sg18
S'Wed, 13 May 2015 03:36:49 UTC'
p1426
sg20
S'-0%'
p1427
sg22
g1424
sg23
I3
sa(dp1428
g3
I81398086
sg4
g5
sg6
I223382
sg7
g1423
sg9
g1423
sg10
VBlackCSIL15BGenR2Q16I
p1429
sg12
Vhttp://52.8.24.90discount_code/?code=BlackCSIL15BGenR2Q16I
p1430
sg14
g15
sg16
g17
sg18
S'Wed, 13 May 2015 03:36:49 UTC'
p1431
sg20
S'-0%'
p1432
sg22
g1429
sg23
I3
sa(dp1433
g3
I81432405
sg4
g5
sg6
I223380
sg7
VEnterprise Pack
p1434
sg9
S'ABI Partners Only - Platinum'
p1435
sg10
VTHOUG1510DGenR2Q11w
p1436
sg12
Vhttp://52.8.24.90discount_code/?code=THOUG1510DGenR2Q11w
p1437
sg14
g15
sg16
g17
sg18
S'Wed, 13 May 2015 03:35:16 UTC'
p1438
sg20
S'-0%'
p1439
sg22
g1436
sg23
I30
sa(dp1440
g3
I81432405
sg4
g25
sg6
I223380
sg7
g1435
sg9
g1435
sg10
VTHOUGPLAT15BBoSR2Q11w
p1441
sg12
Vhttp://52.8.24.90discount_code/?code=THOUGPLAT15BBoSR2Q11w
p1442
sg14
g28
sg16
g29
sg18
S'Wed, 13 May 2015 03:35:16 UTC'
p1443
sg20
S'-0%'
p1444
sg22
g1441
sg23
I8
sa(dp1445
g3
I81432405
sg4
g5
sg6
I223380
sg7
g1435
sg9
g1435
sg10
VTHOUGPLAT15BGenR2Q11w
p1446
sg12
Vhttp://52.8.24.90discount_code/?code=THOUGPLAT15BGenR2Q11w
p1447
sg14
g15
sg16
g17
sg18
S'Wed, 13 May 2015 03:35:16 UTC'
p1448
sg20
S'-0%'
p1449
sg22
g1446
sg23
I10
sa(dp1450
g3
I81440743
sg4
g25
sg6
I223383
sg7
S'Academic - Gold'
p1451
sg9
g1451
sg10
VUSCACAGOLD15BBoSR2Q18x
p1452
sg12
Vhttp://52.8.24.90discount_code/?code=USCACAGOLD15BBoSR2Q18x
p1453
sg14
g28
sg16
g29
sg18
S'Wed, 13 May 2015 03:37:52 UTC'
p1454
sg20
S'-0%'
p1455
sg22
g1452
sg23
I2
sa(dp1456
g3
I81440743
sg4
g439
sg6
I223383
sg7
g1451
sg9
g1451
sg10
VUSCACAGOLD15BFacR2Q18x
p1457
sg12
Vhttp://52.8.24.90discount_code/?code=USCACAGOLD15BFacR2Q18x
p1458
sg14
g442
sg16
g443
sg18
S'Wed, 13 May 2015 03:37:52 UTC'
p1459
sg20
S'-0%'
p1460
sg22
g1457
sg23
I3
sa(dp1461
g3
I81440743
sg4
g447
sg6
I223383
sg7
g1451
sg9
g1451
sg10
VUSCACAGOLD15BStDc2Q18x
p1462
sg12
Vhttp://52.8.24.90discount_code/?code=USCACAGOLD15BStDc2Q18x
p1463
sg14
g450
sg16
g451
sg18
S'Wed, 13 May 2015 03:37:52 UTC'
p1464
sg20
S'-0%'
p1465
sg22
g1462
sg23
I1
sa(dp1466
g3
I81447714
sg4
g25
sg6
I223381
sg7
S'Corporate - Gold'
p1467
sg9
g1467
sg10
VThe WCGOLD15BBoSR2Q12u
p1468
sg12
Vhttp://52.8.24.90discount_code/?code=The WCGOLD15BBoSR2Q12u
p1469
sg14
g28
sg16
g29
sg18
S'Wed, 13 May 2015 03:35:38 UTC'
p1470
sg20
S'-0%'
p1471
sg22
g1468
sg23
I2
sa(dp1472
g3
I81447714
sg4
g5
sg6
I223381
sg7
g1467
sg9
g1467
sg10
VThe WCGOLD15BGenR2Q12u
p1473
sg12
Vhttp://52.8.24.90discount_code/?code=The WCGOLD15BGenR2Q12u
p1474
sg14
g15
sg16
g17
sg18
S'Wed, 13 May 2015 03:35:38 UTC'
p1475
sg20
S'-0%'
p1476
sg22
g1473
sg23
I5
sa(dp1477
g3
I81481281
sg4
g25
sg6
I223382
sg7
S'Corporate - Silver'
p1478
sg9
g1478
sg10
VLGS ICSIL15BBoSR2Q16N
p1479
sg12
Vhttp://52.8.24.90discount_code/?code=LGS ICSIL15BBoSR2Q16N
p1480
sg14
g28
sg16
g29
sg18
S'Wed, 13 May 2015 03:36:51 UTC'
p1481
sg20
S'-0%'
p1482
sg22
g1479
sg23
I3
sa(dp1483
g3
I81481281
sg4
g5
sg6
I223382
sg7
g1478
sg9
g1478
sg10
VLGS ICSIL15BGenR2Q16N
p1484
sg12
Vhttp://52.8.24.90discount_code/?code=LGS ICSIL15BGenR2Q16N
p1485
sg14
g15
sg16
g17
sg18
S'Wed, 13 May 2015 03:36:51 UTC'
p1486
sg20
S'-0%'
p1487
sg22
g1484
sg23
I3
sa(dp1488
g3
I81484417
sg4
g5
sg6
I223381
sg7
S'Corporate - Gold'
p1489
sg9
g1489
sg10
VIBMCGOLD15BGenR2Q12z
p1490
sg12
Vhttp://52.8.24.90discount_code/?code=IBMCGOLD15BGenR2Q12z
p1491
sg14
g15
sg16
g17
sg18
S'Wed, 13 May 2015 03:35:40 UTC'
p1492
sg20
S'-0%'
p1493
sg22
g1490
sg23
I5
sa(dp1494
g3
I81484417
sg4
g25
sg6
I223381
sg7
g1489
sg9
g1489
sg10
VIBMCGOLD15BBoSR2Q12z
p1495
sg12
Vhttp://52.8.24.90discount_code/?code=IBMCGOLD15BBoSR2Q12z
p1496
sg14
g28
sg16
g29
sg18
S'Wed, 13 May 2015 03:35:40 UTC'
p1497
sg20
S'-0%'
p1498
sg22
g1495
sg23
I2
sa(dp1499
g3
I81510483
sg4
g439
sg6
I223385
sg7
S'Academic - Bronze'
p1500
sg9
g1500
sg10
VSteveACABRZ15BFacR2Q1AA
p1501
sg12
Vhttp://52.8.24.90discount_code/?code=SteveACABRZ15BFacR2Q1AA
p1502
sg14
g442
sg16
g443
sg18
S'Wed, 13 May 2015 03:38:18 UTC'
p1503
sg20
S'-0%'
p1504
sg22
g1501
sg23
I1
sa(dp1505
g3
I81510483
sg4
g447
sg6
I223385
sg7
g1500
sg9
g1500
sg10
VSteveACABRZ15BStDc2Q1AA
p1506
sg12
Vhttp://52.8.24.90discount_code/?code=SteveACABRZ15BStDc2Q1AA
p1507
sg14
g450
sg16
g451
sg18
S'Wed, 13 May 2015 03:38:18 UTC'
p1508
sg20
S'-0%'
p1509
sg22
g1506
sg23
I1
sa(dp1510
g3
I81526681
sg4
g439
sg6
I223383
sg7
S'Academic - Gold'
p1511
sg9
g1511
sg10
VNew YACAGOLD15BFacR2Q18n
p1512
sg12
Vhttp://52.8.24.90discount_code/?code=New YACAGOLD15BFacR2Q18n
p1513
sg14
g442
sg16
g443
sg18
S'Wed, 13 May 2015 03:37:47 UTC'
p1514
sg20
S'-0%'
p1515
sg22
g1512
sg23
I3
sa(dp1516
g3
I81526681
sg4
g25
sg6
I223383
sg7
g1511
sg9
g1511
sg10
VNew YACAGOLD15BBoSR2Q18n
p1517
sg12
Vhttp://52.8.24.90discount_code/?code=New YACAGOLD15BBoSR2Q18n
p1518
sg14
g28
sg16
g29
sg18
S'Wed, 13 May 2015 03:37:47 UTC'
p1519
sg20
S'-0%'
p1520
sg22
g1517
sg23
I2
sa(dp1521
g3
I81526681
sg4
g447
sg6
I223383
sg7
g1511
sg9
g1511
sg10
VNew YACAGOLD15BStDc2Q18n
p1522
sg12
Vhttp://52.8.24.90discount_code/?code=New YACAGOLD15BStDc2Q18n
p1523
sg14
g450
sg16
g451
sg18
S'Wed, 13 May 2015 03:37:47 UTC'
p1524
sg20
S'-0%'
p1525
sg22
g1522
sg23
I1
sa(dp1526
g3
I81526695
sg4
g439
sg6
I223384
sg7
S'Academic - Silver'
p1527
sg9
g1527
sg10
VColumACASIL15BFacR2Q19b
p1528
sg12
Vhttp://52.8.24.90discount_code/?code=ColumACASIL15BFacR2Q19b
p1529
sg14
g442
sg16
g443
sg18
S'Wed, 13 May 2015 03:38:05 UTC'
p1530
sg20
S'-0%'
p1531
sg22
g1528
sg23
I2
sa(dp1532
g3
I81526695
sg4
g447
sg6
I223384
sg7
g1527
sg9
g1527
sg10
VColumACASIL15BStDc2Q19b
p1533
sg12
Vhttp://52.8.24.90discount_code/?code=ColumACASIL15BStDc2Q19b
p1534
sg14
g450
sg16
g451
sg18
S'Wed, 13 May 2015 03:38:05 UTC'
p1535
sg20
S'-0%'
p1536
sg22
g1533
sg23
I1
sa(dp1537
g3
I81526695
sg4
g25
sg6
I223384
sg7
g1527
sg9
g1527
sg10
VColumACASIL15BBoSR2Q19b
p1538
sg12
Vhttp://52.8.24.90discount_code/?code=ColumACASIL15BBoSR2Q19b
p1539
sg14
g28
sg16
g29
sg18
S'Wed, 13 May 2015 03:38:05 UTC'
p1540
sg20
S'-0%'
p1541
sg22
g1538
sg23
I3
sa(dp1542
g3
I81532271
sg4
g25
sg6
I223381
sg7
S'Corporate - Gold'
p1543
sg9
g1543
sg10
VOraclCGOLD15BBoSR2Q134
p1544
sg12
Vhttp://52.8.24.90discount_code/?code=OraclCGOLD15BBoSR2Q134
p1545
sg14
g28
sg16
g29
sg18
S'Wed, 13 May 2015 03:35:42 UTC'
p1546
sg20
S'-0%'
p1547
sg22
g1544
sg23
I2
sa(dp1548
g3
I81532271
sg4
g5
sg6
I223381
sg7
g1543
sg9
g1543
sg10
VOraclCGOLD15BGenR2Q134
p1549
sg12
Vhttp://52.8.24.90discount_code/?code=OraclCGOLD15BGenR2Q134
p1550
sg14
g15
sg16
g17
sg18
S'Wed, 13 May 2015 03:35:42 UTC'
p1551
sg20
S'-0%'
p1552
sg22
g1549
sg23
I5
sa(dp1553
g3
I81556060
sg4
g25
sg6
I223384
sg7
S'Academic - Silver'
p1554
sg9
g1554
sg10
VHassoACASIL15BBoSR2Q197
p1555
sg12
Vhttp://52.8.24.90discount_code/?code=HassoACASIL15BBoSR2Q197
p1556
sg14
g28
sg16
g29
sg18
S'Wed, 13 May 2015 03:37:55 UTC'
p1557
sg20
S'-0%'
p1558
sg22
g1555
sg23
I3
sa(dp1559
g3
I81556060
sg4
g447
sg6
I223384
sg7
g1554
sg9
g1554
sg10
VHassoACASIL15BStDc2Q197
p1560
sg12
Vhttp://52.8.24.90discount_code/?code=HassoACASIL15BStDc2Q197
p1561
sg14
g450
sg16
g451
sg18
S'Wed, 13 May 2015 03:37:55 UTC'
p1562
sg20
S'-0%'
p1563
sg22
g1560
sg23
I1
sa(dp1564
g3
I81556060
sg4
g439
sg6
I223384
sg7
g1554
sg9
g1554
sg10
VHassoACASIL15BFacR2Q197
p1565
sg12
Vhttp://52.8.24.90discount_code/?code=HassoACASIL15BFacR2Q197
p1566
sg14
g442
sg16
g443
sg18
S'Wed, 13 May 2015 03:37:55 UTC'
p1567
sg20
S'-0%'
p1568
sg22
g1565
sg23
I2
sa(dp1569
g3
I81579382
sg4
g33
sg6
I227146
sg7
S'GHC Event Sponsorships and Enterprise Packages'
p1570
sg9
g1570
sg10
VRed H152Q1B3
p1571
sg12
Vhttp://52.8.24.90discount_code/?code=Red H152Q1B3
p1572
sg14
g37
sg16
g38
sg18
S'Wed, 13 May 2015 03:38:38 UTC'
p1573
sg20
S'-0%'
p1574
sg22
g1571
sg23
I2
sa(dp1575
g3
I81579619
sg4
g25
sg6
I223381
sg7
S'Corporate - Gold'
p1576
sg9
g1576
sg10
VRed HCGOLD15BBoSR2Q139
p1577
sg12
Vhttp://52.8.24.90discount_code/?code=Red HCGOLD15BBoSR2Q139
p1578
sg14
g28
sg16
g29
sg18
S'Wed, 13 May 2015 03:35:43 UTC'
p1579
sg20
S'-0%'
p1580
sg22
g1577
sg23
I2
sa(dp1581
g3
I81579619
sg4
g5
sg6
I223381
sg7
g1576
sg9
g1576
sg10
VRed HCGOLD15BGenR2Q139
p1582
sg12
Vhttp://52.8.24.90discount_code/?code=Red HCGOLD15BGenR2Q139
p1583
sg14
g15
sg16
g17
sg18
S'Wed, 13 May 2015 03:35:43 UTC'
p1584
sg20
S'-0%'
p1585
sg22
g1582
sg23
I5
sa(dp1586
g3
I81595325
sg4
g25
sg6
I223384
sg7
S'Academic - Silver'
p1587
sg9
g1587
sg10
VUniveACASIL15BBoSR2Q19g
p1588
sg12
Vhttp://52.8.24.90discount_code/?code=UniveACASIL15BBoSR2Q19g
p1589
sg14
g28
sg16
g29
sg18
S'Wed, 13 May 2015 03:38:07 UTC'
p1590
sg20
S'-0%'
p1591
sg22
g1588
sg23
I3
sa(dp1592
g3
I81595325
sg4
g439
sg6
I223384
sg7
g1587
sg9
g1587
sg10
VUniveACASIL15BFacR2Q19g
p1593
sg12
Vhttp://52.8.24.90discount_code/?code=UniveACASIL15BFacR2Q19g
p1594
sg14
g442
sg16
g443
sg18
S'Wed, 13 May 2015 03:38:07 UTC'
p1595
sg20
S'-0%'
p1596
sg22
g1593
sg23
I2
sa(dp1597
g3
I81595325
sg4
g447
sg6
I223384
sg7
g1587
sg9
g1587
sg10
VUniveACASIL15BStDc2Q19g
p1598
sg12
Vhttp://52.8.24.90discount_code/?code=UniveACASIL15BStDc2Q19g
p1599
sg14
g450
sg16
g451
sg18
S'Wed, 13 May 2015 03:38:07 UTC'
p1600
sg20
S'-0%'
p1601
sg22
g1598
sg23
I1
sa(dp1602
g3
I81602634
sg4
g439
sg6
I223385
sg7
S'Academic - Bronze'
p1603
sg9
g1603
sg10
VDeparACABRZ15BFacR2Q1AF
p1604
sg12
Vhttp://52.8.24.90discount_code/?code=DeparACABRZ15BFacR2Q1AF
p1605
sg14
g442
sg16
g443
sg18
S'Wed, 13 May 2015 03:38:20 UTC'
p1606
sg20
S'-0%'
p1607
sg22
g1604
sg23
I1
sa(dp1608
g3
I81602634
sg4
g447
sg6
I223385
sg7
g1603
sg9
g1603
sg10
VDeparACABRZ15BStDc2Q1AF
p1609
sg12
Vhttp://52.8.24.90discount_code/?code=DeparACABRZ15BStDc2Q1AF
p1610
sg14
g450
sg16
g451
sg18
S'Wed, 13 May 2015 03:38:20 UTC'
p1611
sg20
S'-0%'
p1612
sg22
g1609
sg23
I1
sa(dp1613
g3
I81604560
sg4
g5
sg6
I223382
sg7
S'Corporate - Silver'
p1614
sg9
g1614
sg10
VPremiCSIL15BGenR2Q16S
p1615
sg12
Vhttp://52.8.24.90discount_code/?code=PremiCSIL15BGenR2Q16S
p1616
sg14
g15
sg16
g17
sg18
S'Wed, 13 May 2015 03:36:53 UTC'
p1617
sg20
S'-0%'
p1618
sg22
g1615
sg23
I3
sa(dp1619
g3
I81604560
sg4
g25
sg6
I223382
sg7
g1614
sg9
g1614
sg10
VPremiCSIL15BBoSR2Q16S
p1620
sg12
Vhttp://52.8.24.90discount_code/?code=PremiCSIL15BBoSR2Q16S
p1621
sg14
g28
sg16
g29
sg18
S'Wed, 13 May 2015 03:36:53 UTC'
p1622
sg20
S'-0%'
p1623
sg22
g1620
sg23
I3
sa(dp1624
g3
I81604792
sg4
g25
sg6
I223383
sg7
S'Academic - Gold'
p1625
sg9
g1625
sg10
VGeorgACAGOLD15BBoSR2Q18s
p1626
sg12
Vhttp://52.8.24.90discount_code/?code=GeorgACAGOLD15BBoSR2Q18s
p1627
sg14
g28
sg16
g29
sg18
S'Wed, 13 May 2015 03:37:49 UTC'
p1628
sg20
S'-0%'
p1629
sg22
g1626
sg23
I2
sa(dp1630
g3
I81604792
sg4
g439
sg6
I223383
sg7
g1625
sg9
g1625
sg10
VGeorgACAGOLD15BFacR2Q18s
p1631
sg12
Vhttp://52.8.24.90discount_code/?code=GeorgACAGOLD15BFacR2Q18s
p1632
sg14
g442
sg16
g443
sg18
S'Wed, 13 May 2015 03:37:49 UTC'
p1633
sg20
S'-0%'
p1634
sg22
g1631
sg23
I3
sa(dp1635
g3
I81604792
sg4
g447
sg6
I223383
sg7
g1625
sg9
g1625
sg10
VGeorgACAGOLD15BStDc2Q18s
p1636
sg12
Vhttp://52.8.24.90discount_code/?code=GeorgACAGOLD15BStDc2Q18s
p1637
sg14
g450
sg16
g451
sg18
S'Wed, 13 May 2015 03:37:49 UTC'
p1638
sg20
S'-0%'
p1639
sg22
g1636
sg23
I1
sa(dp1640
g3
I81605421
sg4
g5
sg6
I223381
sg7
S'Corporate - Gold'
p1641
sg9
g1641
sg10
VAOLCGOLD15BGenR2Q13A
p1642
sg12
Vhttp://52.8.24.90discount_code/?code=AOLCGOLD15BGenR2Q13A
p1643
sg14
g15
sg16
g17
sg18
S'Wed, 13 May 2015 03:35:45 UTC'
p1644
sg20
S'-0%'
p1645
sg22
g1642
sg23
I5
sa(dp1646
g3
I81605421
sg4
g25
sg6
I223381
sg7
g1641
sg9
g1641
sg10
VAOLCGOLD15BBoSR2Q13A
p1647
sg12
Vhttp://52.8.24.90discount_code/?code=AOLCGOLD15BBoSR2Q13A
p1648
sg14
g28
sg16
g29
sg18
S'Wed, 13 May 2015 03:35:45 UTC'
p1649
sg20
S'-0%'
p1650
sg22
g1647
sg23
I2
sa(dp1651
g3
I80330099
sg4
g5
sg6
I223381
sg7
S'Corporate - Gold'
p1652
sg9
g1652
sg10
VBloomCGOLD15BGenR2Q13s
p1653
sg12
Vhttp://52.8.24.90discount_code/?code=BloomCGOLD15BGenR2Q13s
p1654
sg14
g15
sg16
g17
sg18
S'Wed, 13 May 2015 03:35:57 UTC'
p1655
sg20
S'-0%'
p1656
sg22
g1653
sg23
I5
sa(dp1657
g3
I80330099
sg4
g25
sg6
I223381
sg7
g1652
sg9
g1652
sg10
VBloomCGOLD15BBoSR2Q13s
p1658
sg12
Vhttp://52.8.24.90discount_code/?code=BloomCGOLD15BBoSR2Q13s
p1659
sg14
g28
sg16
g29
sg18
S'Wed, 13 May 2015 03:35:57 UTC'
p1660
sg20
S'-0%'
p1661
sg22
g1658
sg23
I2
sa.