(lp1
(dp2
S'SponsorID'
p3
I77845613
sS'regonline_str'
p4
S'-0%'
p5
sS'RegistrationType'
p6
S'Corporate - Gold'
p7
sS'RegTypeID'
p8
I223381
sS'badge_type'
p9
S'general_full'
p10
sS'created_date'
p11
S'Wed, 13 May 2015 03:36:37 UTC'
p12
sS'code_source'
p13
g7
sS'ID'
p14
VAccenCGOLD15BGenR2Q15o
p15
sS'discount_code'
p16
g15
sS'quantity'
p17
I5
sa(dp18
g3
I77845613
sg4
S'-0%'
p19
sg6
g7
sg8
I223381
sg9
S'booth'
p20
sg11
S'Wed, 13 May 2015 03:36:37 UTC'
p21
sg13
g7
sg14
VAccenCGOLD15BBoSR2Q15o
p22
sg16
g22
sg17
I2
sa(dp23
g3
I77845651
sg4
S'-0%'
p24
sg6
S'ABI Partners Only - Diamond'
p25
sg8
I223379
sg9
S'general_1'
p26
sg11
S'Wed, 13 May 2015 03:34:55 UTC'
p27
sg13
g25
sg14
VCapit152Q118
p28
sg16
g28
sg17
I1
sa(dp29
g3
I77845651
sg4
S'-0%'
p30
sg6
g25
sg8
I223379
sg9
g10
sg11
S'Wed, 13 May 2015 03:34:55 UTC'
p31
sg13
g25
sg14
VCapitDIA15BGenR2Q118
p32
sg16
g32
sg17
I20
sa(dp33
g3
I77845651
sg4
S'-0%'
p34
sg6
g25
sg8
I223379
sg9
g20
sg11
S'Wed, 13 May 2015 03:34:55 UTC'
p35
sg13
g25
sg14
VCapitDIA15BBoSR2Q118
p36
sg16
g36
sg17
I8
sa(dp37
g3
I77845651
sg4
S'-0%'
p38
sg6
g25
sg8
I223379
sg9
g10
sg11
S'Wed, 13 May 2015 03:34:55 UTC'
p39
sg13
g25
sg14
VCapit1510DGenR2Q118
p40
sg16
g40
sg17
I120
sa(dp41
g3
I77859939
sg4
S'-0%'
p42
sg6
S'Corporate - Gold'
p43
sg8
I223381
sg9
g10
sg11
S'Wed, 13 May 2015 03:36:39 UTC'
p44
sg13
g43
sg14
VBoxCGOLD15BGenR2Q15k
p45
sg16
g45
sg17
I5
sa(dp46
g3
I77859939
sg4
S'-0%'
p47
sg6
g43
sg8
I223381
sg9
g20
sg11
S'Wed, 13 May 2015 03:36:39 UTC'
p48
sg13
g43
sg14
VBoxCGOLD15BBoSR2Q15k
p49
sg16
g49
sg17
I2
sa(dp50
g3
I77866379
sg4
S'-0%'
p51
sg6
S'Corporate - Silver'
p52
sg8
I223382
sg9
g10
sg11
S'Wed, 13 May 2015 03:36:54 UTC'
p53
sg13
g52
sg14
VMongoCSIL15BGenR2Q16X
p54
sg16
g54
sg17
I3
sa(dp55
g3
I77866379
sg4
S'-0%'
p56
sg6
g52
sg8
I223382
sg9
g20
sg11
S'Wed, 13 May 2015 03:36:54 UTC'
p57
sg13
g52
sg14
VMongoCSIL15BBoSR2Q16X
p58
sg16
g58
sg17
I3
sa(dp59
g3
I77874390
sg4
S'-0%'
p60
sg6
S'Corporate - Gold'
p61
sg8
I223381
sg9
g10
sg11
S'Wed, 13 May 2015 03:36:40 UTC'
p62
sg13
g61
sg14
VGE SoCGOLD15BGenR2Q14m
p63
sg16
g63
sg17
I5
sa(dp64
g3
I77874390
sg4
S'-0%'
p65
sg6
g61
sg8
I223381
sg9
g20
sg11
S'Wed, 13 May 2015 03:36:40 UTC'
p66
sg13
g61
sg14
VGE SoCGOLD15BBoSR2Q14m
p67
sg16
g67
sg17
I2
sa(dp68
g3
I77902004
sg4
S'-0%'
p69
sg6
S'Corporate - Gold'
p70
sg8
I223381
sg9
g10
sg11
S'Wed, 13 May 2015 03:36:42 UTC'
p71
sg13
g70
sg14
VPalanCGOLD15BGenR2Q15t
p72
sg16
g72
sg17
I5
sa(dp73
g3
I77902004
sg4
S'-0%'
p74
sg6
g70
sg8
I223381
sg9
g20
sg11
S'Wed, 13 May 2015 03:36:42 UTC'
p75
sg13
g70
sg14
VPalanCGOLD15BBoSR2Q15t
p76
sg16
g76
sg17
I2
sa(dp77
g3
I77904414
sg4
S'-0%'
p78
sg6
S'ABI Partners Only - Platinum'
p79
sg8
I223380
sg9
g10
sg11
S'Wed, 13 May 2015 03:35:00 UTC'
p80
sg13
g79
sg14
VEMCPLAT15BGenR2Q11I
p81
sg16
g81
sg17
I10
sa(dp82
g3
I77904414
sg4
S'-0%'
p83
sg6
g79
sg8
I223380
sg9
g20
sg11
S'Wed, 13 May 2015 03:35:00 UTC'
p84
sg13
g79
sg14
VEMCPLAT15BBoSR2Q11I
p85
sg16
g85
sg17
I8
sa(dp86
g3
I77904414
sg4
S'-0%'
p87
sg6
g79
sg8
I223380
sg9
g10
sg11
S'Wed, 13 May 2015 03:35:00 UTC'
p88
sg13
g79
sg14
VEMC1510DGenR2Q11I
p89
sg16
g89
sg17
I10
sa(dp90
g3
I77928319
sg4
S'-0%'
p91
sg6
S'Corporate - Gold'
p92
sg8
I223381
sg9
g10
sg11
S'Wed, 13 May 2015 03:36:43 UTC'
p93
sg13
g92
sg14
VMorgaCGOLD15BGenR2Q15y
p94
sg16
g94
sg17
I5
sa(dp95
g3
I77928319
sg4
S'-0%'
p96
sg6
g92
sg8
I223381
sg9
g20
sg11
S'Wed, 13 May 2015 03:36:43 UTC'
p97
sg13
g92
sg14
VMorgaCGOLD15BBoSR2Q15y
p98
sg16
g98
sg17
I2
sa(dp99
g3
I78012105
sg4
S'-0%'
p100
sg6
S'Corporate - Gold'
p101
sg8
I223381
sg9
g10
sg11
S'Wed, 13 May 2015 03:36:45 UTC'
p102
sg13
g101
sg14
VMacysCGOLD15BGenR2Q163
p103
sg16
g103
sg17
I5
sa(dp104
g3
I78012105
sg4
S'-0%'
p105
sg6
g101
sg8
I223381
sg9
g20
sg11
S'Wed, 13 May 2015 03:36:45 UTC'
p106
sg13
g101
sg14
VMacysCGOLD15BBoSR2Q163
p107
sg16
g107
sg17
I2
sa(dp108
g3
I78012883
sg4
S'-0%'
p109
sg6
S'ABI Partners Only - Platinum'
p110
sg8
I223380
sg9
g26
sg11
S'Wed, 13 May 2015 03:35:02 UTC'
p111
sg13
g110
sg14
VJunip152Q11N
p112
sg16
g112
sg17
I1
sa(dp113
g3
I78012883
sg4
S'-0%'
p114
sg6
g110
sg8
I223380
sg9
g10
sg11
S'Wed, 13 May 2015 03:35:02 UTC'
p115
sg13
g110
sg14
VJunipPLAT15BGenR2Q11N
p116
sg16
g116
sg17
I10
sa(dp117
g3
I78012883
sg4
S'-0%'
p118
sg6
g110
sg8
I223380
sg9
g20
sg11
S'Wed, 13 May 2015 03:35:02 UTC'
p119
sg13
g110
sg14
VJunipPLAT15BBoSR2Q11N
p120
sg16
g120
sg17
I8
sa(dp121
g3
I78012883
sg4
S'-0%'
p122
sg6
g110
sg8
I223380
sg9
g26
sg11
S'Wed, 13 May 2015 03:35:02 UTC'
p123
sg13
g110
sg14
VJunip152Q11N
p124
sg16
g124
sg17
I2
sa(dp125
g3
I78021784
sg4
S'-0%'
p126
sg6
S'Corporate - Gold'
p127
sg8
I223381
sg9
g10
sg11
S'Wed, 13 May 2015 03:36:27 UTC'
p128
sg13
g127
sg14
VSquarCGOLD15BGenR2Q15K
p129
sg16
g129
sg17
I5
sa(dp130
g3
I78021784
sg4
S'-0%'
p131
sg6
g127
sg8
I223381
sg9
g20
sg11
S'Wed, 13 May 2015 03:36:27 UTC'
p132
sg13
g127
sg14
VSquarCGOLD15BBoSR2Q15K
p133
sg16
g133
sg17
I2
sa(dp134
g3
I78038806
sg4
S'-0%'
p135
sg6
S'Corporate - Gold'
p136
sg8
I223381
sg9
g10
sg11
S'Wed, 13 May 2015 03:35:46 UTC'
p137
sg13
g136
sg14
VJohnsCGOLD15BGenR2Q13E
p138
sg16
g138
sg17
I5
sa(dp139
g3
I78038806
sg4
S'-0%'
p140
sg6
g136
sg8
I223381
sg9
g20
sg11
S'Wed, 13 May 2015 03:35:46 UTC'
p141
sg13
g136
sg14
VJohnsCGOLD15BBoSR2Q13E
p142
sg16
g142
sg17
I2
sa(dp143
g3
I78187521
sg4
S'-0%'
p144
sg6
S'Corporate - Gold'
p145
sg8
I223381
sg9
g10
sg11
S'Wed, 13 May 2015 03:36:29 UTC'
p146
sg13
g145
sg14
VTraveCGOLD15BGenR2Q15P
p147
sg16
g147
sg17
I5
sa(dp148
g3
I78187521
sg4
S'-0%'
p149
sg6
g145
sg8
I223381
sg9
g20
sg11
S'Wed, 13 May 2015 03:36:29 UTC'
p150
sg13
g145
sg14
VTraveCGOLD15BBoSR2Q15P
p151
sg16
g151
sg17
I2
sa(dp152
g3
I78262005
sg4
S'-0%'
p153
sg6
S'Corporate - Silver'
p154
sg8
I223382
sg9
g10
sg11
S'Wed, 13 May 2015 03:37:35 UTC'
p155
sg13
g154
sg14
VKnewtCSIL15BGenR2Q18J
p156
sg16
g156
sg17
I3
sa(dp157
g3
I78262005
sg4
S'-0%'
p158
sg6
g154
sg8
I223382
sg9
g20
sg11
S'Wed, 13 May 2015 03:37:35 UTC'
p159
sg13
g154
sg14
VKnewtCSIL15BBoSR2Q18J
p160
sg16
g160
sg17
I3
sa(dp161
g3
I78262635
sg4
S'-0%'
p162
sg6
S'Corporate - Gold'
p163
sg8
I223381
sg9
g10
sg11
S'Wed, 13 May 2015 03:36:31 UTC'
p164
sg13
g163
sg14
VMailCCGOLD15BGenR2Q15U
p165
sg16
g165
sg17
I5
sa(dp166
g3
I78262635
sg4
S'-0%'
p167
sg6
g163
sg8
I223381
sg9
g20
sg11
S'Wed, 13 May 2015 03:36:31 UTC'
p168
sg13
g163
sg14
VMailCCGOLD15BBoSR2Q15U
p169
sg16
g169
sg17
I2
sa(dp170
g3
I78269185
sg4
S'-0%'
p171
sg6
S'Corporate - Silver'
p172
sg8
I223382
sg9
g10
sg11
S'Wed, 13 May 2015 03:37:37 UTC'
p173
sg13
g172
sg14
VD. E.CSIL15BGenR2Q18O
p174
sg16
g174
sg17
I3
sa(dp175
g3
I78269185
sg4
S'-0%'
p176
sg6
g172
sg8
I223382
sg9
g20
sg11
S'Wed, 13 May 2015 03:37:37 UTC'
p177
sg13
g172
sg14
VD. E.CSIL15BBoSR2Q18O
p178
sg16
g178
sg17
I3
sa(dp179
g3
I78412181
sg4
S'-0%'
p180
sg6
S'ABI Partners Only - Platinum'
p181
sg8
I223380
sg9
g10
sg11
S'Wed, 13 May 2015 03:35:04 UTC'
p182
sg13
g181
sg14
VNetApPLAT15BGenR2Q11S
p183
sg16
g183
sg17
I10
sa(dp184
g3
I78412181
sg4
S'-0%'
p185
sg6
g181
sg8
I223380
sg9
g20
sg11
S'Wed, 13 May 2015 03:35:04 UTC'
p186
sg13
g181
sg14
VNetApPLAT15BBoSR2Q11S
p187
sg16
g187
sg17
I8
sa(dp188
g3
I78465630
sg4
S'-0%'
p189
sg6
S'Corporate - Silver'
p190
sg8
I223382
sg9
g10
sg11
S'Wed, 13 May 2015 03:37:38 UTC'
p191
sg13
g190
sg14
VMarkLCSIL15BGenR2Q17M
p192
sg16
g192
sg17
I3
sa(dp193
g3
I78465630
sg4
S'-0%'
p194
sg6
g190
sg8
I223382
sg9
g20
sg11
S'Wed, 13 May 2015 03:37:38 UTC'
p195
sg13
g190
sg14
VMarkLCSIL15BBoSR2Q17M
p196
sg16
g196
sg17
I3
sa(dp197
g3
I78562705
sg4
S'-0%'
p198
sg6
S'ABI Partners Only - Platinum'
p199
sg8
I223380
sg9
g10
sg11
S'Wed, 13 May 2015 03:35:06 UTC'
p200
sg13
g199
sg14
VDropbPLAT15BGenR2Q11X
p201
sg16
g201
sg17
I10
sa(dp202
g3
I78562705
sg4
S'-0%'
p203
sg6
g199
sg8
I223380
sg9
g20
sg11
S'Wed, 13 May 2015 03:35:06 UTC'
p204
sg13
g199
sg14
VDropbPLAT15BBoSR2Q11X
p205
sg16
g205
sg17
I8
sa(dp206
g3
I78603554
sg4
S'-0%'
p207
sg6
S'Corporate - Gold'
p208
sg8
I223381
sg9
g10
sg11
S'Wed, 13 May 2015 03:36:32 UTC'
p209
sg13
g208
sg14
VNetSuCGOLD15BGenR2Q15Z
p210
sg16
g210
sg17
I5
sa(dp211
g3
I78603554
sg4
S'-0%'
p212
sg6
g208
sg8
I223381
sg9
g20
sg11
S'Wed, 13 May 2015 03:36:32 UTC'
p213
sg13
g208
sg14
VNetSuCGOLD15BBoSR2Q15Z
p214
sg16
g214
sg17
I2
sa(dp215
g3
I78623682
sg4
S'-0%'
p216
sg6
S'Corporate - Silver'
p217
sg8
I223382
sg9
g10
sg11
S'Wed, 13 May 2015 03:37:40 UTC'
p218
sg13
g217
sg14
VFireECSIL15BGenR2Q18T
p219
sg16
g219
sg17
I3
sa(dp220
g3
I78623682
sg4
S'-0%'
p221
sg6
g217
sg8
I223382
sg9
g20
sg11
S'Wed, 13 May 2015 03:37:40 UTC'
p222
sg13
g217
sg14
VFireECSIL15BBoSR2Q18T
p223
sg16
g223
sg17
I3
sa(dp224
g3
I78637801
sg4
S'-0%'
p225
sg6
S'Corporate - Silver'
p226
sg8
I223382
sg9
g10
sg11
S'Wed, 13 May 2015 03:37:42 UTC'
p227
sg13
g226
sg14
VBloomCSIL15BGenR2Q18Y
p228
sg16
g228
sg17
I3
sa(dp229
g3
I78637801
sg4
S'-0%'
p230
sg6
g226
sg8
I223382
sg9
g20
sg11
S'Wed, 13 May 2015 03:37:42 UTC'
p231
sg13
g226
sg14
VBloomCSIL15BBoSR2Q18Y
p232
sg16
g232
sg17
I3
sa(dp233
g3
I78731228
sg4
S'-0%'
p234
sg6
S'Corporate - Silver'
p235
sg8
I223382
sg9
g10
sg11
S'Wed, 13 May 2015 03:37:43 UTC'
p236
sg13
g235
sg14
VPURE CSIL15BGenR2Q18U
p237
sg16
g237
sg17
I3
sa(dp238
g3
I78731228
sg4
S'-0%'
p239
sg6
g235
sg8
I223382
sg9
g20
sg11
S'Wed, 13 May 2015 03:37:43 UTC'
p240
sg13
g235
sg14
VPURE CSIL15BBoSR2Q18U
p241
sg16
g241
sg17
I3
sa(dp242
g3
I78735834
sg4
S'-0%'
p243
sg6
S'Corporate - Gold'
p244
sg8
I223381
sg9
g10
sg11
S'Wed, 13 May 2015 03:36:34 UTC'
p245
sg13
g244
sg14
VSymanCGOLD15BGenR2Q15e
p246
sg16
g246
sg17
I5
sa(dp247
g3
I78735834
sg4
S'-0%'
p248
sg6
g244
sg8
I223381
sg9
g20
sg11
S'Wed, 13 May 2015 03:36:34 UTC'
p249
sg13
g244
sg14
VSymanCGOLD15BBoSR2Q15e
p250
sg16
g250
sg17
I2
sa(dp251
g3
I78943484
sg4
S'-0%'
p252
sg6
S'ABI Partners Only - Platinum'
p253
sg8
I223380
sg9
g10
sg11
S'Wed, 13 May 2015 03:35:27 UTC'
p254
sg13
g253
sg14
VIntelPLAT15BGenR2Q12Q
p255
sg16
g255
sg17
I10
sa(dp256
g3
I78943484
sg4
S'-0%'
p257
sg6
g253
sg8
I223380
sg9
g20
sg11
S'Wed, 13 May 2015 03:35:27 UTC'
p258
sg13
g253
sg14
VIntelPLAT15BBoSR2Q12Q
p259
sg16
g259
sg17
I8
sa(dp260
g3
I79019098
sg4
S'-0%'
p261
sg6
S'Corporate - Silver'
p262
sg8
I223382
sg9
g10
sg11
S'Wed, 13 May 2015 03:37:25 UTC'
p263
sg13
g262
sg14
VT. RoCSIL15BGenR2Q17p
p264
sg16
g264
sg17
I3
sa(dp265
g3
I79019098
sg4
S'-0%'
p266
sg6
g262
sg8
I223382
sg9
g20
sg11
S'Wed, 13 May 2015 03:37:25 UTC'
p267
sg13
g262
sg14
VT. RoCSIL15BBoSR2Q17p
p268
sg16
g268
sg17
I3
sa(dp269
g3
I79027154
sg4
S'-0%'
p270
sg6
S'Corporate - Silver'
p271
sg8
I223382
sg9
g10
sg11
S'Wed, 13 May 2015 03:37:27 UTC'
p272
sg13
g271
sg14
VHubSpCSIL15BGenR2Q17u
p273
sg16
g273
sg17
I3
sa(dp274
g3
I79027154
sg4
S'-0%'
p275
sg6
g271
sg8
I223382
sg9
g20
sg11
S'Wed, 13 May 2015 03:37:27 UTC'
p276
sg13
g271
sg14
VHubSpCSIL15BBoSR2Q17u
p277
sg16
g277
sg17
I3
sa(dp278
g3
I79043680
sg4
S'-0%'
p279
sg6
S'Corporate - Gold'
p280
sg8
I223381
sg9
g10
sg11
S'Wed, 13 May 2015 03:36:36 UTC'
p281
sg13
g280
sg14
VYelpCGOLD15BGenR2Q15j
p282
sg16
g282
sg17
I5
sa(dp283
g3
I79043680
sg4
S'-0%'
p284
sg6
g280
sg8
I223381
sg9
g20
sg11
S'Wed, 13 May 2015 03:36:36 UTC'
p285
sg13
g280
sg14
VYelpCGOLD15BBoSR2Q15j
p286
sg16
g286
sg17
I2
sa(dp287
g3
I79052836
sg4
S'-0%'
p288
sg6
S'Show Management'
p289
sg8
I226598
sg9
g26
sg11
S'Wed, 13 May 2015 03:38:23 UTC'
p290
sg13
g289
sg14
VAnita152Q1AP
p291
sg16
g291
sg17
I1
sa(dp292
g3
I79052836
sg4
S'-0%'
p293
sg6
g289
sg8
I226598
sg9
g26
sg11
S'Wed, 13 May 2015 03:38:23 UTC'
p294
sg13
g289
sg14
VAnita15TEF2Q1AP
p295
sg16
g295
sg17
I2
sa(dp296
g3
I79052836
sg4
S'-0%'
p297
sg6
g289
sg8
I226598
sg9
g26
sg11
S'Wed, 13 May 2015 03:38:23 UTC'
p298
sg13
g289
sg14
VAnita152Q1AP
p299
sg16
g299
sg17
I2
sa(dp300
g3
I79052836
sg4
S'-0%'
p301
sg6
g289
sg8
I226598
sg9
g26
sg11
S'Wed, 13 May 2015 03:38:23 UTC'
p302
sg13
g289
sg14
VAnita152Q1AP
p303
sg16
g303
sg17
I1
sa(dp304
g3
I79052836
sg4
S'-0%'
p305
sg6
g289
sg8
I226598
sg9
g26
sg11
S'Wed, 13 May 2015 03:38:23 UTC'
p306
sg13
g289
sg14
VAnita152Q1AP
p307
sg16
g307
sg17
I1
sa(dp308
g3
I79052836
sg4
S'-0%'
p309
sg6
g289
sg8
I226598
sg9
g26
sg11
S'Wed, 13 May 2015 03:38:23 UTC'
p310
sg13
g289
sg14
VAnita152Q1AP
p311
sg16
g311
sg17
I1
sa(dp312
g3
I79052836
sg4
S'-0%'
p313
sg6
g289
sg8
I226598
sg9
g26
sg11
S'Wed, 13 May 2015 03:38:23 UTC'
p314
sg13
g289
sg14
VAnita152Q1AP
p315
sg16
g315
sg17
I1
sa(dp316
g3
I79141580
sg4
S'-0%'
p317
sg6
S'Corporate - Gold'
p318
sg8
I223381
sg9
g10
sg11
S'Wed, 13 May 2015 03:36:18 UTC'
p319
sg13
g318
sg14
VSalesCGOLD15BGenR2Q14q
p320
sg16
g320
sg17
I5
sa(dp321
g3
I79141580
sg4
S'-0%'
p322
sg6
g318
sg8
I223381
sg9
g20
sg11
S'Wed, 13 May 2015 03:36:18 UTC'
p323
sg13
g318
sg14
VSalesCGOLD15BBoSR2Q14q
p324
sg16
g324
sg17
I2
sa(dp325
g3
I79141580
sg4
S'-0%'
p326
sg6
g318
sg8
I223381
sg9
g10
sg11
S'Wed, 13 May 2015 03:36:18 UTC'
p327
sg13
g318
sg14
VSales1510DGenR2Q14q
p328
sg16
g328
sg17
I20
sa(dp329
g3
I79177074
sg4
S'-0%'
p330
sg6
S'Lab & Non-Profit - Bronze'
p331
sg8
I226853
sg9
g10
sg11
S'Wed, 13 May 2015 03:38:29 UTC'
p332
sg13
g331
sg14
VBlackL&NBRZ15BGenR2Q1Af
p333
sg16
g333
sg17
I1
sa(dp334
g3
I79196510
sg4
S'-0%'
p335
sg6
S'Corporate - Gold'
p336
sg8
I223381
sg9
g10
sg11
S'Wed, 13 May 2015 03:36:19 UTC'
p337
sg13
g336
sg14
VStateCGOLD15BGenR2Q14v
p338
sg16
g338
sg17
I5
sa(dp339
g3
I79196510
sg4
S'-0%'
p340
sg6
g336
sg8
I223381
sg9
g20
sg11
S'Wed, 13 May 2015 03:36:19 UTC'
p341
sg13
g336
sg14
VStateCGOLD15BBoSR2Q14v
p342
sg16
g342
sg17
I2
sa(dp343
g3
I79208313
sg4
S'-0%'
p344
sg6
S'Corporate - Gold'
p345
sg8
I223381
sg9
g10
sg11
S'Wed, 13 May 2015 03:36:21 UTC'
p346
sg13
g345
sg14
VBNY MCGOLD15BGenR2Q150
p347
sg16
g347
sg17
I5
sa(dp348
g3
I79208313
sg4
S'-0%'
p349
sg6
g345
sg8
I223381
sg9
g20
sg11
S'Wed, 13 May 2015 03:36:21 UTC'
p350
sg13
g345
sg14
VBNY MCGOLD15BBoSR2Q150
p351
sg16
g351
sg17
I2
sa(dp352
g3
I79217975
sg4
S'-0%'
p353
sg6
S'ABI Partners Only - Platinum'
p354
sg8
I223380
sg9
g10
sg11
S'Wed, 13 May 2015 03:35:29 UTC'
p355
sg13
g354
sg14
VCA TePLAT15BGenR2Q12V
p356
sg16
g356
sg17
I10
sa(dp357
g3
I79217975
sg4
S'-0%'
p358
sg6
g354
sg8
I223380
sg9
g20
sg11
S'Wed, 13 May 2015 03:35:29 UTC'
p359
sg13
g354
sg14
VCA TePLAT15BBoSR2Q12V
p360
sg16
g360
sg17
I8
sa(dp361
g3
I79217975
sg4
S'-0%'
p362
sg6
g354
sg8
I223380
sg9
g26
sg11
S'Wed, 13 May 2015 03:35:29 UTC'
p363
sg13
g354
sg14
VCA Te152Q12V
p364
sg16
g364
sg17
I1
sa(dp365
g3
I79217975
sg4
S'-0%'
p366
sg6
g354
sg8
I223380
sg9
g10
sg11
S'Wed, 13 May 2015 03:35:29 UTC'
p367
sg13
g354
sg14
VCA Te1510DGenR2Q12V
p368
sg16
g368
sg17
I10
sa(dp369
g3
I79255748
sg4
S'-0%'
p370
sg6
S'Academic - Silver'
p371
sg8
I223384
sg9
g20
sg11
S'Wed, 13 May 2015 03:37:57 UTC'
p372
sg13
g371
sg14
VUT-DaACASIL15BBoSR2Q19C
p373
sg16
g373
sg17
I3
sa(dp374
g3
I79255748
sg4
S'-0%'
p375
sg6
g371
sg8
I223384
sg9
S'student_full'
p376
sg11
S'Wed, 13 May 2015 03:37:57 UTC'
p377
sg13
g371
sg14
VUT-DaACASIL15BStDc2Q19C
p378
sg16
g378
sg17
I1
sa(dp379
g3
I79255748
sg4
S'-0%'
p380
sg6
g371
sg8
I223384
sg9
S'academic_full'
p381
sg11
S'Wed, 13 May 2015 03:37:57 UTC'
p382
sg13
g371
sg14
VUT-DaACASIL15BFacR2Q19C
p383
sg16
g383
sg17
I2
sa(dp384
g3
I79348115
sg4
S'-0%'
p385
sg6
S'Corporate - Silver'
p386
sg8
I223382
sg9
g10
sg11
S'Wed, 13 May 2015 03:37:28 UTC'
p387
sg13
g386
sg14
VSearsCSIL15BGenR2Q17z
p388
sg16
g388
sg17
I3
sa(dp389
g3
I79348115
sg4
S'-0%'
p390
sg6
g386
sg8
I223382
sg9
g20
sg11
S'Wed, 13 May 2015 03:37:28 UTC'
p391
sg13
g386
sg14
VSearsCSIL15BBoSR2Q17z
p392
sg16
g392
sg17
I3
sa(dp393
g3
I79396333
sg4
S'-0%'
p394
sg6
S'Lab & Non-Profit - Gold'
p395
sg8
I226851
sg9
g10
sg11
S'Wed, 13 May 2015 03:38:25 UTC'
p396
sg13
g395
sg14
VMIT LL&NGOLD15BGenR2Q1AU
p397
sg16
g397
sg17
I3
sa(dp398
g3
I79402913
sg4
S'-0%'
p399
sg6
S'ABI Partners Only - Platinum'
p400
sg8
I223380
sg9
g10
sg11
S'Wed, 13 May 2015 03:35:32 UTC'
p401
sg13
g400
sg14
VBank PLAT15BGenR2Q12a
p402
sg16
g402
sg17
I10
sa(dp403
g3
I79402913
sg4
S'-0%'
p404
sg6
g400
sg8
I223380
sg9
g20
sg11
S'Wed, 13 May 2015 03:35:32 UTC'
p405
sg13
g400
sg14
VBank PLAT15BBoSR2Q12a
p406
sg16
g406
sg17
I8
sa(dp407
g3
I79402913
sg4
S'-0%'
p408
sg6
g400
sg8
I223380
sg9
g10
sg11
S'Wed, 13 May 2015 03:35:32 UTC'
p409
sg13
g400
sg14
VBank 1510DGenR2Q12a
p410
sg16
g410
sg17
I50
sa(dp411
g3
I79479575
sg4
S'-0%'
p412
sg6
S'ABI Partners Only - Platinum'
p413
sg8
I223380
sg9
g10
sg11
S'Wed, 13 May 2015 03:35:33 UTC'
p414
sg13
g413
sg14
VRacksPLAT15BGenR2Q12f
p415
sg16
g415
sg17
I10
sa(dp416
g3
I79479575
sg4
S'-0%'
p417
sg6
g413
sg8
I223380
sg9
g20
sg11
S'Wed, 13 May 2015 03:35:33 UTC'
p418
sg13
g413
sg14
VRacksPLAT15BBoSR2Q12f
p419
sg16
g419
sg17
I8
sa(dp420
g3
I79584463
sg4
S'-0%'
p421
sg6
S'Corporate - Gold'
p422
sg8
I223381
sg9
g10
sg11
S'Wed, 13 May 2015 03:36:23 UTC'
p423
sg13
g422
sg14
VCrediCGOLD15BGenR2Q155
p424
sg16
g424
sg17
I5
sa(dp425
g3
I79584463
sg4
S'-0%'
p426
sg6
g422
sg8
I223381
sg9
g20
sg11
S'Wed, 13 May 2015 03:36:23 UTC'
p427
sg13
g422
sg14
VCrediCGOLD15BBoSR2Q155
p428
sg16
g428
sg17
I2
sa(dp429
g3
I79599643
sg4
S'-0%'
p430
sg6
S'ABI Partners Only - Platinum'
p431
sg8
I223380
sg9
g26
sg11
S'Wed, 13 May 2015 03:35:35 UTC'
p432
sg13
g431
sg14
VThoms15TEF2Q12k
p433
sg16
g433
sg17
I1
sa(dp434
g3
I79599643
sg4
S'-0%'
p435
sg6
g431
sg8
I223380
sg9
g10
sg11
S'Wed, 13 May 2015 03:35:35 UTC'
p436
sg13
g431
sg14
VThomsPLAT15BGenR2Q12k
p437
sg16
g437
sg17
I10
sa(dp438
g3
I79599643
sg4
S'-0%'
p439
sg6
g431
sg8
I223380
sg9
g20
sg11
S'Wed, 13 May 2015 03:35:35 UTC'
p440
sg13
g431
sg14
VThomsPLAT15BBoSR2Q12k
p441
sg16
g441
sg17
I8
sa(dp442
g3
I79600826
sg4
S'-0%'
p443
sg6
S'Corporate - Gold'
p444
sg8
I223381
sg9
g10
sg11
S'Wed, 13 May 2015 03:36:24 UTC'
p445
sg13
g444
sg14
VAT&TCGOLD15BGenR2Q15A
p446
sg16
g446
sg17
I5
sa(dp447
g3
I79600826
sg4
S'-0%'
p448
sg6
g444
sg8
I223381
sg9
g20
sg11
S'Wed, 13 May 2015 03:36:24 UTC'
p449
sg13
g444
sg14
VAT&TCGOLD15BBoSR2Q15A
p450
sg16
g450
sg17
I2
sa(dp451
g3
I79609919
sg4
S'-0%'
p452
sg6
S'ABI Partners Only - Platinum'
p453
sg8
I223380
sg9
g10
sg11
S'Wed, 13 May 2015 03:35:37 UTC'
p454
sg13
g453
sg14
VVMwarPLAT15BGenR2Q12p
p455
sg16
g455
sg17
I10
sa(dp456
g3
I79609919
sg4
S'-0%'
p457
sg6
g453
sg8
I223380
sg9
g20
sg11
S'Wed, 13 May 2015 03:35:37 UTC'
p458
sg13
g453
sg14
VVMwarPLAT15BBoSR2Q12p
p459
sg16
g459
sg17
I8
sa(dp460
g3
I79699190
sg4
S'-0%'
p461
sg6
S'ABI Partners Only - Platinum'
p462
sg8
I223380
sg9
g10
sg11
S'Wed, 13 May 2015 03:35:18 UTC'
p463
sg13
g462
sg14
VLinkePLAT15BGenR2Q121
p464
sg16
g464
sg17
I10
sa(dp465
g3
I79699190
sg4
S'-0%'
p466
sg6
g462
sg8
I223380
sg9
g20
sg11
S'Wed, 13 May 2015 03:35:18 UTC'
p467
sg13
g462
sg14
VLinkePLAT15BBoSR2Q121
p468
sg16
g468
sg17
I8
sa(dp469
g3
I79781177
sg4
S'-0%'
p470
sg6
S'ABI Partners Only - Diamond'
p471
sg8
I223379
sg9
g10
sg11
S'Wed, 13 May 2015 03:34:52 UTC'
p472
sg13
g471
sg14
VCiscoDIA15BGenR2Q10y
p473
sg16
g473
sg17
I20
sa(dp474
g3
I79781177
sg4
S'-0%'
p475
sg6
g471
sg8
I223379
sg9
g20
sg11
S'Wed, 13 May 2015 03:34:52 UTC'
p476
sg13
g471
sg14
VCiscoDIA15BBoSR2Q10y
p477
sg16
g477
sg17
I8
sa(dp478
g3
I79788597
sg4
S'-0%'
p479
sg6
S'ABI Partners Only - Diamond'
p480
sg8
I223379
sg9
g10
sg11
S'Wed, 13 May 2015 03:34:54 UTC'
p481
sg13
g480
sg14
VAppleDIA15BGenR2Q113
p482
sg16
g482
sg17
I20
sa(dp483
g3
I79788597
sg4
S'-0%'
p484
sg6
g480
sg8
I223379
sg9
g20
sg11
S'Wed, 13 May 2015 03:34:54 UTC'
p485
sg13
g480
sg14
VAppleDIA15BBoSR2Q113
p486
sg16
g486
sg17
I8
sa(dp487
g3
I79831298
sg4
S'-0%'
p488
sg6
S'ABI Partners Only - Platinum'
p489
sg8
I223380
sg9
g10
sg11
S'Wed, 13 May 2015 03:35:19 UTC'
p490
sg13
g489
sg14
VFacebPLAT15BGenR2Q126
p491
sg16
g491
sg17
I10
sa(dp492
g3
I79831298
sg4
S'-0%'
p493
sg6
g489
sg8
I223380
sg9
g20
sg11
S'Wed, 13 May 2015 03:35:19 UTC'
p494
sg13
g489
sg14
VFacebPLAT15BBoSR2Q126
p495
sg16
g495
sg17
I8
sa(dp496
g3
I79831298
sg4
S'-0%'
p497
sg6
g489
sg8
I223380
sg9
g26
sg11
S'Wed, 13 May 2015 03:35:19 UTC'
p498
sg13
g489
sg14
VFaceb152Q126
p499
sg16
g499
sg17
I1
sa(dp500
g3
I79831591
sg4
S'-0%'
p501
sg6
S'Academic - Silver'
p502
sg8
I223384
sg9
g20
sg11
S'Wed, 13 May 2015 03:37:58 UTC'
p503
sg13
g502
sg14
VDuke ACASIL15BBoSR2Q19H
p504
sg16
g504
sg17
I3
sa(dp505
g3
I79831591
sg4
S'-0%'
p506
sg6
g502
sg8
I223384
sg9
g376
sg11
S'Wed, 13 May 2015 03:37:58 UTC'
p507
sg13
g502
sg14
VDuke ACASIL15BStDc2Q19H
p508
sg16
g508
sg17
I1
sa(dp509
g3
I79831591
sg4
S'-0%'
p510
sg6
g502
sg8
I223384
sg9
g381
sg11
S'Wed, 13 May 2015 03:37:58 UTC'
p511
sg13
g502
sg14
VDuke ACASIL15BFacR2Q19H
p512
sg16
g512
sg17
I2
sa(dp513
g3
I79855196
sg4
S'-0%'
p514
sg6
S'ABI Partners Only - Platinum'
p515
sg8
I223380
sg9
g10
sg11
S'Wed, 13 May 2015 03:35:21 UTC'
p516
sg13
g515
sg14
VHewlePLAT15BGenR2Q12B
p517
sg16
g517
sg17
I10
sa(dp518
g3
I79855196
sg4
S'-0%'
p519
sg6
g515
sg8
I223380
sg9
g20
sg11
S'Wed, 13 May 2015 03:35:21 UTC'
p520
sg13
g515
sg14
VHewlePLAT15BBoSR2Q12B
p521
sg16
g521
sg17
I8
sa(dp522
g3
I79855196
sg4
S'-0%'
p523
sg6
g515
sg8
I223380
sg9
g10
sg11
S'Wed, 13 May 2015 03:35:21 UTC'
p524
sg13
g515
sg14
VHewle1510DGenR2Q12B
p525
sg16
g525
sg17
I60
sa(dp526
g3
I79858835
sg4
S'-0%'
p527
sg6
S'ABI Partners Only - Diamond'
p528
sg8
I223379
sg9
g10
sg11
S'Wed, 13 May 2015 03:34:57 UTC'
p529
sg13
g528
sg14
VMicroDIA15BGenR2Q11D
p530
sg16
g530
sg17
I20
sa(dp531
g3
I79858835
sg4
S'-0%'
p532
sg6
g528
sg8
I223379
sg9
g20
sg11
S'Wed, 13 May 2015 03:34:57 UTC'
p533
sg13
g528
sg14
VMicroDIA15BBoSR2Q11D
p534
sg16
g534
sg17
I8
sa(dp535
g3
I79882696
sg4
S'-0%'
p536
sg6
S'Corporate - Silver'
p537
sg8
I223382
sg9
g10
sg11
S'Wed, 13 May 2015 03:37:30 UTC'
p538
sg13
g537
sg14
VFast CSIL15BGenR2Q184
p539
sg16
g539
sg17
I3
sa(dp540
g3
I79882696
sg4
S'-0%'
p541
sg6
g537
sg8
I223382
sg9
g20
sg11
S'Wed, 13 May 2015 03:37:30 UTC'
p542
sg13
g537
sg14
VFast CSIL15BBoSR2Q184
p543
sg16
g543
sg17
I3
sa(dp544
g3
I79884963
sg4
S'-0%'
p545
sg6
S'ABI Partners Only - Platinum'
p546
sg8
I223380
sg9
g10
sg11
S'Wed, 13 May 2015 03:35:23 UTC'
p547
sg13
g546
sg14
VQualcPLAT15BGenR2Q12G
p548
sg16
g548
sg17
I10
sa(dp549
g3
I79884963
sg4
S'-0%'
p550
sg6
g546
sg8
I223380
sg9
g20
sg11
S'Wed, 13 May 2015 03:35:23 UTC'
p551
sg13
g546
sg14
VQualcPLAT15BBoSR2Q12G
p552
sg16
g552
sg17
I8
sa(dp553
g3
I79884963
sg4
S'-0%'
p554
sg6
g546
sg8
I223380
sg9
g26
sg11
S'Wed, 13 May 2015 03:35:23 UTC'
p555
sg13
g546
sg14
VQualc152Q12G
p556
sg16
g556
sg17
I1
sa(dp557
g3
I79894238
sg4
S'-0%'
p558
sg6
S'Corporate - Gold'
p559
sg8
I223381
sg9
g10
sg11
S'Wed, 13 May 2015 03:36:26 UTC'
p560
sg13
g559
sg14
VBookiCGOLD15BGenR2Q15F
p561
sg16
g561
sg17
I5
sa(dp562
g3
I79894238
sg4
S'-0%'
p563
sg6
g559
sg8
I223381
sg9
g20
sg11
S'Wed, 13 May 2015 03:36:26 UTC'
p564
sg13
g559
sg14
VBookiCGOLD15BBoSR2Q15F
p565
sg16
g565
sg17
I2
sa(dp566
g3
I79951282
sg4
S'-0%'
p567
sg6
S'ABI Partners Only - Platinum'
p568
sg8
I223380
sg9
g10
sg11
S'Wed, 13 May 2015 03:35:24 UTC'
p569
sg13
g568
sg14
VMastePLAT15BGenR2Q12L
p570
sg16
g570
sg17
I10
sa(dp571
g3
I79951282
sg4
S'-0%'
p572
sg6
g568
sg8
I223380
sg9
g20
sg11
S'Wed, 13 May 2015 03:35:24 UTC'
p573
sg13
g568
sg14
VMastePLAT15BBoSR2Q12L
p574
sg16
g574
sg17
I8
sa(dp575
g3
I80018305
sg4
S'-0%'
p576
sg6
S'Corporate - Gold'
p577
sg8
I223381
sg9
g10
sg11
S'Wed, 13 May 2015 03:36:07 UTC'
p578
sg13
g577
sg14
VViaSaCGOLD15BGenR2Q14M
p579
sg16
g579
sg17
I5
sa(dp580
g3
I80018305
sg4
S'-0%'
p581
sg6
g577
sg8
I223381
sg9
g20
sg11
S'Wed, 13 May 2015 03:36:07 UTC'
p582
sg13
g577
sg14
VViaSaCGOLD15BBoSR2Q14M
p583
sg16
g583
sg17
I2
sa(dp584
g3
I80033203
sg4
S'-0%'
p585
sg6
S'Corporate - Gold'
p586
sg8
I223381
sg9
g10
sg11
S'Wed, 13 May 2015 03:36:09 UTC'
p587
sg13
g586
sg14
VMarkeCGOLD15BGenR2Q14R
p588
sg16
g588
sg17
I5
sa(dp589
g3
I80033203
sg4
S'-0%'
p590
sg6
g586
sg8
I223381
sg9
g20
sg11
S'Wed, 13 May 2015 03:36:09 UTC'
p591
sg13
g586
sg14
VMarkeCGOLD15BBoSR2Q14R
p592
sg16
g592
sg17
I2
sa(dp593
g3
I80133227
sg4
S'-0%'
p594
sg6
S'Academic - Silver'
p595
sg8
I223384
sg9
g20
sg11
S'Wed, 13 May 2015 03:38:00 UTC'
p596
sg13
g595
sg14
VNorthACASIL15BBoSR2Q19M
p597
sg16
g597
sg17
I3
sa(dp598
g3
I80133227
sg4
S'-0%'
p599
sg6
g595
sg8
I223384
sg9
g376
sg11
S'Wed, 13 May 2015 03:38:00 UTC'
p600
sg13
g595
sg14
VNorthACASIL15BStDc2Q19M
p601
sg16
g601
sg17
I1
sa(dp602
g3
I80133227
sg4
S'-0%'
p603
sg6
g595
sg8
I223384
sg9
g381
sg11
S'Wed, 13 May 2015 03:38:00 UTC'
p604
sg13
g595
sg14
VNorthACASIL15BFacR2Q19M
p605
sg16
g605
sg17
I2
sa(dp606
g3
I80138213
sg4
S'-0%'
p607
sg6
S'Academic - Bronze'
p608
sg8
I223385
sg9
g381
sg11
S'Wed, 13 May 2015 03:38:21 UTC'
p609
sg13
g608
sg14
VSteveACABRZ15BFacR2Q1AK
p610
sg16
g610
sg17
I1
sa(dp611
g3
I80138213
sg4
S'-0%'
p612
sg6
g608
sg8
I223385
sg9
g376
sg11
S'Wed, 13 May 2015 03:38:21 UTC'
p613
sg13
g608
sg14
VSteveACABRZ15BStDc2Q1AK
p614
sg16
g614
sg17
I1
sa(dp615
g3
I80144405
sg4
S'-0%'
p616
sg6
S'Corporate - Silver'
p617
sg8
I223382
sg9
g10
sg11
S'Wed, 13 May 2015 03:37:32 UTC'
p618
sg13
g617
sg14
VThumbCSIL15BGenR2Q189
p619
sg16
g619
sg17
I3
sa(dp620
g3
I80144405
sg4
S'-0%'
p621
sg6
g617
sg8
I223382
sg9
g20
sg11
S'Wed, 13 May 2015 03:37:32 UTC'
p622
sg13
g617
sg14
VThumbCSIL15BBoSR2Q189
p623
sg16
g623
sg17
I3
sa(dp624
g3
I80146318
sg4
S'-0%'
p625
sg6
S'Corporate - Gold'
p626
sg8
I223381
sg9
g10
sg11
S'Wed, 13 May 2015 03:36:11 UTC'
p627
sg13
g626
sg14
VTwittCGOLD15BGenR2Q14W
p628
sg16
g628
sg17
I5
sa(dp629
g3
I80146318
sg4
S'-0%'
p630
sg6
g626
sg8
I223381
sg9
g20
sg11
S'Wed, 13 May 2015 03:36:11 UTC'
p631
sg13
g626
sg14
VTwittCGOLD15BBoSR2Q14W
p632
sg16
g632
sg17
I2
sa(dp633
g3
I80166458
sg4
S'-0%'
p634
sg6
S'Corporate - Gold'
p635
sg8
I223381
sg9
g10
sg11
S'Wed, 13 May 2015 03:36:12 UTC'
p636
sg13
g635
sg14
VTripACGOLD15BGenR2Q14b
p637
sg16
g637
sg17
I5
sa(dp638
g3
I80166458
sg4
S'-0%'
p639
sg6
g635
sg8
I223381
sg9
g20
sg11
S'Wed, 13 May 2015 03:36:12 UTC'
p640
sg13
g635
sg14
VTripACGOLD15BBoSR2Q14b
p641
sg16
g641
sg17
I2
sa(dp642
g3
I80171568
sg4
S'-0%'
p643
sg6
S'Corporate - Silver'
p644
sg8
I223382
sg9
g10
sg11
S'Wed, 13 May 2015 03:37:34 UTC'
p645
sg13
g644
sg14
VAppirCSIL15BGenR2Q18E
p646
sg16
g646
sg17
I3
sa(dp647
g3
I80171568
sg4
S'-0%'
p648
sg6
g644
sg8
I223382
sg9
g20
sg11
S'Wed, 13 May 2015 03:37:34 UTC'
p649
sg13
g644
sg14
VAppirCSIL15BBoSR2Q18E
p650
sg16
g650
sg17
I3
sa(dp651
g3
I80173047
sg4
S'-0%'
p652
sg6
S'Corporate - Silver'
p653
sg8
I223382
sg9
g10
sg11
S'Wed, 13 May 2015 03:37:16 UTC'
p654
sg13
g653
sg14
VNorthCSIL15BGenR2Q17Q
p655
sg16
g655
sg17
I3
sa(dp656
g3
I80173047
sg4
S'-0%'
p657
sg6
g653
sg8
I223382
sg9
g20
sg11
S'Wed, 13 May 2015 03:37:16 UTC'
p658
sg13
g653
sg14
VNorthCSIL15BBoSR2Q17Q
p659
sg16
g659
sg17
I3
sa(dp660
g3
I80173980
sg4
S'-0%'
p661
sg6
S'Corporate - Silver'
p662
sg8
I223382
sg9
g10
sg11
S'Wed, 13 May 2015 03:37:17 UTC'
p663
sg13
g662
sg14
VOptimCSIL15BGenR2Q17V
p664
sg16
g664
sg17
I3
sa(dp665
g3
I80173980
sg4
S'-0%'
p666
sg6
g662
sg8
I223382
sg9
g20
sg11
S'Wed, 13 May 2015 03:37:17 UTC'
p667
sg13
g662
sg14
VOptimCSIL15BBoSR2Q17V
p668
sg16
g668
sg17
I3
sa(dp669
g3
I80216188
sg4
S'-0%'
p670
sg6
S'ABI Partners Only - Platinum'
p671
sg8
I223380
sg9
g10
sg11
S'Wed, 13 May 2015 03:35:26 UTC'
p672
sg13
g671
sg14
VAirbnPLAT15BGenR2Q12H
p673
sg16
g673
sg17
I10
sa(dp674
g3
I80216188
sg4
S'-0%'
p675
sg6
g671
sg8
I223380
sg9
g20
sg11
S'Wed, 13 May 2015 03:35:26 UTC'
p676
sg13
g671
sg14
VAirbnPLAT15BBoSR2Q12H
p677
sg16
g677
sg17
I8
sa(dp678
g3
I80219214
sg4
S'-0%'
p679
sg6
S'Corporate - Gold'
p680
sg8
I223381
sg9
g10
sg11
S'Wed, 13 May 2015 03:36:14 UTC'
p681
sg13
g680
sg14
VLiberCGOLD15BGenR2Q14g
p682
sg16
g682
sg17
I5
sa(dp683
g3
I80219214
sg4
S'-0%'
p684
sg6
g680
sg8
I223381
sg9
g20
sg11
S'Wed, 13 May 2015 03:36:14 UTC'
p685
sg13
g680
sg14
VLiberCGOLD15BBoSR2Q14g
p686
sg16
g686
sg17
I2
sa(dp687
g3
I80257688
sg4
S'-0%'
p688
sg6
S'Academic - Bronze'
p689
sg8
I223385
sg9
g381
sg11
S'Wed, 13 May 2015 03:38:09 UTC'
p690
sg13
g689
sg14
VUniveACABRZ15BFacR2Q19l
p691
sg16
g691
sg17
I1
sa(dp692
g3
I80257688
sg4
S'-0%'
p693
sg6
g689
sg8
I223385
sg9
g376
sg11
S'Wed, 13 May 2015 03:38:09 UTC'
p694
sg13
g689
sg14
VUniveACABRZ15BStDc2Q19l
p695
sg16
g695
sg17
I1
sa(dp696
g3
I80275681
sg4
S'-0%'
p697
sg6
S'Corporate - Gold'
p698
sg8
I223381
sg9
g10
sg11
S'Wed, 13 May 2015 03:36:16 UTC'
p699
sg13
g698
sg14
VMylanCGOLD15BGenR2Q14l
p700
sg16
g700
sg17
I5
sa(dp701
g3
I80275681
sg4
S'-0%'
p702
sg6
g698
sg8
I223381
sg9
g20
sg11
S'Wed, 13 May 2015 03:36:16 UTC'
p703
sg13
g698
sg14
VMylanCGOLD15BBoSR2Q14l
p704
sg16
g704
sg17
I2
sa(dp705
g3
I80282733
sg4
S'-0%'
p706
sg6
S'Corporate - Silver'
p707
sg8
I223382
sg9
g10
sg11
S'Wed, 13 May 2015 03:37:19 UTC'
p708
sg13
g707
sg14
VSamsuCSIL15BGenR2Q17a
p709
sg16
g709
sg17
I3
sa(dp710
g3
I80282733
sg4
S'-0%'
p711
sg6
g707
sg8
I223382
sg9
g20
sg11
S'Wed, 13 May 2015 03:37:19 UTC'
p712
sg13
g707
sg14
VSamsuCSIL15BBoSR2Q17a
p713
sg16
g713
sg17
I3
sa(dp714
g3
I80332293
sg4
S'-0%'
p715
sg6
S'Corporate - Gold'
p716
sg8
I223381
sg9
g10
sg11
S'Wed, 13 May 2015 03:35:59 UTC'
p717
sg13
g716
sg14
VZenPaCGOLD15BGenR2Q13x
p718
sg16
g718
sg17
I5
sa(dp719
g3
I80332293
sg4
S'-0%'
p720
sg6
g716
sg8
I223381
sg9
g20
sg11
S'Wed, 13 May 2015 03:35:59 UTC'
p721
sg13
g716
sg14
VZenPaCGOLD15BBoSR2Q13x
p722
sg16
g722
sg17
I2
sa(dp723
g3
I80376014
sg4
S'-0%'
p724
sg6
S'Corporate - Gold'
p725
sg8
I223381
sg9
g10
sg11
S'Wed, 13 May 2015 03:36:00 UTC'
p726
sg13
g725
sg14
VGroupCGOLD15BGenR2Q142
p727
sg16
g727
sg17
I5
sa(dp728
g3
I80376014
sg4
S'-0%'
p729
sg6
g725
sg8
I223381
sg9
g20
sg11
S'Wed, 13 May 2015 03:36:00 UTC'
p730
sg13
g725
sg14
VGroupCGOLD15BBoSR2Q142
p731
sg16
g731
sg17
I2
sa(dp732
g3
I80426701
sg4
S'-0%'
p733
sg6
S'Corporate - Gold'
p734
sg8
I223381
sg9
g10
sg11
S'Wed, 13 May 2015 03:36:02 UTC'
p735
sg13
g734
sg14
VBrainCGOLD15BGenR2Q147
p736
sg16
g736
sg17
I5
sa(dp737
g3
I80426701
sg4
S'-0%'
p738
sg6
g734
sg8
I223381
sg9
g20
sg11
S'Wed, 13 May 2015 03:36:02 UTC'
p739
sg13
g734
sg14
VBrainCGOLD15BBoSR2Q147
p740
sg16
g740
sg17
I2
sa(dp741
g3
I80458976
sg4
S'-0%'
p742
sg6
S'Corporate - Gold'
p743
sg8
I223381
sg9
g10
sg11
S'Wed, 13 May 2015 03:36:04 UTC'
p744
sg13
g743
sg14
VPwCCGOLD15BGenR2Q14C
p745
sg16
g745
sg17
I5
sa(dp746
g3
I80458976
sg4
S'-0%'
p747
sg6
g743
sg8
I223381
sg9
g20
sg11
S'Wed, 13 May 2015 03:36:04 UTC'
p748
sg13
g743
sg14
VPwCCGOLD15BBoSR2Q14C
p749
sg16
g749
sg17
I2
sa(dp750
g3
I80479404
sg4
S'-0%'
p751
sg6
S'Corporate - Silver'
p752
sg8
I223382
sg9
g10
sg11
S'Wed, 13 May 2015 03:37:20 UTC'
p753
sg13
g752
sg14
VSequoCSIL15BGenR2Q17f
p754
sg16
g754
sg17
I3
sa(dp755
g3
I80479404
sg4
S'-0%'
p756
sg6
g752
sg8
I223382
sg9
g20
sg11
S'Wed, 13 May 2015 03:37:20 UTC'
p757
sg13
g752
sg14
VSequoCSIL15BBoSR2Q17f
p758
sg16
g758
sg17
I3
sa(dp759
g3
I80535579
sg4
S'-0%'
p760
sg6
S'Corporate - Gold'
p761
sg8
I223381
sg9
g10
sg11
S'Wed, 13 May 2015 03:36:05 UTC'
p762
sg13
g761
sg14
VDeutsCGOLD15BGenR2Q14H
p763
sg16
g763
sg17
I5
sa(dp764
g3
I80535579
sg4
S'-0%'
p765
sg6
g761
sg8
I223381
sg9
g20
sg11
S'Wed, 13 May 2015 03:36:05 UTC'
p766
sg13
g761
sg14
VDeutsCGOLD15BBoSR2Q14H
p767
sg16
g767
sg17
I2
sa(dp768
g3
I80541412
sg4
S'-0%'
p769
sg6
S'Corporate - Silver'
p770
sg8
I223382
sg9
g10
sg11
S'Wed, 13 May 2015 03:37:22 UTC'
p771
sg13
g770
sg14
VDeloiCSIL15BGenR2Q151
p772
sg16
g772
sg17
I3
sa(dp773
g3
I80541412
sg4
S'-0%'
p774
sg6
g770
sg8
I223382
sg9
g20
sg11
S'Wed, 13 May 2015 03:37:22 UTC'
p775
sg13
g770
sg14
VDeloiCSIL15BBoSR2Q151
p776
sg16
g776
sg17
I3
sa(dp777
g3
I80544565
sg4
S'-0%'
p778
sg6
S'Corporate - Silver'
p779
sg8
I223382
sg9
g10
sg11
S'Wed, 13 May 2015 03:37:23 UTC'
p780
sg13
g779
sg14
VSpiceCSIL15BGenR2Q17k
p781
sg16
g781
sg17
I3
sa(dp782
g3
I80544565
sg4
S'-0%'
p783
sg6
g779
sg8
I223382
sg9
g20
sg11
S'Wed, 13 May 2015 03:37:23 UTC'
p784
sg13
g779
sg14
VSpiceCSIL15BBoSR2Q17k
p785
sg16
g785
sg17
I3
sa(dp786
g3
I80601987
sg4
S'-0%'
p787
sg6
S'Corporate - Silver'
p788
sg8
I223382
sg9
g10
sg11
S'Wed, 13 May 2015 03:37:06 UTC'
p789
sg13
g788
sg14
VFlatiCSIL15BGenR2Q176
p790
sg16
g790
sg17
I3
sa(dp791
g3
I80601987
sg4
S'-0%'
p792
sg6
g788
sg8
I223382
sg9
g20
sg11
S'Wed, 13 May 2015 03:37:06 UTC'
p793
sg13
g788
sg14
VFlatiCSIL15BBoSR2Q176
p794
sg16
g794
sg17
I3
sa(dp795
g3
I80605148
sg4
S'-0%'
p796
sg6
S'Academic - Gold'
p797
sg8
I223383
sg9
g20
sg11
S'Wed, 13 May 2015 03:37:45 UTC'
p798
sg13
g797
sg14
VPurduACAGOLD15BBoSR2Q18d
p799
sg16
g799
sg17
I2
sa(dp800
g3
I80605148
sg4
S'-0%'
p801
sg6
g797
sg8
I223383
sg9
g376
sg11
S'Wed, 13 May 2015 03:37:45 UTC'
p802
sg13
g797
sg14
VPurduACAGOLD15BStDc2Q18d
p803
sg16
g803
sg17
I1
sa(dp804
g3
I80605148
sg4
S'-0%'
p805
sg6
g797
sg8
I223383
sg9
g381
sg11
S'Wed, 13 May 2015 03:37:45 UTC'
p806
sg13
g797
sg14
VPurduACAGOLD15BFacR2Q18d
p807
sg16
g807
sg17
I3
sa(dp808
g3
I80614404
sg4
S'-0%'
p809
sg6
S'Lab & Non-Profit - Gold'
p810
sg8
I226851
sg9
g10
sg11
S'Wed, 13 May 2015 03:38:26 UTC'
p811
sg13
g810
sg14
VDigniL&NGOLD15BGenR2Q1AZ
p812
sg16
g812
sg17
I3
sa(dp813
g3
I80617786
sg4
S'-0%'
p814
sg6
S'Corporate - Silver'
p815
sg8
I223382
sg9
g10
sg11
S'Wed, 13 May 2015 03:37:07 UTC'
p816
sg13
g815
sg14
VUberCSIL15BGenR2Q17B
p817
sg16
g817
sg17
I3
sa(dp818
g3
I80617786
sg4
S'-0%'
p819
sg6
g815
sg8
I223382
sg9
g20
sg11
S'Wed, 13 May 2015 03:37:07 UTC'
p820
sg13
g815
sg14
VUberCSIL15BBoSR2Q17B
p821
sg16
g821
sg17
I3
sa(dp822
g3
I80649549
sg4
S'-0%'
p823
sg6
S'Corporate - Silver'
p824
sg8
I223382
sg9
g10
sg11
S'Wed, 13 May 2015 03:37:09 UTC'
p825
sg13
g824
sg14
VOpenTCSIL15BGenR2Q16s
p826
sg16
g826
sg17
I3
sa(dp827
g3
I80649549
sg4
S'-0%'
p828
sg6
g824
sg8
I223382
sg9
g20
sg11
S'Wed, 13 May 2015 03:37:09 UTC'
p829
sg13
g824
sg14
VOpenTCSIL15BBoSR2Q16s
p830
sg16
g830
sg17
I3
sa(dp831
g3
I80660768
sg4
S'-0%'
p832
sg6
S'Corporate - Silver'
p833
sg8
I223382
sg9
g10
sg11
S'Wed, 13 May 2015 03:37:11 UTC'
p834
sg13
g833
sg14
VHuluCSIL15BGenR2Q17G
p835
sg16
g835
sg17
I3
sa(dp836
g3
I80660768
sg4
S'-0%'
p837
sg6
g833
sg8
I223382
sg9
g20
sg11
S'Wed, 13 May 2015 03:37:11 UTC'
p838
sg13
g833
sg14
VHuluCSIL15BBoSR2Q17G
p839
sg16
g839
sg17
I3
sa(dp840
g3
I80666758
sg4
S'-0%'
p841
sg6
S'Corporate - Silver'
p842
sg8
I223382
sg9
g10
sg11
S'Wed, 13 May 2015 03:37:13 UTC'
p843
sg13
g842
sg14
VBrocaCSIL15BGenR2Q17L
p844
sg16
g844
sg17
I3
sa(dp845
g3
I80666758
sg4
S'-0%'
p846
sg6
g842
sg8
I223382
sg9
g20
sg11
S'Wed, 13 May 2015 03:37:13 UTC'
p847
sg13
g842
sg14
VBrocaCSIL15BBoSR2Q17L
p848
sg16
g848
sg17
I3
sa(dp849
g3
I80692237
sg4
S'-0%'
p850
sg6
S'Academic - Bronze'
p851
sg8
I223385
sg9
g381
sg11
S'Wed, 13 May 2015 03:38:10 UTC'
p852
sg13
g851
sg14
VBrownACABRZ15BFacR2Q19q
p853
sg16
g853
sg17
I1
sa(dp854
g3
I80692237
sg4
S'-0%'
p855
sg6
g851
sg8
I223385
sg9
g376
sg11
S'Wed, 13 May 2015 03:38:10 UTC'
p856
sg13
g851
sg14
VBrownACABRZ15BStDc2Q19q
p857
sg16
g857
sg17
I1
sa(dp858
g3
I80705093
sg4
S'-0%'
p859
sg6
S'Academic - Silver'
p860
sg8
I223384
sg9
g20
sg11
S'Wed, 13 May 2015 03:38:02 UTC'
p861
sg13
g860
sg14
VMITACASIL15BBoSR2Q19R
p862
sg16
g862
sg17
I3
sa(dp863
g3
I80705093
sg4
S'-0%'
p864
sg6
g860
sg8
I223384
sg9
g376
sg11
S'Wed, 13 May 2015 03:38:02 UTC'
p865
sg13
g860
sg14
VMITACASIL15BStDc2Q19R
p866
sg16
g866
sg17
I1
sa(dp867
g3
I80705093
sg4
S'-0%'
p868
sg6
g860
sg8
I223384
sg9
g381
sg11
S'Wed, 13 May 2015 03:38:02 UTC'
p869
sg13
g860
sg14
VMITACASIL15BFacR2Q19R
p870
sg16
g870
sg17
I2
sa(dp871
g3
I80710866
sg4
S'-0%'
p872
sg6
S'Corporate - Gold'
p873
sg8
I223381
sg9
g10
sg11
S'Wed, 13 May 2015 03:35:48 UTC'
p874
sg13
g873
sg14
VAtlasCGOLD15BGenR2Q13J
p875
sg16
g875
sg17
I5
sa(dp876
g3
I80710866
sg4
S'-0%'
p877
sg6
g873
sg8
I223381
sg9
g20
sg11
S'Wed, 13 May 2015 03:35:48 UTC'
p878
sg13
g873
sg14
VAtlasCGOLD15BBoSR2Q13J
p879
sg16
g879
sg17
I2
sa(dp880
g3
I80715877
sg4
S'-0%'
p881
sg6
S'Academic - Bronze'
p882
sg8
I223385
sg9
g381
sg11
S'Wed, 13 May 2015 03:38:12 UTC'
p883
sg13
g882
sg14
VUniveACABRZ15BFacR2Q19v
p884
sg16
g884
sg17
I1
sa(dp885
g3
I80715877
sg4
S'-0%'
p886
sg6
g882
sg8
I223385
sg9
g376
sg11
S'Wed, 13 May 2015 03:38:12 UTC'
p887
sg13
g882
sg14
VUniveACABRZ15BStDc2Q19v
p888
sg16
g888
sg17
I1
sa(dp889
g3
I80722918
sg4
S'-0%'
p890
sg6
S'Academic - Silver'
p891
sg8
I223384
sg9
g20
sg11
S'Wed, 13 May 2015 03:37:54 UTC'
p892
sg13
g891
sg14
VCalteACASIL15BBoSR2Q192
p893
sg16
g893
sg17
I3
sa(dp894
g3
I80722918
sg4
S'-0%'
p895
sg6
g891
sg8
I223384
sg9
g376
sg11
S'Wed, 13 May 2015 03:37:54 UTC'
p896
sg13
g891
sg14
VCalteACASIL15BStDc2Q192
p897
sg16
g897
sg17
I1
sa(dp898
g3
I80722918
sg4
S'-0%'
p899
sg6
g891
sg8
I223384
sg9
g381
sg11
S'Wed, 13 May 2015 03:37:54 UTC'
p900
sg13
g891
sg14
VCalteACASIL15BFacR2Q192
p901
sg16
g901
sg17
I2
sa(dp902
g3
I80723273
sg4
S'-0%'
p903
sg6
S'Corporate - Gold'
p904
sg8
I223381
sg9
g26
sg11
S'Wed, 13 May 2015 03:35:49 UTC'
p905
sg13
g904
sg14
VPrude152Q13O
p906
sg16
g906
sg17
I1
sa(dp907
g3
I80723273
sg4
S'-0%'
p908
sg6
g904
sg8
I223381
sg9
g10
sg11
S'Wed, 13 May 2015 03:35:49 UTC'
p909
sg13
g904
sg14
VPrudeCGOLD15BGenR2Q13O
p910
sg16
g910
sg17
I5
sa(dp911
g3
I80723273
sg4
S'-0%'
p912
sg6
g904
sg8
I223381
sg9
g20
sg11
S'Wed, 13 May 2015 03:35:49 UTC'
p913
sg13
g904
sg14
VPrudeCGOLD15BBoSR2Q13O
p914
sg16
g914
sg17
I2
sa(dp915
g3
I80724512
sg4
S'-0%'
p916
sg6
S'GHC Event Sponsorships and Enterprise Packages'
p917
sg8
I227146
sg9
g26
sg11
S'Wed, 13 May 2015 03:38:33 UTC'
p918
sg13
g917
sg14
VLockh152Q1Ao
p919
sg16
g919
sg17
I1
sa(dp920
g3
I80725493
sg4
S'-0%'
p921
sg6
S'Academic - Gold'
p922
sg8
I223383
sg9
g20
sg11
S'Wed, 13 May 2015 03:37:50 UTC'
p923
sg13
g922
sg14
VHarveACAGOLD15BBoSR2Q18o
p924
sg16
g924
sg17
I2
sa(dp925
g3
I80725493
sg4
S'-0%'
p926
sg6
g922
sg8
I223383
sg9
g376
sg11
S'Wed, 13 May 2015 03:37:50 UTC'
p927
sg13
g922
sg14
VHarveACAGOLD15BStDc2Q18o
p928
sg16
g928
sg17
I1
sa(dp929
g3
I80725493
sg4
S'-0%'
p930
sg6
g922
sg8
I223383
sg9
g381
sg11
S'Wed, 13 May 2015 03:37:50 UTC'
p931
sg13
g922
sg14
VHarveACAGOLD15BFacR2Q18o
p932
sg16
g932
sg17
I3
sa(dp933
g3
I80751863
sg4
S'-0%'
p934
sg6
S'Corporate - Gold'
p935
sg8
I223381
sg9
g10
sg11
S'Wed, 13 May 2015 03:35:51 UTC'
p936
sg13
g935
sg14
VAutodCGOLD15BGenR2Q13T
p937
sg16
g937
sg17
I5
sa(dp938
g3
I80751863
sg4
S'-0%'
p939
sg6
g935
sg8
I223381
sg9
g20
sg11
S'Wed, 13 May 2015 03:35:51 UTC'
p940
sg13
g935
sg14
VAutodCGOLD15BBoSR2Q13T
p941
sg16
g941
sg17
I2
sa(dp942
g3
I80757386
sg4
S'-0%'
p943
sg6
S'ABI Partners Only - Platinum'
p944
sg8
I223380
sg9
g10
sg11
S'Wed, 13 May 2015 03:35:08 UTC'
p945
sg13
g944
sg14
VIntuiPLAT15BGenR2Q11c
p946
sg16
g946
sg17
I10
sa(dp947
g3
I80757386
sg4
S'-0%'
p948
sg6
g944
sg8
I223380
sg9
g20
sg11
S'Wed, 13 May 2015 03:35:08 UTC'
p949
sg13
g944
sg14
VIntuiPLAT15BBoSR2Q11c
p950
sg16
g950
sg17
I8
sa(dp951
g3
I80757386
sg4
S'-0%'
p952
sg6
g944
sg8
I223380
sg9
g10
sg11
S'Wed, 13 May 2015 03:35:08 UTC'
p953
sg13
g944
sg14
VIntui1510DGenR2Q11c
p954
sg16
g954
sg17
I200
sa(dp955
g3
I80766185
sg4
S'-0%'
p956
sg6
S'ABI Partners Only - Platinum'
p957
sg8
I223380
sg9
g10
sg11
S'Wed, 13 May 2015 03:35:09 UTC'
p958
sg13
g957
sg14
VEricsPLAT15BGenR2Q11h
p959
sg16
g959
sg17
I10
sa(dp960
g3
I80766185
sg4
S'-0%'
p961
sg6
g957
sg8
I223380
sg9
g20
sg11
S'Wed, 13 May 2015 03:35:09 UTC'
p962
sg13
g957
sg14
VEricsPLAT15BBoSR2Q11h
p963
sg16
g963
sg17
I8
sa(dp964
g3
I80766185
sg4
S'-0%'
p965
sg6
g957
sg8
I223380
sg9
g10
sg11
S'Wed, 13 May 2015 03:35:09 UTC'
p966
sg13
g957
sg14
VErics1510DGenR2Q11h
p967
sg16
g967
sg17
I50
sa(dp968
g3
I80837474
sg4
S'-0%'
p969
sg6
S'Academic - Silver'
p970
sg8
I223384
sg9
g20
sg11
S'Wed, 13 May 2015 03:38:03 UTC'
p971
sg13
g970
sg14
VIU-ScACASIL15BBoSR2Q19W
p972
sg16
g972
sg17
I3
sa(dp973
g3
I80837474
sg4
S'-0%'
p974
sg6
g970
sg8
I223384
sg9
g376
sg11
S'Wed, 13 May 2015 03:38:03 UTC'
p975
sg13
g970
sg14
VIU-ScACASIL15BStDc2Q19W
p976
sg16
g976
sg17
I1
sa(dp977
g3
I80837474
sg4
S'-0%'
p978
sg6
g970
sg8
I223384
sg9
g381
sg11
S'Wed, 13 May 2015 03:38:03 UTC'
p979
sg13
g970
sg14
VIU-ScACASIL15BFacR2Q19W
p980
sg16
g980
sg17
I2
sa(dp981
g3
I80843521
sg4
S'-0%'
p982
sg6
S'Corporate - Silver'
p983
sg8
I223382
sg9
g10
sg11
S'Wed, 13 May 2015 03:37:14 UTC'
p984
sg13
g983
sg14
VOpoweCSIL15BGenR2Q14D
p985
sg16
g985
sg17
I3
sa(dp986
g3
I80843521
sg4
S'-0%'
p987
sg6
g983
sg8
I223382
sg9
g20
sg11
S'Wed, 13 May 2015 03:37:14 UTC'
p988
sg13
g983
sg14
VOpoweCSIL15BBoSR2Q14D
p989
sg16
g989
sg17
I3
sa(dp990
g3
I80907398
sg4
S'-0%'
p991
sg6
S'Academic - Bronze'
p992
sg8
I223385
sg9
g381
sg11
S'Wed, 13 May 2015 03:38:15 UTC'
p993
sg13
g992
sg14
VRocheACABRZ15BFacR2Q1A0
p994
sg16
g994
sg17
I1
sa(dp995
g3
I80907398
sg4
S'-0%'
p996
sg6
g992
sg8
I223385
sg9
g376
sg11
S'Wed, 13 May 2015 03:38:15 UTC'
p997
sg13
g992
sg14
VRocheACABRZ15BStDc2Q1A0
p998
sg16
g998
sg17
I1
sa(dp999
g3
I80951114
sg4
S'-0%'
p1000
sg6
S'Corporate - Silver'
p1001
sg8
I223382
sg9
g10
sg11
S'Wed, 13 May 2015 03:36:56 UTC'
p1002
sg13
g1001
sg14
VCimprCSIL15BGenR2Q16c
p1003
sg16
g1003
sg17
I3
sa(dp1004
g3
I80951114
sg4
S'-0%'
p1005
sg6
g1001
sg8
I223382
sg9
g20
sg11
S'Wed, 13 May 2015 03:36:56 UTC'
p1006
sg13
g1001
sg14
VCimprCSIL15BBoSR2Q16c
p1007
sg16
g1007
sg17
I3
sa(dp1008
g3
I80965581
sg4
S'-0%'
p1009
sg6
S'Corporate - Silver'
p1010
sg8
I223382
sg9
g10
sg11
S'Wed, 13 May 2015 03:36:57 UTC'
p1011
sg13
g1010
sg14
VStripCSIL15BGenR2Q16h
p1012
sg16
g1012
sg17
I3
sa(dp1013
g3
I80965581
sg4
S'-0%'
p1014
sg6
g1010
sg8
I223382
sg9
g20
sg11
S'Wed, 13 May 2015 03:36:57 UTC'
p1015
sg13
g1010
sg14
VStripCSIL15BBoSR2Q16h
p1016
sg16
g1016
sg17
I3
sa(dp1017
g3
I81051813
sg4
S'-0%'
p1018
sg6
S'ABI Partners Only - Platinum'
p1019
sg8
I223380
sg9
g10
sg11
S'Wed, 13 May 2015 03:35:11 UTC'
p1020
sg13
g1019
sg14
VYahooPLAT15BGenR2Q11T
p1021
sg16
g1021
sg17
I10
sa(dp1022
g3
I81051813
sg4
S'-0%'
p1023
sg6
g1019
sg8
I223380
sg9
g20
sg11
S'Wed, 13 May 2015 03:35:11 UTC'
p1024
sg13
g1019
sg14
VYahooPLAT15BBoSR2Q11T
p1025
sg16
g1025
sg17
I8
sa(dp1026
g3
I81051813
sg4
S'-0%'
p1027
sg6
g1019
sg8
I223380
sg9
g10
sg11
S'Wed, 13 May 2015 03:35:11 UTC'
p1028
sg13
g1019
sg14
VYahoo1510DGenR2Q11T
p1029
sg16
g1029
sg17
I130
sa(dp1030
g3
I81153506
sg4
S'-0%'
p1031
sg6
S'Corporate - Silver'
p1032
sg8
I223382
sg9
g10
sg11
S'Wed, 13 May 2015 03:36:59 UTC'
p1033
sg13
g1032
sg14
VLivinCSIL15BGenR2Q16m
p1034
sg16
g1034
sg17
I3
sa(dp1035
g3
I81153506
sg4
S'-0%'
p1036
sg6
g1032
sg8
I223382
sg9
g20
sg11
S'Wed, 13 May 2015 03:36:59 UTC'
p1037
sg13
g1032
sg14
VLivinCSIL15BBoSR2Q16m
p1038
sg16
g1038
sg17
I3
sa(dp1039
g3
I81203930
sg4
S'-0%'
p1040
sg6
S'Academic - Gold'
p1041
sg8
I223383
sg9
g20
sg11
S'Wed, 13 May 2015 03:37:46 UTC'
p1042
sg13
g1041
sg14
VMontaACAGOLD15BBoSR2Q18i
p1043
sg16
g1043
sg17
I2
sa(dp1044
g3
I81203930
sg4
S'-0%'
p1045
sg6
g1041
sg8
I223383
sg9
g376
sg11
S'Wed, 13 May 2015 03:37:46 UTC'
p1046
sg13
g1041
sg14
VMontaACAGOLD15BStDc2Q18i
p1047
sg16
g1047
sg17
I1
sa(dp1048
g3
I81203930
sg4
S'-0%'
p1049
sg6
g1041
sg8
I223383
sg9
g381
sg11
S'Wed, 13 May 2015 03:37:46 UTC'
p1050
sg13
g1041
sg14
VMontaACAGOLD15BFacR2Q18i
p1051
sg16
g1051
sg17
I3
sa(dp1052
g3
I81211137
sg4
S'-0%'
p1053
sg6
S'GHC Event Sponsorships and Enterprise Packages'
p1054
sg8
I227146
sg9
g26
sg11
S'Wed, 13 May 2015 03:38:34 UTC'
p1055
sg13
g1054
sg14
VAccen15SWLnch2Q1At
p1056
sg16
g1056
sg17
I1
sa(dp1057
g3
I81211467
sg4
S'-0%'
p1058
sg6
S'Corporate - Gold'
p1059
sg8
I223381
sg9
g10
sg11
S'Wed, 13 May 2015 03:35:52 UTC'
p1060
sg13
g1059
sg14
VFactSCGOLD15BGenR2Q13d
p1061
sg16
g1061
sg17
I5
sa(dp1062
g3
I81211467
sg4
S'-0%'
p1063
sg6
g1059
sg8
I223381
sg9
g20
sg11
S'Wed, 13 May 2015 03:35:53 UTC'
p1064
sg13
g1059
sg14
VFactSCGOLD15BBoSR2Q13d
p1065
sg16
g1065
sg17
I2
sa(dp1066
g3
I81219018
sg4
S'-0%'
p1067
sg6
S'Corporate - Silver'
p1068
sg8
I223382
sg9
g10
sg11
S'Wed, 13 May 2015 03:37:00 UTC'
p1069
sg13
g1068
sg14
VTableCSIL15BGenR2Q16r
p1070
sg16
g1070
sg17
I3
sa(dp1071
g3
I81219018
sg4
S'-0%'
p1072
sg6
g1068
sg8
I223382
sg9
g20
sg11
S'Wed, 13 May 2015 03:37:00 UTC'
p1073
sg13
g1068
sg14
VTableCSIL15BBoSR2Q16r
p1074
sg16
g1074
sg17
I3
sa(dp1075
g3
I81269116
sg4
S'-0%'
p1076
sg6
S'Corporate - Gold'
p1077
sg8
I223381
sg9
g10
sg11
S'Wed, 13 May 2015 03:35:54 UTC'
p1078
sg13
g1077
sg14
VQuoraCGOLD15BGenR2Q13i
p1079
sg16
g1079
sg17
I5
sa(dp1080
g3
I81269116
sg4
S'-0%'
p1081
sg6
g1077
sg8
I223381
sg9
g20
sg11
S'Wed, 13 May 2015 03:35:54 UTC'
p1082
sg13
g1077
sg14
VQuoraCGOLD15BBoSR2Q13i
p1083
sg16
g1083
sg17
I2
sa(dp1084
g3
I81277663
sg4
S'-0%'
p1085
sg6
S'GHC Event Sponsorships and Enterprise Packages'
p1086
sg8
I227146
sg9
g26
sg11
S'Wed, 13 May 2015 03:38:36 UTC'
p1087
sg13
g1086
sg14
VRMS152Q1Ay
p1088
sg16
g1088
sg17
I1
sa(dp1089
g3
I81294822
sg4
S'-0%'
p1090
sg6
S'Corporate - Silver'
p1091
sg8
I223382
sg9
g10
sg11
S'Wed, 13 May 2015 03:36:46 UTC'
p1092
sg13
g1091
sg14
VNatioCSIL15BGenR2Q168
p1093
sg16
g1093
sg17
I3
sa(dp1094
g3
I81294822
sg4
S'-0%'
p1095
sg6
g1091
sg8
I223382
sg9
g20
sg11
S'Wed, 13 May 2015 03:36:46 UTC'
p1096
sg13
g1091
sg14
VNatioCSIL15BBoSR2Q168
p1097
sg16
g1097
sg17
I3
sa(dp1098
g3
I81295016
sg4
S'-0%'
p1099
sg6
S'Corporate - Silver'
p1100
sg8
I223382
sg9
g10
sg11
S'Wed, 13 May 2015 03:36:48 UTC'
p1101
sg13
g1100
sg14
VNatioCSIL15BGenR2Q16D
p1102
sg16
g1102
sg17
I3
sa(dp1103
g3
I81295016
sg4
S'-0%'
p1104
sg6
g1100
sg8
I223382
sg9
g20
sg11
S'Wed, 13 May 2015 03:36:48 UTC'
p1105
sg13
g1100
sg14
VNatioCSIL15BBoSR2Q16D
p1106
sg16
g1106
sg17
I3
sa(dp1107
g3
I81303320
sg4
S'-0%'
p1108
sg6
S'Corporate - Silver'
p1109
sg8
I223382
sg9
g10
sg11
S'Wed, 13 May 2015 03:37:02 UTC'
p1110
sg13
g1109
sg14
VCerneCSIL15BGenR2Q16w
p1111
sg16
g1111
sg17
I3
sa(dp1112
g3
I81303320
sg4
S'-0%'
p1113
sg6
g1109
sg8
I223382
sg9
g20
sg11
S'Wed, 13 May 2015 03:37:02 UTC'
p1114
sg13
g1109
sg14
VCerneCSIL15BBoSR2Q16w
p1115
sg16
g1115
sg17
I3
sa(dp1116
g3
I81315890
sg4
S'-0%'
p1117
sg6
S'Corporate - Gold'
p1118
sg8
I223381
sg9
g10
sg11
S'Wed, 13 May 2015 03:35:55 UTC'
p1119
sg13
g1118
sg14
VTargeCGOLD15BGenR2Q13n
p1120
sg16
g1120
sg17
I5
sa(dp1121
g3
I81315890
sg4
S'-0%'
p1122
sg6
g1118
sg8
I223381
sg9
g20
sg11
S'Wed, 13 May 2015 03:35:55 UTC'
p1123
sg13
g1118
sg14
VTargeCGOLD15BBoSR2Q13n
p1124
sg16
g1124
sg17
I2
sa(dp1125
g3
I81322044
sg4
S'-0%'
p1126
sg6
S'Lab & Non-Profit - Silver'
p1127
sg8
I226852
sg9
g10
sg11
S'Wed, 13 May 2015 03:38:28 UTC'
p1128
sg13
g1127
sg14
VFreeBL&NSIL15BGenR2Q1Ae
p1129
sg16
g1129
sg17
I2
sa(dp1130
g3
I81332136
sg4
S'-0%'
p1131
sg6
S'Corporate - Silver'
p1132
sg8
I223382
sg9
g10
sg11
S'Wed, 13 May 2015 03:37:04 UTC'
p1133
sg13
g1132
sg14
VNVIDICSIL15BGenR2Q171
p1134
sg16
g1134
sg17
I3
sa(dp1135
g3
I81332136
sg4
S'-0%'
p1136
sg6
g1132
sg8
I223382
sg9
g20
sg11
S'Wed, 13 May 2015 03:37:04 UTC'
p1137
sg13
g1132
sg14
VNVIDICSIL15BBoSR2Q171
p1138
sg16
g1138
sg17
I3
sa(dp1139
g3
I81365703
sg4
S'-0%'
p1140
sg6
S'ABI Partners Only - Platinum'
p1141
sg8
I223380
sg9
g10
sg11
S'Wed, 13 May 2015 03:35:13 UTC'
p1142
sg13
g1141
sg14
VTwo SPLAT15BGenR2Q11m
p1143
sg16
g1143
sg17
I10
sa(dp1144
g3
I81365703
sg4
S'-0%'
p1145
sg6
g1141
sg8
I223380
sg9
g20
sg11
S'Wed, 13 May 2015 03:35:13 UTC'
p1146
sg13
g1141
sg14
VTwo SPLAT15BBoSR2Q11m
p1147
sg16
g1147
sg17
I8
sa(dp1148
g3
I81367464
sg4
S'-0%'
p1149
sg6
S'Academic - Bronze'
p1150
sg8
I223385
sg9
g381
sg11
S'Wed, 13 May 2015 03:38:16 UTC'
p1151
sg13
g1150
sg14
VIowa ACABRZ15BFacR2Q1A5
p1152
sg16
g1152
sg17
I1
sa(dp1153
g3
I81367464
sg4
S'-0%'
p1154
sg6
g1150
sg8
I223385
sg9
g376
sg11
S'Wed, 13 May 2015 03:38:16 UTC'
p1155
sg13
g1150
sg14
VIowa ACABRZ15BStDc2Q1A5
p1156
sg16
g1156
sg17
I1
sa(dp1157
g3
I81373609
sg4
S'-0%'
p1158
sg6
S'ABI Partners Only - Platinum'
p1159
sg8
I223380
sg9
g10
sg11
S'Wed, 13 May 2015 03:35:14 UTC'
p1160
sg13
g1159
sg14
VAmazoPLAT15BGenR2Q11r
p1161
sg16
g1161
sg17
I10
sa(dp1162
g3
I81373609
sg4
S'-0%'
p1163
sg6
g1159
sg8
I223380
sg9
g20
sg11
S'Wed, 13 May 2015 03:35:14 UTC'
p1164
sg13
g1159
sg14
VAmazoPLAT15BBoSR2Q11r
p1165
sg16
g1165
sg17
I8
sa(dp1166
g3
I81373609
sg4
S'-0%'
p1167
sg6
g1159
sg8
I223380
sg9
g10
sg11
S'Wed, 13 May 2015 03:35:14 UTC'
p1168
sg13
g1159
sg14
VAmazo1510DGenR2Q11r
p1169
sg16
g1169
sg17
I200
sa(dp1170
g3
I81398086
sg4
S'-0%'
p1171
sg6
S'Corporate - Silver'
p1172
sg8
I223382
sg9
g10
sg11
S'Wed, 13 May 2015 03:36:49 UTC'
p1173
sg13
g1172
sg14
VBlackCSIL15BGenR2Q16I
p1174
sg16
g1174
sg17
I3
sa(dp1175
g3
I81398086
sg4
S'-0%'
p1176
sg6
g1172
sg8
I223382
sg9
g20
sg11
S'Wed, 13 May 2015 03:36:49 UTC'
p1177
sg13
g1172
sg14
VBlackCSIL15BBoSR2Q16I
p1178
sg16
g1178
sg17
I3
sa(dp1179
g3
I81432405
sg4
S'-0%'
p1180
sg6
S'ABI Partners Only - Platinum'
p1181
sg8
I223380
sg9
g10
sg11
S'Wed, 13 May 2015 03:35:16 UTC'
p1182
sg13
g1181
sg14
VTHOUGPLAT15BGenR2Q11w
p1183
sg16
g1183
sg17
I10
sa(dp1184
g3
I81432405
sg4
S'-0%'
p1185
sg6
g1181
sg8
I223380
sg9
g20
sg11
S'Wed, 13 May 2015 03:35:16 UTC'
p1186
sg13
g1181
sg14
VTHOUGPLAT15BBoSR2Q11w
p1187
sg16
g1187
sg17
I8
sa(dp1188
g3
I81432405
sg4
S'-0%'
p1189
sg6
g1181
sg8
I223380
sg9
g10
sg11
S'Wed, 13 May 2015 03:35:16 UTC'
p1190
sg13
g1181
sg14
VTHOUG1510DGenR2Q11w
p1191
sg16
g1191
sg17
I30
sa(dp1192
g3
I81440743
sg4
S'-0%'
p1193
sg6
S'Academic - Gold'
p1194
sg8
I223383
sg9
g20
sg11
S'Wed, 13 May 2015 03:37:52 UTC'
p1195
sg13
g1194
sg14
VUSCACAGOLD15BBoSR2Q18x
p1196
sg16
g1196
sg17
I2
sa(dp1197
g3
I81440743
sg4
S'-0%'
p1198
sg6
g1194
sg8
I223383
sg9
g376
sg11
S'Wed, 13 May 2015 03:37:52 UTC'
p1199
sg13
g1194
sg14
VUSCACAGOLD15BStDc2Q18x
p1200
sg16
g1200
sg17
I1
sa(dp1201
g3
I81440743
sg4
S'-0%'
p1202
sg6
g1194
sg8
I223383
sg9
g381
sg11
S'Wed, 13 May 2015 03:37:52 UTC'
p1203
sg13
g1194
sg14
VUSCACAGOLD15BFacR2Q18x
p1204
sg16
g1204
sg17
I3
sa(dp1205
g3
I81447714
sg4
S'-0%'
p1206
sg6
S'Corporate - Gold'
p1207
sg8
I223381
sg9
g10
sg11
S'Wed, 13 May 2015 03:35:38 UTC'
p1208
sg13
g1207
sg14
VThe WCGOLD15BGenR2Q12u
p1209
sg16
g1209
sg17
I5
sa(dp1210
g3
I81447714
sg4
S'-0%'
p1211
sg6
g1207
sg8
I223381
sg9
g20
sg11
S'Wed, 13 May 2015 03:35:38 UTC'
p1212
sg13
g1207
sg14
VThe WCGOLD15BBoSR2Q12u
p1213
sg16
g1213
sg17
I2
sa(dp1214
g3
I81481281
sg4
S'-0%'
p1215
sg6
S'Corporate - Silver'
p1216
sg8
I223382
sg9
g10
sg11
S'Wed, 13 May 2015 03:36:51 UTC'
p1217
sg13
g1216
sg14
VLGS ICSIL15BGenR2Q16N
p1218
sg16
g1218
sg17
I3
sa(dp1219
g3
I81481281
sg4
S'-0%'
p1220
sg6
g1216
sg8
I223382
sg9
g20
sg11
S'Wed, 13 May 2015 03:36:51 UTC'
p1221
sg13
g1216
sg14
VLGS ICSIL15BBoSR2Q16N
p1222
sg16
g1222
sg17
I3
sa(dp1223
g3
I81484417
sg4
S'-0%'
p1224
sg6
S'Corporate - Gold'
p1225
sg8
I223381
sg9
g10
sg11
S'Wed, 13 May 2015 03:35:40 UTC'
p1226
sg13
g1225
sg14
VIBMCGOLD15BGenR2Q12z
p1227
sg16
g1227
sg17
I5
sa(dp1228
g3
I81484417
sg4
S'-0%'
p1229
sg6
g1225
sg8
I223381
sg9
g20
sg11
S'Wed, 13 May 2015 03:35:40 UTC'
p1230
sg13
g1225
sg14
VIBMCGOLD15BBoSR2Q12z
p1231
sg16
g1231
sg17
I2
sa(dp1232
g3
I81510483
sg4
S'-0%'
p1233
sg6
S'Academic - Bronze'
p1234
sg8
I223385
sg9
g381
sg11
S'Wed, 13 May 2015 03:38:18 UTC'
p1235
sg13
g1234
sg14
VSteveACABRZ15BFacR2Q1AA
p1236
sg16
g1236
sg17
I1
sa(dp1237
g3
I81510483
sg4
S'-0%'
p1238
sg6
g1234
sg8
I223385
sg9
g376
sg11
S'Wed, 13 May 2015 03:38:18 UTC'
p1239
sg13
g1234
sg14
VSteveACABRZ15BStDc2Q1AA
p1240
sg16
g1240
sg17
I1
sa(dp1241
g3
I81526681
sg4
S'-0%'
p1242
sg6
S'Academic - Gold'
p1243
sg8
I223383
sg9
g20
sg11
S'Wed, 13 May 2015 03:37:47 UTC'
p1244
sg13
g1243
sg14
VNew YACAGOLD15BBoSR2Q18n
p1245
sg16
g1245
sg17
I2
sa(dp1246
g3
I81526681
sg4
S'-0%'
p1247
sg6
g1243
sg8
I223383
sg9
g376
sg11
S'Wed, 13 May 2015 03:37:47 UTC'
p1248
sg13
g1243
sg14
VNew YACAGOLD15BStDc2Q18n
p1249
sg16
g1249
sg17
I1
sa(dp1250
g3
I81526681
sg4
S'-0%'
p1251
sg6
g1243
sg8
I223383
sg9
g381
sg11
S'Wed, 13 May 2015 03:37:47 UTC'
p1252
sg13
g1243
sg14
VNew YACAGOLD15BFacR2Q18n
p1253
sg16
g1253
sg17
I3
sa(dp1254
g3
I81526695
sg4
S'-0%'
p1255
sg6
S'Academic - Silver'
p1256
sg8
I223384
sg9
g20
sg11
S'Wed, 13 May 2015 03:38:05 UTC'
p1257
sg13
g1256
sg14
VColumACASIL15BBoSR2Q19b
p1258
sg16
g1258
sg17
I3
sa(dp1259
g3
I81526695
sg4
S'-0%'
p1260
sg6
g1256
sg8
I223384
sg9
g376
sg11
S'Wed, 13 May 2015 03:38:05 UTC'
p1261
sg13
g1256
sg14
VColumACASIL15BStDc2Q19b
p1262
sg16
g1262
sg17
I1
sa(dp1263
g3
I81526695
sg4
S'-0%'
p1264
sg6
g1256
sg8
I223384
sg9
g381
sg11
S'Wed, 13 May 2015 03:38:05 UTC'
p1265
sg13
g1256
sg14
VColumACASIL15BFacR2Q19b
p1266
sg16
g1266
sg17
I2
sa(dp1267
g3
I81532271
sg4
S'-0%'
p1268
sg6
S'Corporate - Gold'
p1269
sg8
I223381
sg9
g10
sg11
S'Wed, 13 May 2015 03:35:42 UTC'
p1270
sg13
g1269
sg14
VOraclCGOLD15BGenR2Q134
p1271
sg16
g1271
sg17
I5
sa(dp1272
g3
I81532271
sg4
S'-0%'
p1273
sg6
g1269
sg8
I223381
sg9
g20
sg11
S'Wed, 13 May 2015 03:35:42 UTC'
p1274
sg13
g1269
sg14
VOraclCGOLD15BBoSR2Q134
p1275
sg16
g1275
sg17
I2
sa(dp1276
g3
I81556060
sg4
S'-0%'
p1277
sg6
S'Academic - Silver'
p1278
sg8
I223384
sg9
g20
sg11
S'Wed, 13 May 2015 03:37:55 UTC'
p1279
sg13
g1278
sg14
VHassoACASIL15BBoSR2Q197
p1280
sg16
g1280
sg17
I3
sa(dp1281
g3
I81556060
sg4
S'-0%'
p1282
sg6
g1278
sg8
I223384
sg9
g376
sg11
S'Wed, 13 May 2015 03:37:55 UTC'
p1283
sg13
g1278
sg14
VHassoACASIL15BStDc2Q197
p1284
sg16
g1284
sg17
I1
sa(dp1285
g3
I81556060
sg4
S'-0%'
p1286
sg6
g1278
sg8
I223384
sg9
g381
sg11
S'Wed, 13 May 2015 03:37:55 UTC'
p1287
sg13
g1278
sg14
VHassoACASIL15BFacR2Q197
p1288
sg16
g1288
sg17
I2
sa(dp1289
g3
I81579382
sg4
S'-0%'
p1290
sg6
S'GHC Event Sponsorships and Enterprise Packages'
p1291
sg8
I227146
sg9
g26
sg11
S'Wed, 13 May 2015 03:38:38 UTC'
p1292
sg13
g1291
sg14
VRed H152Q1B3
p1293
sg16
g1293
sg17
I2
sa(dp1294
g3
I81579619
sg4
S'-0%'
p1295
sg6
S'Corporate - Gold'
p1296
sg8
I223381
sg9
g10
sg11
S'Wed, 13 May 2015 03:35:43 UTC'
p1297
sg13
g1296
sg14
VRed HCGOLD15BGenR2Q139
p1298
sg16
g1298
sg17
I5
sa(dp1299
g3
I81579619
sg4
S'-0%'
p1300
sg6
g1296
sg8
I223381
sg9
g20
sg11
S'Wed, 13 May 2015 03:35:43 UTC'
p1301
sg13
g1296
sg14
VRed HCGOLD15BBoSR2Q139
p1302
sg16
g1302
sg17
I2
sa(dp1303
g3
I81595325
sg4
S'-0%'
p1304
sg6
S'Academic - Silver'
p1305
sg8
I223384
sg9
g20
sg11
S'Wed, 13 May 2015 03:38:07 UTC'
p1306
sg13
g1305
sg14
VUniveACASIL15BBoSR2Q19g
p1307
sg16
g1307
sg17
I3
sa(dp1308
g3
I81595325
sg4
S'-0%'
p1309
sg6
g1305
sg8
I223384
sg9
g376
sg11
S'Wed, 13 May 2015 03:38:07 UTC'
p1310
sg13
g1305
sg14
VUniveACASIL15BStDc2Q19g
p1311
sg16
g1311
sg17
I1
sa(dp1312
g3
I81595325
sg4
S'-0%'
p1313
sg6
g1305
sg8
I223384
sg9
g381
sg11
S'Wed, 13 May 2015 03:38:07 UTC'
p1314
sg13
g1305
sg14
VUniveACASIL15BFacR2Q19g
p1315
sg16
g1315
sg17
I2
sa(dp1316
g3
I81602634
sg4
S'-0%'
p1317
sg6
S'Academic - Bronze'
p1318
sg8
I223385
sg9
g381
sg11
S'Wed, 13 May 2015 03:38:20 UTC'
p1319
sg13
g1318
sg14
VDeparACABRZ15BFacR2Q1AF
p1320
sg16
g1320
sg17
I1
sa(dp1321
g3
I81602634
sg4
S'-0%'
p1322
sg6
g1318
sg8
I223385
sg9
g376
sg11
S'Wed, 13 May 2015 03:38:20 UTC'
p1323
sg13
g1318
sg14
VDeparACABRZ15BStDc2Q1AF
p1324
sg16
g1324
sg17
I1
sa(dp1325
g3
I81604560
sg4
S'-0%'
p1326
sg6
S'Corporate - Silver'
p1327
sg8
I223382
sg9
g10
sg11
S'Wed, 13 May 2015 03:36:53 UTC'
p1328
sg13
g1327
sg14
VPremiCSIL15BGenR2Q16S
p1329
sg16
g1329
sg17
I3
sa(dp1330
g3
I81604560
sg4
S'-0%'
p1331
sg6
g1327
sg8
I223382
sg9
g20
sg11
S'Wed, 13 May 2015 03:36:53 UTC'
p1332
sg13
g1327
sg14
VPremiCSIL15BBoSR2Q16S
p1333
sg16
g1333
sg17
I3
sa(dp1334
g3
I81604792
sg4
S'-0%'
p1335
sg6
S'Academic - Gold'
p1336
sg8
I223383
sg9
g20
sg11
S'Wed, 13 May 2015 03:37:49 UTC'
p1337
sg13
g1336
sg14
VGeorgACAGOLD15BBoSR2Q18s
p1338
sg16
g1338
sg17
I2
sa(dp1339
g3
I81604792
sg4
S'-0%'
p1340
sg6
g1336
sg8
I223383
sg9
g376
sg11
S'Wed, 13 May 2015 03:37:49 UTC'
p1341
sg13
g1336
sg14
VGeorgACAGOLD15BStDc2Q18s
p1342
sg16
g1342
sg17
I1
sa(dp1343
g3
I81604792
sg4
S'-0%'
p1344
sg6
g1336
sg8
I223383
sg9
g381
sg11
S'Wed, 13 May 2015 03:37:49 UTC'
p1345
sg13
g1336
sg14
VGeorgACAGOLD15BFacR2Q18s
p1346
sg16
g1346
sg17
I3
sa(dp1347
g3
I81605421
sg4
S'-0%'
p1348
sg6
S'Corporate - Gold'
p1349
sg8
I223381
sg9
g10
sg11
S'Wed, 13 May 2015 03:35:45 UTC'
p1350
sg13
g1349
sg14
VAOLCGOLD15BGenR2Q13A
p1351
sg16
g1351
sg17
I5
sa(dp1352
g3
I81605421
sg4
S'-0%'
p1353
sg6
g1349
sg8
I223381
sg9
g20
sg11
S'Wed, 13 May 2015 03:35:45 UTC'
p1354
sg13
g1349
sg14
VAOLCGOLD15BBoSR2Q13A
p1355
sg16
g1355
sg17
I2
sa(dp1356
g3
I80330099
sg4
S'-0%'
p1357
sg6
S'Corporate - Gold'
p1358
sg8
I223381
sg9
g10
sg11
S'Wed, 13 May 2015 03:35:57 UTC'
p1359
sg13
g1358
sg14
VBloomCGOLD15BGenR2Q13s
p1360
sg16
g1360
sg17
I5
sa(dp1361
g3
I80330099
sg4
S'-0%'
p1362
sg6
g1358
sg8
I223381
sg9
g20
sg11
S'Wed, 13 May 2015 03:35:57 UTC'
p1363
sg13
g1358
sg14
VBloomCGOLD15BBoSR2Q13s
p1364
sg16
g1364
sg17
I2
sa.