(lp1
(dp2
S'CancelDate'
p3
NsS'IsSubstitute'
p4
I00
sS'RegistrationType'
p5
S'Dinner Host'
p6
sS'FirstName'
p7
S'Stephanie'
p8
sS'Title'
p9
S''
sS'LastName'
p10
S'Turner'
p11
sS'Company'
p12
S'Lockheed Martin'
p13
sS'StatusID'
p14
I2
sS'CCEmail'
p15
S'brittney.majka@lmco.com'
p16
sS'StatusDescription'
p17
S'Confirmed'
p18
sS'RegTypeID'
p19
I223397
sS'ModDate'
p20
cdatetime
datetime
p21
(S'\x07\xdf\x04\x08\x0b\x130\t\x0ch'
tRp22
sS'ID'
p23
I77357383
sS'AddBy'
p24
ccopy_reg
_reconstructor
p25
(csuds.sax.text
Text
p26
c__builtin__
unicode
p27
VmichaelI2
tRp28
(dp29
S'lang'
p30
NsS'escaped'
p31
I00
sbsS'AddDate'
p32
g21
(S'\x07\xdf\x01\x14\x0e1\x13\x05\xc0\xa8'
tRp33
sS'Email'
p34
S'stephanie.e.turner@lmco.com'
p35
sS'ModBy'
p36
g25
(g26
g27
Vkathrynb1
tRp37
(dp38
g30
Nsg31
I00
sbsa(dp39
g3
Nsg4
I00
sg5
S'Table Patron'
p40
sg7
S'Amber'
p41
sg9
S''
sg10
S'Schmidt'
p42
sg12
S'VMware'
p43
sg14
I2
sg15
S''
sg17
S'Confirmed'
p44
sg19
I214082
sg20
g21
(S'\x07\xdf\x04\r\r\x05\x0f\x03\xb58'
tRp45
sg23
I77448223
sg24
g25
(g26
g27
VAttendee
tRp46
(dp47
g30
Nsg31
I00
sbsg32
g21
(S'\x07\xdf\x01\x16\x0e5\x13\x07\xc80'
tRp48
sg34
S'schmidta@vmware.com'
p49
sg36
g25
(g26
g27
Vkathrynb1
tRp50
(dp51
g30
Nsg31
I00
sbsa(dp52
g3
Nsg4
I00
sg5
S'Table Patron'
p53
sg7
S'Mimi'
p54
sg9
S''
sg10
S'Phan'
p55
sg12
S'Mayfield'
p56
sg14
I2
sg15
S''
sg17
S'Confirmed'
p57
sg19
I214082
sg20
g21
(S'\x07\xdf\x04\x08\x13\x16!\x04E\xc0'
tRp58
sg23
I77506368
sg24
g25
(g26
g27
VAttendee
tRp59
(dp60
g30
Nsg31
I00
sbsg32
g21
(S'\x07\xdf\x01\x17\x11\x1e3\x07z\x10'
tRp61
sg34
S'mphan@mayfield.com'
p62
sg36
g25
(g26
g27
Vkathrynb1
tRp63
(dp64
g30
Nsg31
I00
sbsa(dp65
g3
Nsg4
I00
sg5
S'Gold Sponsor '
p66
sg7
S'Talia'
p67
sg9
S''
sg10
S'Reyes-Ortiz'
p68
sg12
S'NetApp'
p69
sg14
I2
sg15
S'maggio@netapp.com'
p70
sg17
S'Confirmed'
p71
sg19
I214083
sg20
g21
(S'\x07\xdf\x02\x14\r-+\x07\xe3\x88'
tRp72
sg23
I77665943
sg24
g25
(g26
g27
VAttendee
tRp73
(dp74
g30
Nsg31
I00
sbsg32
g21
(S'\x07\xdf\x01\x1c\n3\x1e\x0b\xcb\x88'
tRp75
sg34
S'talia@netapp.com'
p76
sg36
g25
(g26
g27
Vkathrynb1
tRp77
(dp78
g30
Nsg31
I00
sbsa(dp79
g3
Nsg4
I00
sg5
S'Silver Sponsor '
p80
sg7
S'Penelope'
p81
sg9
S''
sg10
S'Peng'
p82
sg12
S'Thomson Reuters'
p83
sg14
I2
sg15
S''
sg17
S'Confirmed'
p84
sg19
I214084
sg20
g21
(S'\x07\xdf\x02\x14\r-\x01\rm\x80'
tRp85
sg23
I77720596
sg24
g25
(g26
g27
VAttendee
tRp86
(dp87
g30
Nsg31
I00
sbsg32
g21
(S'\x07\xdf\x01\x1d\r\x19\x10\x03\x82p'
tRp88
sg34
S'Penelope.Peng@thomsonreuters.com'
p89
sg36
g25
(g26
g27
Vkathrynb1
tRp90
(dp91
g30
Nsg31
I00
sbsa(dp92
g3
Nsg4
I00
sg5
S'Silver Sponsor '
p93
sg7
S'Beth'
p94
sg9
S''
sg10
S'Cureton'
p95
sg12
S'Juniper Networks'
p96
sg14
I2
sg15
S'vannguyen@juniper.net'
p97
sg17
S'Confirmed'
p98
sg19
I214084
sg20
g21
(S'\x07\xdf\x04\x16\x16\x04\x15\x0c\xf8P'
tRp99
sg23
I77923295
sg24
g25
(g26
g27
VAttendee
tRp100
(dp101
g30
Nsg31
I00
sbsg32
g21
(S'\x07\xdf\x02\x03\x10\x040\x01\x1d('
tRp102
sg34
S'bcureton@juniper.net'
p103
sg36
g25
(g26
g27
Vkathrynb1
tRp104
(dp105
g30
Nsg31
I00
sbsa(dp106
g3
Nsg4
I00
sg5
S'Table Patron'
p107
sg7
S'Yvonne'
p108
sg9
S''
sg10
S'Schneider'
p109
sg12
S'American Express'
p110
sg14
I2
sg15
S'yvonne.n.schneider@aexp.com'
p111
sg17
S'Confirmed'
p112
sg19
I214082
sg20
g21
(S'\x07\xdf\x02\x06\x0e\x1e&\x02\x07\x88'
tRp113
sg23
I78032852
sg24
g25
(g26
g27
VAttendee
tRp114
(dp115
g30
Nsg31
I00
sbsg32
g21
(S'\x07\xdf\x02\x06\x0683\x08dp'
tRp116
sg34
S'juanita.m.garcia@aexp.com'
p117
sg36
g25
(g26
g27
Vkathrynb1
tRp118
(dp119
g30
Nsg31
I00
sbsa(dp120
g3
Nsg4
I00
sg5
S'Table Patron'
p121
sg7
S'Debi'
p122
sg9
S''
sg10
S'Coleman'
p123
sg12
S'SmartForest Ventures'
p124
sg14
I2
sg15
S''
sg17
S'Confirmed'
p125
sg19
I214082
sg20
g21
(S'\x07\xdf\x04\x08\x13 /\n\xfc\x80'
tRp126
sg23
I78056700
sg24
g25
(g26
g27
VAttendee
tRp127
(dp128
g30
Nsg31
I00
sbsg32
g21
(S'\x07\xdf\x02\x06\x0e\x18\x13\x0e\x9aH'
tRp129
sg34
S'debi@smartforest.com'
p130
sg36
g25
(g26
g27
Vkathrynb1
tRp131
(dp132
g30
Nsg31
I00
sbsa(dp133
g3
Nsg4
I00
sg5
S'Table Patron'
p134
sg7
S'Nargis'
p135
sg9
S''
sg10
S'Kakar'
p136
sg12
S'Lam Research Corporation'
p137
sg14
I2
sg15
S'colleen.connery@lamresearch.com'
p138
sg17
S'Confirmed'
p139
sg19
I214082
sg20
g21
(S'\x07\xdf\x02\x0b\x0b\x06&\x00\x9c@'
tRp140
sg23
I78177898
sg24
g25
(g26
g27
VAttendee
tRp141
(dp142
g30
Nsg31
I00
sbsg32
g21
(S'\x07\xdf\x02\n\x0c\x1d4\x06\xf9('
tRp143
sg34
S'nargis.kakar@lamresearch.com'
p144
sg36
g25
(g26
g27
Vkathrynb1
tRp145
(dp146
g30
Nsg31
I00
sbsa(dp147
g3
Nsg4
I00
sg5
S'Table Patron'
p148
sg7
S'Julie'
p149
sg9
S''
sg10
S'Larson-Green'
p150
sg12
S'Microsoft'
p151
sg14
I2
sg15
S'judykim@microsoft.com'
p152
sg17
S'Confirmed'
p153
sg19
I214082
sg20
g21
(S'\x07\xdf\x04\r\r\x01\x06\t\x9c\xf0'
tRp154
sg23
I78195678
sg24
g25
(g26
g27
VAttendee
tRp155
(dp156
g30
Nsg31
I00
sbsg32
g21
(S'\x07\xdf\x02\n\x13$6\x08X\xb8'
tRp157
sg34
S'julielar@microsoft.com'
p158
sg36
g25
(g26
g27
Vkathrynb1
tRp159
(dp160
g30
Nsg31
I00
sbsa(dp161
g3
Nsg4
I00
sg5
S'Table Patron'
p162
sg7
S'Karen'
p163
sg9
S''
sg10
S'Kardian'
p164
sg12
S'Capital One'
p165
sg14
I2
sg15
S''
sg17
S'Confirmed'
p166
sg19
I214082
sg20
g21
(S'\x07\xdf\x04\r\x0c3!\x00Y\xd8'
tRp167
sg23
I78219056
sg24
g25
(g26
g27
VAttendee
tRp168
(dp169
g30
Nsg31
I00
sbsg32
g21
(S'\x07\xdf\x02\x0b\n\x12\x02\r\x1f`'
tRp170
sg34
S'karen.kardian@capitalone.com'
p171
sg36
g25
(g26
g27
Vkathrynb1
tRp172
(dp173
g30
Nsg31
I00
sbsa(dp174
g3
Nsg4
I00
sg5
S'Table Patron'
p175
sg7
S'Rachel'
p176
sg9
S''
sg10
S'Rocero'
p177
sg12
S'Hack Reactor'
p178
sg14
I2
sg15
S''
sg17
S'Confirmed'
p179
sg19
I214082
sg20
g21
(S'\x07\xdf\x02\r\x1180\x07\x10\x98'
tRp180
sg23
I78322473
sg24
g25
(g26
g27
VAttendee
tRp181
(dp182
g30
Nsg31
I00
sbsg32
g21
(S'\x07\xdf\x02\r\x112\x1a\x0c\x19\xa8'
tRp183
sg34
S'rachel.rocero@hackreactor.com'
p184
sg36
g25
(g26
g27
Vkathrynb1
tRp185
(dp186
g30
Nsg31
I00
sbsa(dp187
g3
Nsg4
I00
sg5
S'Table Patron'
p188
sg7
S'Jenny'
p189
sg9
S''
sg10
S'Choo'
p190
sg12
S'Intuit'
p191
sg14
I2
sg15
S'kyle_coulter@intuit.com'
p192
sg17
S'Confirmed'
p193
sg19
I214082
sg20
g21
(S'\x07\xdf\x04\r\x0c; \x03v\xb8'
tRp194
sg23
I78324562
sg24
g25
(g26
g27
VAttendee
tRp195
(dp196
g30
Nsg31
I00
sbsg32
g21
(S'\x07\xdf\x02\r\x11\x167\x03\x01\x88'
tRp197
sg34
S'jenny_choo@intuit.com'
p198
sg36
g25
(g26
g27
Vkathrynb1
tRp199
(dp200
g30
Nsg31
I00
sbsa(dp201
g3
Nsg4
I00
sg5
S'Table Patron'
p202
sg7
S'Paul'
p203
sg9
S''
sg10
S'Szlosek'
p204
sg12
S'Nationwide Insurance'
p205
sg14
I2
sg15
S''
sg17
S'Confirmed'
p206
sg19
I214082
sg20
g21
(S'\x07\xdf\x04\r\r\x02$\x0e~\xf0'
tRp207
sg23
I78419710
sg24
g25
(g26
g27
VAttendee
tRp208
(dp209
g30
Nsg31
I00
sbsg32
g21
(S'\x07\xdf\x02\x11\x0b21\x034P'
tRp210
sg34
S'szlosep@nationwide.com'
p211
sg36
g25
(g26
g27
Vkathrynb1
tRp212
(dp213
g30
Nsg31
I00
sbsa(dp214
g3
Nsg4
I00
sg5
S'Silver Sponsor '
p215
sg7
S'Cindy'
p216
sg9
S''
sg10
S'Stanphill'
p217
sg12
S'Hewlett-Packard'
p218
sg14
I2
sg15
S''
sg17
S'Confirmed'
p219
sg19
I214084
sg20
g21
(S'\x07\xdf\x02\x14\r,\x1e\x07nX'
tRp220
sg23
I78466179
sg24
g25
(g26
g27
VAttendee
tRp221
(dp222
g30
Nsg31
I00
sbsg32
g21
(S'\x07\xdf\x02\x12\x0c\x10\x03\x0c\x028'
tRp223
sg34
S'cindy.stanphill@hp.com'
p224
sg36
g25
(g26
g27
Vkathrynb1
tRp225
(dp226
g30
Nsg31
I00
sbsa(dp227
g3
Nsg4
I00
sg5
S'Gold Sponsor '
p228
sg7
S'Jeanne'
p229
sg9
S''
sg10
S'Martin'
p230
sg12
S'Cisco'
p231
sg14
I2
sg15
S''
sg17
S'Confirmed'
p232
sg19
I214083
sg20
g21
(S'\x07\xdf\x02\x14\r.\x00\x07\xef@'
tRp233
sg23
I78466893
sg24
g25
(g26
g27
VAttendee
tRp234
(dp235
g30
Nsg31
I00
sbsg32
g21
(S'\x07\xdf\x02\x12\x0c\x19\x1c\x06\x0e\xc8'
tRp236
sg34
S'jeamarti@cisco.com'
p237
sg36
g25
(g26
g27
Vkathrynb1
tRp238
(dp239
g30
Nsg31
I00
sbsa(dp240
g3
Nsg4
I00
sg5
S'Table Patron'
p241
sg7
S'Consuelo'
p242
sg9
S''
sg10
S'Rodriguez'
p243
sg12
S'Dell'
p244
sg14
I2
sg15
S''
sg17
S'Confirmed'
p245
sg19
I214082
sg20
g21
(S'\x07\xdf\x04\r\x0c5\n\n\x1d\xd8'
tRp246
sg23
I78476504
sg24
g25
(g26
g27
VAttendee
tRp247
(dp248
g30
Nsg31
I00
sbsg32
g21
(S'\x07\xdf\x02\x12\x0f\x0e\x0c\x0c@\xb8'
tRp249
sg34
S'Consuelo_Rodriguez@Dell.com'
p250
sg36
g25
(g26
g27
Vkathrynb1
tRp251
(dp252
g30
Nsg31
I00
sbsa(dp253
g3
Nsg4
I00
sg5
S'Table Patron'
p254
sg7
S'Irene'
p255
sg9
S''
sg10
S'Kendall'
p256
sg12
S'Apple'
p257
sg14
I2
sg15
S''
sg17
S'Confirmed'
p258
sg19
I214082
sg20
g21
(S'\x07\xdf\x04\r\x0c.1\x0c\x8e\xd8'
tRp259
sg23
I78477353
sg24
g25
(g26
g27
VAttendee
tRp260
(dp261
g30
Nsg31
I00
sbsg32
g21
(S'\x07\xdf\x02\x12\x0f\x17-\nD\xe8'
tRp262
sg34
S'ikendall@apple.com'
p263
sg36
g25
(g26
g27
Vkathrynb1
tRp264
(dp265
g30
Nsg31
I00
sbsa(dp266
g3
Nsg4
I00
sg5
S'Table Patron'
p267
sg7
S'Rory'
p268
sg9
S''
sg10
S'Van Nest'
p269
sg12
S'Marketo'
p270
sg14
I2
sg15
S''
sg17
S'Confirmed'
p271
sg19
I214082
sg20
g21
(S'\x07\xdf\x02\x12\x17\x0c8\x00\x0b\xb8'
tRp272
sg23
I78482258
sg24
g25
(g26
g27
VAttendee
tRp273
(dp274
g30
Nsg31
I00
sbsg32
g21
(S'\x07\xdf\x02\x12\x11(*\x00\xa7\xf8'
tRp275
sg34
S'rvannest@marketo.com'
p276
sg36
g25
(g26
g27
Vkathrynb1
tRp277
(dp278
g30
Nsg31
I00
sbsa(dp279
g3
Nsg4
I00
sg5
S'Table Patron'
p280
sg7
S'Dana'
p281
sg9
S''
sg10
S'Vandecoevering'
p282
sg12
S'Intel'
p283
sg14
I2
sg15
S''
sg17
S'Confirmed'
p284
sg19
I214082
sg20
g21
(S'\x07\xdf\x04\r\x0c:\x17\x0c5\x00'
tRp285
sg23
I78525071
sg24
g25
(g26
g27
VAttendee
tRp286
(dp287
g30
Nsg31
I00
sbsg32
g21
(S'\x07\xdf\x02\x13\x10\x0e%\x01\xad\xb0'
tRp288
sg34
S'dana.vandecoevering@intel.com'
p289
sg36
g25
(g26
g27
Vkathrynb1
tRp290
(dp291
g30
Nsg31
I00
sbsa(dp292
g3
Nsg4
I00
sg5
S'Table Patron'
p293
sg7
S'Katie'
p294
sg9
S''
sg10
S'Swank'
p295
sg12
S'EMC'
p296
sg14
I2
sg15
S''
sg17
S'Confirmed'
p297
sg19
I214082
sg20
g21
(S'\x07\xdf\x04\r\x0c5;\x05\xd8\x18'
tRp298
sg23
I78730680
sg24
g25
(g26
g27
VAttendee
tRp299
(dp300
g30
Nsg31
I00
sbsg32
g21
(S'\x07\xdf\x02\x19\x0c"5\x06\x0e\xc8'
tRp301
sg34
S'katie.swank@emc.com'
p302
sg36
g25
(g26
g27
Vkathrynb1
tRp303
(dp304
g30
Nsg31
I00
sbsa(dp305
g3
Nsg4
I00
sg5
S'Silver Sponsor '
p306
sg7
S'Ruha'
p307
sg9
S''
sg10
S'Devanesan'
p308
sg12
S'Symantec Corp'
p309
sg14
I2
sg15
S'antoine_andrews@symantec.com'
p310
sg17
S'Confirmed'
p311
sg19
I214084
sg20
g21
(S'\x07\xdf\x04\x17\x08+\x1c\x06\x0e\xc8'
tRp312
sg23
I78736369
sg24
g25
(g26
g27
VAttendee
tRp313
(dp314
g30
Nsg31
I00
sbsg32
g21
(S'\x07\xdf\x02\x19\x0e\x04\x1e\x02|\xb8'
tRp315
sg34
S'ruha_devanesan@symantec.com'
p316
sg36
g25
(g26
g27
Vkathrynb1
tRp317
(dp318
g30
Nsg31
I00
sbsa(dp319
g3
Nsg4
I00
sg5
S'Table Patron'
p320
sg7
S'Daniela'
p321
sg9
S''
sg10
S'Barbosa'
p322
sg12
S'FirstRain'
p323
sg14
I2
sg15
S'daniela@firstrain.com'
p324
sg17
S'Confirmed'
p325
sg19
I214082
sg20
g21
(S'\x07\xdf\x03\x04\x0b1\x1e\x08\x16P'
tRp326
sg23
I79027030
sg24
g25
(g26
g27
VAttendee
tRp327
(dp328
g30
Nsg31
I00
sbsg32
g21
(S'\x07\xdf\x03\x04\x0b\x12.\x00\xf6\x18'
tRp329
sg34
S'dbarbosa@firstrain.com'
p330
sg36
g25
(g26
g27
Vkathrynb1
tRp331
(dp332
g30
Nsg31
I00
sbsa(dp333
g3
Nsg4
I00
sg5
S'Table Patron'
p334
sg7
S'Deb'
p335
sg9
S''
sg10
S'Morris'
p336
sg12
S'Best Buy'
p337
sg14
I2
sg15
S''
sg17
S'Confirmed'
p338
sg19
I214082
sg20
g21
(S'\x07\xdf\x04\r\x0c0\x00\n\x93\x08'
tRp339
sg23
I79171718
sg24
g25
(g26
g27
VAttendee
tRp340
(dp341
g30
Nsg31
I00
sbsg32
g21
(S'\x07\xdf\x03\x08\x0c;4\x05b\xe8'
tRp342
sg34
S'deborah.morris@bestbuy.com'
p343
sg36
g25
(g26
g27
Vkathrynb1
tRp344
(dp345
g30
Nsg31
I00
sbsa(dp346
g3
Nsg4
I00
sg5
S'Table Patron'
p347
sg7
S'Erica'
p348
sg9
S''
sg10
S'Christensen'
p349
sg12
S'CA Technologies'
p350
sg14
I2
sg15
S'Michelle.Barrett@ca.com'
p351
sg17
S'Confirmed'
p352
sg19
I214082
sg20
g21
(S'\x07\xdf\x04\r\x0c15\x03[`'
tRp353
sg23
I79217804
sg24
g25
(g26
g27
VAttendee
tRp354
(dp355
g30
Nsg31
I00
sbsg32
g21
(S'\x07\xdf\x03\t\x0e\x111\x06\x1a\x80'
tRp356
sg34
S'Erica.Christensen@ca.com'
p357
sg36
g25
(g26
g27
Vkathrynb1
tRp358
(dp359
g30
Nsg31
I00
sbsa(dp360
g3
Nsg4
I00
sg5
S'Bronze Sponsor '
p361
sg7
S'Deanna'
p362
sg9
S''
sg10
S'Rutland'
p363
sg12
S'Rackspace'
p364
sg14
I2
sg15
S'trisha.medina@RACKSPACE.COM'
p365
sg17
S'Confirmed'
p366
sg19
I214085
sg20
g21
(S'\x07\xdf\x03\x1f\x0c\x1e\x04\x07\x04\xe0'
tRp367
sg23
I79478599
sg24
g25
(g26
g27
VAttendee
tRp368
(dp369
g30
Nsg31
I00
sbsg32
g21
(S'\x07\xdf\x03\x10\t3\x03\x0c)H'
tRp370
sg34
S'deanna.rutland@rackspace.com'
p371
sg36
g25
(g26
g27
Vkathrynb1
tRp372
(dp373
g30
Nsg31
I00
sbsa(dp374
g3
Nsg4
I00
sg5
S'Show Management'
p375
sg7
S'Gail'
p376
sg9
S''
sg10
S'McFall'
p377
sg12
S'WSGR'
p378
sg14
I2
sg15
S''
sg17
S'Confirmed'
p379
sg19
I224943
sg20
g21
(S'\x07\xdf\x03\x17\x15\r\x0c\x00ix'
tRp380
sg23
I79784433
sg24
g25
(g26
g27
Vkathrynb1
tRp381
(dp382
g30
Nsg31
I00
sbsg32
g21
(S'\x07\xdf\x03\x17\x0f*2\t\xeb\x10'
tRp383
sg34
S'gmcfall@wsgr.com'
p384
sg36
g25
(g26
g27
Vkathrynb1
tRp385
(dp386
g30
Nsg31
I00
sbsa(dp387
g3
Nsg4
I00
sg5
S'Show Management'
p388
sg7
S'Bill'
p389
sg9
S''
sg10
S'Unger'
p390
sg12
S'Bill Unger'
p391
sg14
I2
sg15
S''
sg17
S'Confirmed'
p392
sg19
I224943
sg20
g21
(S'\x07\xdf\x03\x17\x15\r1\x00\x1bX'
tRp393
sg23
I79793143
sg24
g25
(g26
g27
Vkathrynb1
tRp394
(dp395
g30
Nsg31
I00
sbsg32
g21
(S'\x07\xdf\x03\x17\x15\x057\x08\x16P'
tRp396
sg34
S'billunger1@mac.com'
p397
sg36
g25
(g26
g27
Vkathrynb1
tRp398
(dp399
g30
Nsg31
I00
sbsa(dp400
g3
Nsg4
I00
sg5
S'Table Patron'
p401
sg7
S'Andrea'
p402
sg9
S''
sg10
S'Constantinides'
p403
sg12
S'Facebook'
p404
sg14
I2
sg15
S''
sg17
S'Confirmed'
p405
sg19
I214082
sg20
g21
(S'\x07\xdf\x04\x18\n2/\x00\xa7\xf8'
tRp406
sg23
I79829222
sg24
g25
(g26
g27
VAttendee
tRp407
(dp408
g30
Nsg31
I00
sbsg32
g21
(S'\x07\xdf\x03\x18\r*3\x01\xe0x'
tRp409
sg34
S'andreac@fb.com'
p410
sg36
g25
(g26
g27
Vkathrynb1
tRp411
(dp412
g30
Nsg31
I00
sbsa(dp413
g3
Nsg4
I00
sg5
S'Table Patron'
p414
sg7
S'Heather'
p415
sg9
S''
sg10
S'Howell'
p416
sg12
S'IBM Corporation'
p417
sg14
I2
sg15
S''
sg17
S'Confirmed'
p418
sg19
I214082
sg20
g21
(S'\x07\xdf\x04\r\x0c9\x04\x07GH'
tRp419
sg23
I79830969
sg24
g25
(g26
g27
VAttendee
tRp420
(dp421
g30
Nsg31
I00
sbsg32
g21
(S'\x07\xdf\x03\x18\r4\x08\x02\xf1\xe8'
tRp422
sg34
S'hrhowell@us.ibm.com'
p423
sg36
g25
(g26
g27
Vkathrynb1
tRp424
(dp425
g30
Nsg31
I00
sbsa(dp426
g3
Nsg4
I00
sg5
S'Silver Sponsor '
p427
sg7
S'Lucille'
p428
sg9
S''
sg10
S'Mayer'
p429
sg12
S'BNY Mellon'
p430
sg14
I2
sg15
S'ddilaurenzio@pershing.com'
p431
sg17
S'Confirmed'
p432
sg19
I214084
sg20
g21
(S"\x07\xdf\x04\x1d\x120'\x07\xfa\xf8"
tRp433
sg23
I79868140
sg24
g25
(g26
g27
VAttendee
tRp434
(dp435
g30
Nsg31
I00
sbsg32
g21
(S'\x07\xdf\x03\x19\n;,\x0e\xb1\xb8'
tRp436
sg34
S'lucille.mayer@bnymellon.com'
p437
sg36
g25
(g26
g27
Vkathrynb1
tRp438
(dp439
g30
Nsg31
I00
sbsa(dp440
g3
Nsg4
I00
sg5
S'Bronze Sponsor '
p441
sg7
S'Marjorie'
p442
sg9
S''
sg10
S'Martinez'
p443
sg12
S'Synopsys Inc.'
p444
sg14
I2
sg15
S'jcradd@synopsys.com'
p445
sg17
S'Confirmed'
p446
sg19
I214085
sg20
g21
(S'\x07\xdf\x03\x1a\x13%\x1e\x00\xf6\x18'
tRp447
sg23
I79877761
sg24
g25
(g26
g27
VAttendee
tRp448
(dp449
g30
Nsg31
I00
sbsg32
g21
(S'\x07\xdf\x03\x19\x0e\x0f\x1e\tu\xe0'
tRp450
sg34
S'marjorie@synopsys.com'
p451
sg36
g25
(g26
g27
Vkathrynb1
tRp452
(dp453
g30
Nsg31
I00
sbsa(dp454
g3
Nsg4
I00
sg5
S'Table Patron'
p455
sg7
S'Alyssa'
p456
sg9
S''
sg10
S'Arvin'
p457
sg12
S'Salesforce'
p458
sg14
I2
sg15
S''
sg17
S'Confirmed'
p459
sg19
I214082
sg20
g21
(S'\x07\xdf\x04\r\r\x04\x0b\x05b\xe8'
tRp460
sg23
I80015964
sg24
g25
(g26
g27
VAttendee
tRp461
(dp462
g30
Nsg31
I00
sbsg32
g21
(S'\x07\xdf\x03\x1e\x088\x00\x00\x00\x00'
tRp463
sg34
S'aarvin@salesforce.com'
p464
sg36
g25
(g26
g27
Vkathrynb1
tRp465
(dp466
g30
Nsg31
I00
sbsa(dp467
g3
Nsg4
I00
sg5
S'Bronze Sponsor '
p468
sg7
S'Karen'
p469
sg9
S''
sg10
S'Sumberg'
p470
sg12
S'Google'
p471
sg14
I2
sg15
S''
sg17
S'Confirmed'
p472
sg19
I214085
sg20
g21
(S'\x07\xdf\x04\x16\x15\x04\x13\x06&8'
tRp473
sg23
I80045336
sg24
g25
(g26
g27
Vkathrynb1
tRp474
(dp475
g30
Nsg31
I00
sbsg32
g21
(S'\x07\xdf\x03\x1e\x12\r#\x0b\xa4x'
tRp476
sg34
S'ksumberg@google.com'
p477
sg36
g25
(g26
g27
Vkathrynb1
tRp478
(dp479
g30
Nsg31
I00
sbsa(dp480
g3
Nsg4
I00
sg5
S'Table Patron'
p481
sg7
S'Karen'
p482
sg9
S''
sg10
S'Angemi'
p483
sg12
S'Harvey Mudd College'
p484
sg14
I2
sg15
S''
sg17
S'Confirmed'
p485
sg19
I214082
sg20
g21
(S'\x07\xdf\x04\x01\t6-\x0cPX'
tRp486
sg23
I80082343
sg24
g25
(g26
g27
VAttendee
tRp487
(dp488
g30
Nsg31
I00
sbsg32
g21
(S'\x07\xdf\x03\x1f\x0c\x15.\r+\x18'
tRp489
sg34
S'karen_angemi@hmc.edu'
p490
sg36
g25
(g26
g27
VAttendee
tRp491
(dp492
g30
Nsg31
I00
sbsa(dp493
g3
Nsg4
I00
sg5
S'Show Management'
p494
sg7
S'Sheila'
p495
sg9
S''
sg10
S'Jordan'
p496
sg12
S'Symantec Corp.'
p497
sg14
I2
sg15
S'susan_nystrom@symantec.com'
p498
sg17
S'Confirmed'
p499
sg19
I224943
sg20
g21
(S'\x07\xdf\x04\x16\x155\x0f\n\x93\x08'
tRp500
sg23
I80133642
sg24
g25
(g26
g27
VAttendee
tRp501
(dp502
g30
Nsg31
I00
sbsg32
g21
(S'\x07\xdf\x04\x01\x0c5-\x07\xa1 '
tRp503
sg34
S'sheila_jordan@symantec.com'
p504
sg36
g25
(g26
g27
Vkathrynb1
tRp505
(dp506
g30
Nsg31
I00
sbsa(dp507
g3
Nsg4
I00
sg5
S'Table Patron'
p508
sg7
S'Tracy'
p509
sg9
S''
sg10
S'McShane-Wilson'
p510
sg12
S'Ericsson'
p511
sg14
I2
sg15
S''
sg17
S'Confirmed'
p512
sg19
I214082
sg20
g21
(S'\x07\xdf\x04\r\x15&(\x04\xe2\x00'
tRp513
sg23
I80205953
sg24
g25
(g26
g27
VAttendee
tRp514
(dp515
g30
Nsg31
I00
sbsg32
g21
(S'\x07\xdf\x04\x03\n\x07\x00\x08p('
tRp516
sg34
S'kenzie.harper@ericsson.com'
p517
sg36
g25
(g26
g27
Vkathrynb1
tRp518
(dp519
g30
Nsg31
I00
sbsa(dp520
g3
Nsg4
I00
sg5
S'Table Patron'
p521
sg7
S'Irena'
p522
sg9
S'Inclusion Consultant'
p523
sg10
S'Halsey'
p524
sg12
S'LinkedIn'
p525
sg14
I2
sg15
S''
sg17
S'Confirmed'
p526
sg19
I214082
sg20
g21
(S"\x07\xdf\x04\r\x15'\n\x0e0\xd0"
tRp527
sg23
I80266374
sg24
g25
(g26
g27
VAttendee
tRp528
(dp529
g30
Nsg31
I00
sbsg32
g21
(S'\x07\xdf\x04\x06\x0b!#\r\x94\x90'
tRp530
sg34
S'ihalsey@linkedin.com'
p531
sg36
g25
(g26
g27
Vkathrynb1
tRp532
(dp533
g30
Nsg31
I00
sbsa(dp534
g3
Nsg4
I00
sg5
S'Table Patron'
p535
sg7
S'Steve'
p536
sg9
S''
sg10
S'Hoover'
p537
sg12
S'PARC, A Xerox Company'
p538
sg14
I2
sg15
S'Lisa.Andreasen@parc.com'
p539
sg17
S'Confirmed'
p540
sg19
I214082
sg20
g21
(S'\x07\xdf\x04\x1c\t\x0f\x00\x00\x1bX'
tRp541
sg23
I80312904
sg24
g25
(g26
g27
VAttendee
tRp542
(dp543
g30
Nsg31
I00
sbsg32
g21
(S'\x07\xdf\x04\x07\n\x034\x03\r@'
tRp544
sg34
S'Steve.Hoover@parc.com'
p545
sg36
g25
(g26
g27
Vkathrynb1
tRp546
(dp547
g30
Nsg31
I00
sbsa(dp548
g3
Nsg4
I01
sg5
S'Table Patron'
p549
sg7
S'DeAndra'
p550
sg9
S''
sg10
S'Jean-Louis'
p551
sg12
S'Workday, Inc.'
p552
sg14
I2
sg15
S'cherissa.fachner@workday.com'
p553
sg17
S'Confirmed'
p554
sg19
I214082
sg20
g21
(S'\x07\xdf\x04\x18\t\x1c#\x06\x8f\xb0'
tRp555
sg23
I80314050
sg24
g25
(g26
g27
VAttendee
tRp556
(dp557
g30
Nsg31
I00
sbsg32
g21
(S'\x07\xdf\x04\x07\n\x16/\x08dp'
tRp558
sg34
S'deandra.jeanlouis@workday.com'
p559
sg36
g25
(g26
g27
VAttendee
tRp560
(dp561
g30
Nsg31
I00
sbsa(dp562
g3
Nsg4
I00
sg5
S'Table Patron'
p563
sg7
S'Shaela'
p564
sg9
S''
sg10
S'Lawson'
p565
sg12
S'T. Rowe Price'
p566
sg14
I2
sg15
S'nicole_laflamme@troweprice.com'
p567
sg17
S'Confirmed'
p568
sg19
I214082
sg20
g21
(S'\x07\xdf\x04\x08\x10\x1b\x13\x05W0'
tRp569
sg23
I80371952
sg24
g25
(g26
g27
VAttendee
tRp570
(dp571
g30
Nsg31
I00
sbsg32
g21
(S"\x07\xdf\x04\x08\x0c\x19'\x06\xd2\x18"
tRp572
sg34
S'shaela_lawson@troweprice.com'
p573
sg36
g25
(g26
g27
Vkathrynb1
tRp574
(dp575
g30
Nsg31
I00
sbsa(dp576
g3
Nsg4
I00
sg5
S'Table Patron'
p577
sg7
S'Brian'
p578
sg9
S''
sg10
S'Pawlowski'
p579
sg12
S'PURE Storage'
p580
sg14
I2
sg15
S''
sg17
S'Confirmed'
p581
sg19
I214082
sg20
g21
(S'\x07\xdf\x04\x0f\x0f\x1e\x10\x01\xad\xb0'
tRp582
sg23
I80662418
sg24
g25
(g26
g27
Vkathrynb1
tRp583
(dp584
g30
Nsg31
I00
sbsg32
g21
(S'\x07\xdf\x04\x0f\x0f\x1d\x00\x02U\xa8'
tRp585
sg34
S'beepy@purestorage.com'
p586
sg36
g25
(g26
g27
Vkathrynb1
tRp587
(dp588
g30
Nsg31
I00
sbsa(dp589
g3
Nsg4
I00
sg5
S'Table Patron'
p590
sg7
S'Zoe'
p591
sg9
S''
sg10
S'Lewis'
p592
sg12
S'Accenture'
p593
sg14
I2
sg15
S'ashley.s.habas@accenture.com'
p594
sg17
S'Confirmed'
p595
sg19
I214082
sg20
g21
(S'\x07\xdf\x04\x14\x0e66\x02\xca\xd8'
tRp596
sg23
I80853981
sg24
g25
(g26
g27
VAttendee
tRp597
(dp598
g30
Nsg31
I00
sbsg32
g21
(S'\x07\xdf\x04\x14\x0e,\x1a\x081\xa8'
tRp599
sg34
S'zoe.lewis@accenture.com'
p600
sg36
g25
(g26
g27
Vkathrynb1
tRp601
(dp602
g30
Nsg31
I00
sbsa(dp603
g3
Nsg4
I00
sg5
S'Show Management'
p604
sg7
S'Aileen'
p605
sg9
S''
sg10
S'Burckhardt'
p606
sg12
S'Macys.com'
p607
sg14
I2
sg15
S'rachelli.g.materum@macys.com'
p608
sg17
S'Confirmed'
p609
sg19
I224943
sg20
g21
(S'\x07\xdf\x04\x14\x0e6\x17\x06h\xa0'
tRp610
sg23
I80857041
sg24
g25
(g26
g27
Vkathrynb1
tRp611
(dp612
g30
Nsg31
I00
sbsg32
g21
(S'\x07\xdf\x04\x14\x0e5\x1a\r\xc7X'
tRp613
sg34
S'aileen.burckhardt@macys.com'
p614
sg36
g25
(g26
g27
Vkathrynb1
tRp615
(dp616
g30
Nsg31
I00
sbsa(dp617
g3
Nsg4
I00
sg5
S'Table Patron'
p618
sg7
S'Tyler'
p619
sg9
S''
sg10
S'Butler'
p620
sg12
S'GoDaddy'
p621
sg14
I2
sg15
S'sbennett@godaddy.com'
p622
sg17
S'Confirmed'
p623
sg19
I214082
sg20
g21
(S'\x07\xdf\x04\x1d\x0b\x0b)\x03\xc4\xd8'
tRp624
sg23
I81064915
sg24
g25
(g26
g27
Vkathrynb1
tRp625
(dp626
g30
Nsg31
I00
sbsg32
g21
(S"\x07\xdf\x04\x18\x11'\x1e\x06h\xa0"
tRp627
sg34
S'tbutler@godaddy.com'
p628
sg36
g25
(g26
g27
Vkathrynb1
tRp629
(dp630
g30
Nsg31
I00
sbsa(dp631
g3
Nsg4
I00
sg5
S'Table Patron'
p632
sg7
S'Joni'
p633
sg9
S''
sg10
S'Podolsky'
p634
sg12
S'Brocade'
p635
sg14
I2
sg15
S''
sg17
S'Confirmed'
p636
sg19
I214082
sg20
g21
(S'\x07\xdf\x04\x1c\r\x0e-\x03v\xb8'
tRp637
sg23
I81174101
sg24
g25
(g26
g27
VmichaelI2
tRp638
(dp639
g30
Nsg31
I00
sbsg32
g21
(S'\x07\xdf\x04\x1b\x12+\n\x0b\xcb\x88'
tRp640
sg34
S'jpodolsk@Brocade.com'
p641
sg36
g25
(g26
g27
Vkathrynb1
tRp642
(dp643
g30
Nsg31
I00
sbsa(dp644
S'CancelDate'
p645
NsS'IsSubstitute'
p646
I00
sS'RegistrationType'
p647
S'Show Management'
p648
sS'Email'
p649
S'kathrynb@anitaborg.org'
p650
sS'StatusID'
p651
I2
sS'FirstName'
p652
S'Kathryn'
p653
sS'Title'
p654
S''
sS'LastName'
p655
S'Bautista'
p656
sS'Company'
p657
S'Anita Borg Institute'
p658
sS'ID'
p659
I77667879
sS'CCEmail'
p660
S''
sS'RegTypeID'
p661
I224943
sS'ModDate'
p662
g21
(S'\x07\xdf\x04\x1e\r5\x18\t\xc4\x00'
tRp663
sS'AddBy'
p664
g25
(g26
g27
Vkathrynb1
tRp665
(dp666
g30
Nsg31
I00
sbsS'AddDate'
p667
g21
(S'\x07\xdf\x01\x1c\x0b\x1c(\t\x00\xb0'
tRp668
sS'StatusDescription'
p669
S'Confirmed'
p670
sS'ModBy'
p671
g25
(g26
g27
Vkathrynb1
tRp672
(dp673
g30
Nsg31
I00
sbsa(dp674
g645
Nsg646
I00
sg647
S'Table Patron'
p675
sg649
S'claudiag@anitaborg.org'
p676
sg651
I2
sg652
S'Claudia'
p677
sg654
S''
sg655
S'Galvan'
p678
sg657
S'ABI.Local'
p679
sg659
I80861413
sg660
S'claudia.galvan@hotmail.com'
p680
sg661
I214082
sg662
g21
(S'\x07\xdf\x04\x1e\r86\n\xe1('
tRp681
sg664
g25
(g26
g27
VAttendee
tRp682
(dp683
g30
Nsg31
I00
sbsg667
g21
(S'\x07\xdf\x04\x14\x11\x03\x1e\x08\x978'
tRp684
sg669
S'Confirmed'
p685
sg671
g25
(g26
g27
Vkathrynb1
tRp686
(dp687
g30
Nsg31
I00
sbsa(dp688
S'CancelDate'
p689
NsS'IsSubstitute'
p690
I00
sS'RegistrationType'
p691
S'Table Patron'
p692
sS'FirstName'
p693
S'Sheila'
p694
sS'Title'
p695
S''
sS'LastName'
p696
S'Shull'
p697
sS'Company'
p698
S'Caltech'
p699
sS'ModDate'
p700
g21
(S'\x07\xdf\x04\x1e\x0e\x035\x01\xb9h'
tRp701
sS'StatusDescription'
p702
S'Confirmed'
p703
sS'RegTypeID'
p704
I214082
sS'ModBy'
p705
g25
(g26
g27
Vkathrynb1
tRp706
(dp707
g30
Nsg31
I00
sbsS'CCEmail'
p708
S'sheila@cms.caltech.edu'
p709
sS'ID'
p710
I78677527
sS'AddBy'
p711
g25
(g26
g27
VAttendee
tRp712
(dp713
g30
Nsg31
I00
sbsS'AddDate'
p714
g21
(S'\x07\xdf\x02\x18\x0b;\x05\nD\xe8'
tRp715
sS'StatusID'
p716
I2
sS'Email'
p717
S'sheila@caltech.edu'
p718
sa(dp719
S'CancelDate'
p720
NsS'IsSubstitute'
p721
I00
sS'RegistrationType'
p722
S'Table Patron'
p723
sS'Email'
p724
S'mangier@ebay.com'
p725
sS'StatusID'
p726
I2
sS'FirstName'
p727
S'Michelle'
p728
sS'Title'
p729
S''
sS'LastName'
p730
S'Angier'
p731
sS'Company'
p732
S'eBay Inc'
p733
sS'ModDate'
p734
g21
(S"\x07\xdf\x04\x1e\x0e/'\x03(\x98"
tRp735
sS'ID'
p736
I81057512
sS'RegTypeID'
p737
I214082
sS'CCEmail'
p738
S''
sS'AddBy'
p739
g25
(g26
g27
VAttendee
tRp740
(dp741
g30
Nsg31
I00
sbsS'AddDate'
p742
g21
(S"\x07\xdf\x04\x18\r'\x1b\x00ix"
tRp743
sS'StatusDescription'
p744
S'Confirmed'
p745
sS'ModBy'
p746
g25
(g26
g27
Vkathrynb1
tRp747
(dp748
g30
Nsg31
I00
sbsa(dp749
S'CancelDate'
p750
NsS'IsSubstitute'
p751
I00
sS'RegistrationType'
p752
S'Table Patron'
p753
sS'FirstName'
p754
S'Michele'
p755
sS'Title'
p756
S''
sS'LastName'
p757
S'Angier'
p758
sS'Company'
p759
S'PayPal'
p760
sS'ModDate'
p761
g21
(S'\x07\xdf\x05\x04\x0b5:\t\xc4\x00'
tRp762
sS'StatusDescription'
p763
S'Confirmed'
p764
sS'RegTypeID'
p765
I214082
sS'ModBy'
p766
g25
(g26
g27
Vkathrynb1
tRp767
(dp768
g30
Nsg31
I00
sbsS'CCEmail'
p769
S''
sS'ID'
p770
I81325031
sS'AddBy'
p771
g25
(g26
g27
Vkathrynb1
tRp772
(dp773
g30
Nsg31
I00
sbsS'AddDate'
p774
g21
(S'\x07\xdf\x04\x1e\x0e-4\x01\xfb\xd0'
tRp775
sS'StatusID'
p776
I2
sS'Email'
p777
S'kbfunctions@gmail.com'
p778
sa(dp779
S'CancelDate'
p780
NsS'IsSubstitute'
p781
I00
sS'RegistrationType'
p782
S'Table Patron'
p783
sS'FirstName'
p784
S'Leah'
p785
sS'Title'
p786
S''
sS'LastName'
p787
S'Jamieson'
p788
sS'Company'
p789
S'Leah Jamieson'
p790
sS'ModDate'
p791
g21
(S'\x07\xdf\x05\x05\t\x01*\x08\xbeH'
tRp792
sS'StatusID'
p793
I2
sS'StatusDescription'
p794
S'Confirmed'
p795
sS'RegTypeID'
p796
I214082
sS'CCEmail'
p797
S''
sS'ID'
p798
I80276476
sS'AddBy'
p799
g25
(g26
g27
VAttendee
tRp800
(dp801
g30
Nsg31
I00
sbsS'AddDate'
p802
g21
(S'\x07\xdf\x04\x06\x0e.\x1d\x01\x11p'
tRp803
sS'Email'
p804
S'lhj@purdue.edu'
p805
sS'ModBy'
p806
g25
(g26
g27
Vkathrynb1
tRp807
(dp808
g30
Nsg31
I00
sbsa(dp809
S'CancelDate'
p810
NsS'IsSubstitute'
p811
I00
sS'RegistrationType'
p812
S'Table Patron'
p813
sS'Email'
p814
S'alixh@amazon.com'
p815
sS'StatusID'
p816
I2
sS'FirstName'
p817
S'Alix'
p818
sS'Title'
p819
S''
sS'LastName'
p820
S'Hughes'
p821
sS'Company'
p822
S'Amazon'
p823
sS'ID'
p824
I81064536
sS'CCEmail'
p825
S'otepka@amazon.com'
p826
sS'RegTypeID'
p827
I214082
sS'ModDate'
p828
g21
(S'\x07\xdf\x05\x05\x0f!5\x0eW\xe0'
tRp829
sS'AddBy'
p830
g25
(g26
g27
VAttendee
tRp831
(dp832
g30
Nsg31
I00
sbsS'AddDate'
p833
g21
(S'\x07\xdf\x04\x18\x11\x17!\n\xd5p'
tRp834
sS'StatusDescription'
p835
S'Confirmed'
p836
sS'ModBy'
p837
g25
(g26
g27
Vkathrynb1
tRp838
(dp839
g30
Nsg31
I00
sbsa.