(lp0
(dp1
S'CancelDate'
p2
NsS'IsSubstitute'
p3
I00
sS'RegistrationType'
p4
ccopy_reg
_reconstructor
p5
(csuds.sax.text
Text
p6
c__builtin__
unicode
p7
VDinner Host
p8
tp9
Rp10
(dp11
S'lang'
p12
NsS'escaped'
p13
I00
sbsS'Email'
p14
g5
(g6
g7
Vstephanie.e.turner@lmco.com
p15
tp16
Rp17
(dp18
g12
Nsg13
I00
sbsS'StatusID'
p19
I2
sS'FirstName'
p20
g5
(g6
g7
VStephanie
p21
tp22
Rp23
(dp24
g12
Nsg13
I00
sbsS'Title'
p25
NsS'LastName'
p26
g5
(g6
g7
VTurner
p27
tp28
Rp29
(dp30
g12
Nsg13
I00
sbsS'Company'
p31
g5
(g6
g7
VLockheed Martin
p32
tp33
Rp34
(dp35
g12
Nsg13
I00
sbsS'ID'
p36
I77357383
sS'Phone'
p37
NsS'RegTypeID'
p38
I223397
sS'ModDate'
p39
cdatetime
datetime
p40
(S'\x07\xdf\x04\x08\x0b\x130\t\x0ch'
p41
tp42
Rp43
sS'AddBy'
p44
g5
(g6
g7
VmichaelI2
p45
tp46
Rp47
(dp48
g12
Nsg13
I00
sbsS'CCEmail'
p49
g5
(g6
g7
Vbrittney.majka@lmco.com
p50
tp51
Rp52
(dp53
g12
Nsg13
I00
sbsS'StatusDescription'
p54
g5
(g6
g7
VConfirmed
p55
tp56
Rp57
(dp58
g12
Nsg13
I00
sbsS'ModBy'
p59
g5
(g6
g7
Vkathrynb1
p60
tp61
Rp62
(dp63
g12
Nsg13
I00
sbsS'AddDate'
p64
g40
(S'\x07\xdf\x01\x14\x0e1\x13\x05\xc0\xa8'
p65
tp66
Rp67
sa(dp68
g2
Nsg3
I00
sg4
g5
(g6
g7
VTable Patron
p69
tp70
Rp71
(dp72
g12
Nsg13
I00
sbsg14
g5
(g6
g7
Vschmidta@vmware.com
p73
tp74
Rp75
(dp76
g12
Nsg13
I00
sbsg19
I2
sg20
g5
(g6
g7
VAmber
p77
tp78
Rp79
(dp80
g12
Nsg13
I00
sbsg25
S''
p81
sg26
g5
(g6
g7
VSchmidt
p82
tp83
Rp84
(dp85
g12
Nsg13
I00
sbsg31
g5
(g6
g7
VVMware
p86
tp87
Rp88
(dp89
g12
Nsg13
I00
sbsg36
I77448223
sg37
g5
(g6
g7
V6504273616
p90
tp91
Rp92
(dp93
g12
Nsg13
I00
sbsg38
I214082
sg39
g40
(S'\x07\xdf\x04\r\r\x05\x0f\x03\xb58'
p94
tp95
Rp96
sg44
g5
(g6
g7
VAttendee
p97
tp98
Rp99
(dp100
g12
Nsg13
I00
sbsg49
g81
sg54
g5
(g6
g7
VConfirmed
p101
tp102
Rp103
(dp104
g12
Nsg13
I00
sbsg59
g5
(g6
g7
Vkathrynb1
p105
tp106
Rp107
(dp108
g12
Nsg13
I00
sbsg64
g40
(S'\x07\xdf\x01\x16\x0e5\x13\x07\xc80'
p109
tp110
Rp111
sa(dp112
g2
Nsg3
I00
sg4
g5
(g6
g7
VTable Patron
p113
tp114
Rp115
(dp116
g12
Nsg13
I00
sbsg14
g5
(g6
g7
Vmphan@mayfield.com
p117
tp118
Rp119
(dp120
g12
Nsg13
I00
sbsg19
I2
sg20
g5
(g6
g7
VMimi
p121
tp122
Rp123
(dp124
g12
Nsg13
I00
sbsg25
g81
sg26
g5
(g6
g7
VPhan
p125
tp126
Rp127
(dp128
g12
Nsg13
I00
sbsg31
g5
(g6
g7
VMayfield
p129
tp130
Rp131
(dp132
g12
Nsg13
I00
sbsg36
I77506368
sg37
g81
sg38
I214082
sg39
g40
(S'\x07\xdf\x04\x08\x13\x16!\x04E\xc0'
p133
tp134
Rp135
sg44
g5
(g6
g7
VAttendee
p136
tp137
Rp138
(dp139
g12
Nsg13
I00
sbsg49
g81
sg54
g5
(g6
g7
VConfirmed
p140
tp141
Rp142
(dp143
g12
Nsg13
I00
sbsg59
g5
(g6
g7
Vkathrynb1
p144
tp145
Rp146
(dp147
g12
Nsg13
I00
sbsg64
g40
(S'\x07\xdf\x01\x17\x11\x1e3\x07z\x10'
p148
tp149
Rp150
sa(dp151
g2
Nsg3
I00
sg4
g5
(g6
g7
VGold Sponsor 
p152
tp153
Rp154
(dp155
g12
Nsg13
I00
sbsg14
g5
(g6
g7
Vtalia@netapp.com
p156
tp157
Rp158
(dp159
g12
Nsg13
I00
sbsg19
I2
sg20
g5
(g6
g7
VTalia
p160
tp161
Rp162
(dp163
g12
Nsg13
I00
sbsg25
g81
sg26
g5
(g6
g7
VReyes-Ortiz
p164
tp165
Rp166
(dp167
g12
Nsg13
I00
sbsg31
g5
(g6
g7
VNetApp
p168
tp169
Rp170
(dp171
g12
Nsg13
I00
sbsg36
I77665943
sg37
g81
sg38
I214083
sg39
g40
(S'\x07\xdf\x02\x14\r-+\x07\xe3\x88'
p172
tp173
Rp174
sg44
g5
(g6
g7
VAttendee
p175
tp176
Rp177
(dp178
g12
Nsg13
I00
sbsg49
g5
(g6
g7
Vmaggio@netapp.com
p179
tp180
Rp181
(dp182
g12
Nsg13
I00
sbsg54
g5
(g6
g7
VConfirmed
p183
tp184
Rp185
(dp186
g12
Nsg13
I00
sbsg59
g5
(g6
g7
Vkathrynb1
p187
tp188
Rp189
(dp190
g12
Nsg13
I00
sbsg64
g40
(S'\x07\xdf\x01\x1c\n3\x1e\x0b\xcb\x88'
p191
tp192
Rp193
sa(dp194
g2
Nsg3
I00
sg4
g5
(g6
g7
VShow Management
p195
tp196
Rp197
(dp198
g12
Nsg13
I00
sbsg14
g5
(g6
g7
Vkathrynb@anitaborg.org
p199
tp200
Rp201
(dp202
g12
Nsg13
I00
sbsg19
I2
sg20
g5
(g6
g7
VKathryn
p203
tp204
Rp205
(dp206
g12
Nsg13
I00
sbsg25
g81
sg26
g5
(g6
g7
VBautista
p207
tp208
Rp209
(dp210
g12
Nsg13
I00
sbsg31
g5
(g6
g7
VAnita Borg Institute
p211
tp212
Rp213
(dp214
g12
Nsg13
I00
sbsg36
I77667879
sg37
g81
sg38
I224943
sg39
g40
(S'\x07\xdf\x04\x16\x16\x120\nT\x88'
p215
tp216
Rp217
sg44
g5
(g6
g7
Vkathrynb1
p218
tp219
Rp220
(dp221
g12
Nsg13
I00
sbsg49
g81
sg54
g5
(g6
g7
VConfirmed
p222
tp223
Rp224
(dp225
g12
Nsg13
I00
sbsg59
g5
(g6
g7
Vkathrynb1
p226
tp227
Rp228
(dp229
g12
Nsg13
I00
sbsg64
g40
(S'\x07\xdf\x01\x1c\x0b\x1c(\t\x00\xb0'
p230
tp231
Rp232
sa(dp233
g2
Nsg3
I00
sg4
g5
(g6
g7
VSilver Sponsor 
p234
tp235
Rp236
(dp237
g12
Nsg13
I00
sbsg14
g5
(g6
g7
VPenelope.Peng@thomsonreuters.com
p238
tp239
Rp240
(dp241
g12
Nsg13
I00
sbsg19
I2
sg20
g5
(g6
g7
VPenelope
p242
tp243
Rp244
(dp245
g12
Nsg13
I00
sbsg25
g81
sg26
g5
(g6
g7
VPeng
p246
tp247
Rp248
(dp249
g12
Nsg13
I00
sbsg31
g5
(g6
g7
VThomson Reuters
p250
tp251
Rp252
(dp253
g12
Nsg13
I00
sbsg36
I77720596
sg37
g81
sg38
I214084
sg39
g40
(S'\x07\xdf\x02\x14\r-\x01\rm\x80'
p254
tp255
Rp256
sg44
g5
(g6
g7
VAttendee
p257
tp258
Rp259
(dp260
g12
Nsg13
I00
sbsg49
g81
sg54
g5
(g6
g7
VConfirmed
p261
tp262
Rp263
(dp264
g12
Nsg13
I00
sbsg59
g5
(g6
g7
Vkathrynb1
p265
tp266
Rp267
(dp268
g12
Nsg13
I00
sbsg64
g40
(S'\x07\xdf\x01\x1d\r\x19\x10\x03\x82p'
p269
tp270
Rp271
sa(dp272
g2
Nsg3
I00
sg4
g5
(g6
g7
VSilver Sponsor 
p273
tp274
Rp275
(dp276
g12
Nsg13
I00
sbsg14
g5
(g6
g7
Vbcureton@juniper.net
p277
tp278
Rp279
(dp280
g12
Nsg13
I00
sbsg19
I2
sg20
g5
(g6
g7
VBeth
p281
tp282
Rp283
(dp284
g12
Nsg13
I00
sbsg25
Nsg26
g5
(g6
g7
VCureton
p285
tp286
Rp287
(dp288
g12
Nsg13
I00
sbsg31
g5
(g6
g7
VJuniper Networks
p289
tp290
Rp291
(dp292
g12
Nsg13
I00
sbsg36
I77923295
sg37
Nsg38
I214084
sg39
g40
(S'\x07\xdf\x04\x16\x16\x04\x15\x0c\xf8P'
p293
tp294
Rp295
sg44
g5
(g6
g7
VAttendee
p296
tp297
Rp298
(dp299
g12
Nsg13
I00
sbsg49
g5
(g6
g7
Vvannguyen@juniper.net
p300
tp301
Rp302
(dp303
g12
Nsg13
I00
sbsg54
g5
(g6
g7
VConfirmed
p304
tp305
Rp306
(dp307
g12
Nsg13
I00
sbsg59
g5
(g6
g7
Vkathrynb1
p308
tp309
Rp310
(dp311
g12
Nsg13
I00
sbsg64
g40
(S'\x07\xdf\x02\x03\x10\x040\x01\x1d('
p312
tp313
Rp314
sa(dp315
g2
Nsg3
I00
sg4
g5
(g6
g7
VTable Patron
p316
tp317
Rp318
(dp319
g12
Nsg13
I00
sbsg14
g5
(g6
g7
Vjuanita.m.garcia@aexp.com
p320
tp321
Rp322
(dp323
g12
Nsg13
I00
sbsg19
I2
sg20
g5
(g6
g7
VYvonne
p324
tp325
Rp326
(dp327
g12
Nsg13
I00
sbsg25
g81
sg26
g5
(g6
g7
VSchneider
p328
tp329
Rp330
(dp331
g12
Nsg13
I00
sbsg31
g5
(g6
g7
VAmerican Express
p332
tp333
Rp334
(dp335
g12
Nsg13
I00
sbsg36
I78032852
sg37
g5
(g6
g7
V713-260-4707
p336
tp337
Rp338
(dp339
g12
Nsg13
I00
sbsg38
I214082
sg39
g40
(S'\x07\xdf\x02\x06\x0e\x1e&\x02\x07\x88'
p340
tp341
Rp342
sg44
g5
(g6
g7
VAttendee
p343
tp344
Rp345
(dp346
g12
Nsg13
I00
sbsg49
g5
(g6
g7
Vyvonne.n.schneider@aexp.com
p347
tp348
Rp349
(dp350
g12
Nsg13
I00
sbsg54
g5
(g6
g7
VConfirmed
p351
tp352
Rp353
(dp354
g12
Nsg13
I00
sbsg59
g5
(g6
g7
Vkathrynb1
p355
tp356
Rp357
(dp358
g12
Nsg13
I00
sbsg64
g40
(S'\x07\xdf\x02\x06\x0683\x08dp'
p359
tp360
Rp361
sa(dp362
g2
Nsg3
I00
sg4
g5
(g6
g7
VTable Patron
p363
tp364
Rp365
(dp366
g12
Nsg13
I00
sbsg14
g5
(g6
g7
Vdebi@smartforest.com
p367
tp368
Rp369
(dp370
g12
Nsg13
I00
sbsg19
I2
sg20
g5
(g6
g7
VDebi
p371
tp372
Rp373
(dp374
g12
Nsg13
I00
sbsg25
g81
sg26
g5
(g6
g7
VColeman
p375
tp376
Rp377
(dp378
g12
Nsg13
I00
sbsg31
g5
(g6
g7
VSmartForest Ventures
p379
tp380
Rp381
(dp382
g12
Nsg13
I00
sbsg36
I78056700
sg37
g5
(g6
g7
V503.241.4866
p383
tp384
Rp385
(dp386
g12
Nsg13
I00
sbsg38
I214082
sg39
g40
(S'\x07\xdf\x04\x08\x13 /\n\xfc\x80'
p387
tp388
Rp389
sg44
g5
(g6
g7
VAttendee
p390
tp391
Rp392
(dp393
g12
Nsg13
I00
sbsg49
g81
sg54
g5
(g6
g7
VConfirmed
p394
tp395
Rp396
(dp397
g12
Nsg13
I00
sbsg59
g5
(g6
g7
Vkathrynb1
p398
tp399
Rp400
(dp401
g12
Nsg13
I00
sbsg64
g40
(S'\x07\xdf\x02\x06\x0e\x18\x13\x0e\x9aH'
p402
tp403
Rp404
sa(dp405
g2
Nsg3
I00
sg4
g5
(g6
g7
VTable Patron
p406
tp407
Rp408
(dp409
g12
Nsg13
I00
sbsg14
g5
(g6
g7
Vnargis.kakar@lamresearch.com
p410
tp411
Rp412
(dp413
g12
Nsg13
I00
sbsg19
I2
sg20
g5
(g6
g7
VNargis
p414
tp415
Rp416
(dp417
g12
Nsg13
I00
sbsg25
g81
sg26
g5
(g6
g7
VKakar
p418
tp419
Rp420
(dp421
g12
Nsg13
I00
sbsg31
g5
(g6
g7
VLam Research Corporation
p422
tp423
Rp424
(dp425
g12
Nsg13
I00
sbsg36
I78177898
sg37
g5
(g6
g7
V510-572-0200
p426
tp427
Rp428
(dp429
g12
Nsg13
I00
sbsg38
I214082
sg39
g40
(S'\x07\xdf\x02\x0b\x0b\x06&\x00\x9c@'
p430
tp431
Rp432
sg44
g5
(g6
g7
VAttendee
p433
tp434
Rp435
(dp436
g12
Nsg13
I00
sbsg49
g5
(g6
g7
Vcolleen.connery@lamresearch.com
p437
tp438
Rp439
(dp440
g12
Nsg13
I00
sbsg54
g5
(g6
g7
VConfirmed
p441
tp442
Rp443
(dp444
g12
Nsg13
I00
sbsg59
g5
(g6
g7
Vkathrynb1
p445
tp446
Rp447
(dp448
g12
Nsg13
I00
sbsg64
g40
(S'\x07\xdf\x02\n\x0c\x1d4\x06\xf9('
p449
tp450
Rp451
sa(dp452
g2
Nsg3
I00
sg4
g5
(g6
g7
VTable Patron
p453
tp454
Rp455
(dp456
g12
Nsg13
I00
sbsg14
g5
(g6
g7
Vjulielar@microsoft.com
p457
tp458
Rp459
(dp460
g12
Nsg13
I00
sbsg19
I2
sg20
g5
(g6
g7
VJulie
p461
tp462
Rp463
(dp464
g12
Nsg13
I00
sbsg25
g81
sg26
g5
(g6
g7
VLarson-Green
p465
tp466
Rp467
(dp468
g12
Nsg13
I00
sbsg31
g5
(g6
g7
VMicrosoft
p469
tp470
Rp471
(dp472
g12
Nsg13
I00
sbsg36
I78195678
sg37
g5
(g6
g7
V4258828080
p473
tp474
Rp475
(dp476
g12
Nsg13
I00
sbsg38
I214082
sg39
g40
(S'\x07\xdf\x04\r\r\x01\x06\t\x9c\xf0'
p477
tp478
Rp479
sg44
g5
(g6
g7
VAttendee
p480
tp481
Rp482
(dp483
g12
Nsg13
I00
sbsg49
g5
(g6
g7
Vjudykim@microsoft.com
p484
tp485
Rp486
(dp487
g12
Nsg13
I00
sbsg54
g5
(g6
g7
VConfirmed
p488
tp489
Rp490
(dp491
g12
Nsg13
I00
sbsg59
g5
(g6
g7
Vkathrynb1
p492
tp493
Rp494
(dp495
g12
Nsg13
I00
sbsg64
g40
(S'\x07\xdf\x02\n\x13$6\x08X\xb8'
p496
tp497
Rp498
sa(dp499
g2
Nsg3
I00
sg4
g5
(g6
g7
VTable Patron
p500
tp501
Rp502
(dp503
g12
Nsg13
I00
sbsg14
g5
(g6
g7
Vkaren.kardian@capitalone.com
p504
tp505
Rp506
(dp507
g12
Nsg13
I00
sbsg19
I2
sg20
g5
(g6
g7
VKaren
p508
tp509
Rp510
(dp511
g12
Nsg13
I00
sbsg25
g81
sg26
g5
(g6
g7
VKardian
p512
tp513
Rp514
(dp515
g12
Nsg13
I00
sbsg31
g5
(g6
g7
VCapital One
p516
tp517
Rp518
(dp519
g12
Nsg13
I00
sbsg36
I78219056
sg37
g81
sg38
I214082
sg39
g40
(S'\x07\xdf\x04\r\x0c3!\x00Y\xd8'
p520
tp521
Rp522
sg44
g5
(g6
g7
VAttendee
p523
tp524
Rp525
(dp526
g12
Nsg13
I00
sbsg49
g81
sg54
g5
(g6
g7
VConfirmed
p527
tp528
Rp529
(dp530
g12
Nsg13
I00
sbsg59
g5
(g6
g7
Vkathrynb1
p531
tp532
Rp533
(dp534
g12
Nsg13
I00
sbsg64
g40
(S'\x07\xdf\x02\x0b\n\x12\x02\r\x1f`'
p535
tp536
Rp537
sa(dp538
g2
Nsg3
I00
sg4
g5
(g6
g7
VTable Patron
p539
tp540
Rp541
(dp542
g12
Nsg13
I00
sbsg14
g5
(g6
g7
Vrachel.rocero@hackreactor.com
p543
tp544
Rp545
(dp546
g12
Nsg13
I00
sbsg19
I2
sg20
g5
(g6
g7
VRachel
p547
tp548
Rp549
(dp550
g12
Nsg13
I00
sbsg25
g81
sg26
g5
(g6
g7
VRocero
p551
tp552
Rp553
(dp554
g12
Nsg13
I00
sbsg31
g5
(g6
g7
VHack Reactor
p555
tp556
Rp557
(dp558
g12
Nsg13
I00
sbsg36
I78322473
sg37
g5
(g6
g7
V415-244-8128
p559
tp560
Rp561
(dp562
g12
Nsg13
I00
sbsg38
I214082
sg39
g40
(S'\x07\xdf\x02\r\x1180\x07\x10\x98'
p563
tp564
Rp565
sg44
g5
(g6
g7
VAttendee
p566
tp567
Rp568
(dp569
g12
Nsg13
I00
sbsg49
g81
sg54
g5
(g6
g7
VConfirmed
p570
tp571
Rp572
(dp573
g12
Nsg13
I00
sbsg59
g5
(g6
g7
Vkathrynb1
p574
tp575
Rp576
(dp577
g12
Nsg13
I00
sbsg64
g40
(S'\x07\xdf\x02\r\x112\x1a\x0c\x19\xa8'
p578
tp579
Rp580
sa(dp581
g2
Nsg3
I00
sg4
g5
(g6
g7
VTable Patron
p582
tp583
Rp584
(dp585
g12
Nsg13
I00
sbsg14
g5
(g6
g7
Vjenny_choo@intuit.com
p586
tp587
Rp588
(dp589
g12
Nsg13
I00
sbsg19
I2
sg20
g5
(g6
g7
VJenny
p590
tp591
Rp592
(dp593
g12
Nsg13
I00
sbsg25
Nsg26
g5
(g6
g7
VChoo
p594
tp595
Rp596
(dp597
g12
Nsg13
I00
sbsg31
g5
(g6
g7
VIntuit
p598
tp599
Rp600
(dp601
g12
Nsg13
I00
sbsg36
I78324562
sg37
Nsg38
I214082
sg39
g40
(S'\x07\xdf\x04\r\x0c; \x03v\xb8'
p602
tp603
Rp604
sg44
g5
(g6
g7
VAttendee
p605
tp606
Rp607
(dp608
g12
Nsg13
I00
sbsg49
g5
(g6
g7
Vkyle_coulter@intuit.com
p609
tp610
Rp611
(dp612
g12
Nsg13
I00
sbsg54
g5
(g6
g7
VConfirmed
p613
tp614
Rp615
(dp616
g12
Nsg13
I00
sbsg59
g5
(g6
g7
Vkathrynb1
p617
tp618
Rp619
(dp620
g12
Nsg13
I00
sbsg64
g40
(S'\x07\xdf\x02\r\x11\x167\x03\x01\x88'
p621
tp622
Rp623
sa(dp624
g2
Nsg3
I00
sg4
g5
(g6
g7
VTable Patron
p625
tp626
Rp627
(dp628
g12
Nsg13
I00
sbsg14
g5
(g6
g7
Vszlosep@nationwide.com
p629
tp630
Rp631
(dp632
g12
Nsg13
I00
sbsg19
I2
sg20
g5
(g6
g7
VPaul
p633
tp634
Rp635
(dp636
g12
Nsg13
I00
sbsg25
g81
sg26
g5
(g6
g7
VSzlosek
p637
tp638
Rp639
(dp640
g12
Nsg13
I00
sbsg31
g5
(g6
g7
VNationwide Insurance
p641
tp642
Rp643
(dp644
g12
Nsg13
I00
sbsg36
I78419710
sg37
g81
sg38
I214082
sg39
g40
(S'\x07\xdf\x04\r\r\x02$\x0e~\xf0'
p645
tp646
Rp647
sg44
g5
(g6
g7
VAttendee
p648
tp649
Rp650
(dp651
g12
Nsg13
I00
sbsg49
g81
sg54
g5
(g6
g7
VConfirmed
p652
tp653
Rp654
(dp655
g12
Nsg13
I00
sbsg59
g5
(g6
g7
Vkathrynb1
p656
tp657
Rp658
(dp659
g12
Nsg13
I00
sbsg64
g40
(S'\x07\xdf\x02\x11\x0b21\x034P'
p660
tp661
Rp662
sa(dp663
g2
Nsg3
I00
sg4
g5
(g6
g7
VSilver Sponsor 
p664
tp665
Rp666
(dp667
g12
Nsg13
I00
sbsg14
g5
(g6
g7
Vcindy.stanphill@hp.com
p668
tp669
Rp670
(dp671
g12
Nsg13
I00
sbsg19
I2
sg20
g5
(g6
g7
VCindy
p672
tp673
Rp674
(dp675
g12
Nsg13
I00
sbsg25
g81
sg26
g5
(g6
g7
VStanphill
p676
tp677
Rp678
(dp679
g12
Nsg13
I00
sbsg31
g5
(g6
g7
VHewlett-Packard
p680
tp681
Rp682
(dp683
g12
Nsg13
I00
sbsg36
I78466179
sg37
g81
sg38
I214084
sg39
g40
(S'\x07\xdf\x02\x14\r,\x1e\x07nX'
p684
tp685
Rp686
sg44
g5
(g6
g7
VAttendee
p687
tp688
Rp689
(dp690
g12
Nsg13
I00
sbsg49
g81
sg54
g5
(g6
g7
VConfirmed
p691
tp692
Rp693
(dp694
g12
Nsg13
I00
sbsg59
g5
(g6
g7
Vkathrynb1
p695
tp696
Rp697
(dp698
g12
Nsg13
I00
sbsg64
g40
(S'\x07\xdf\x02\x12\x0c\x10\x03\x0c\x028'
p699
tp700
Rp701
sa(dp702
g2
Nsg3
I00
sg4
g5
(g6
g7
VGold Sponsor 
p703
tp704
Rp705
(dp706
g12
Nsg13
I00
sbsg14
g5
(g6
g7
Vjeamarti@cisco.com
p707
tp708
Rp709
(dp710
g12
Nsg13
I00
sbsg19
I2
sg20
g5
(g6
g7
VJeanne
p711
tp712
Rp713
(dp714
g12
Nsg13
I00
sbsg25
g81
sg26
g5
(g6
g7
VMartin
p715
tp716
Rp717
(dp718
g12
Nsg13
I00
sbsg31
g5
(g6
g7
VCisco
p719
tp720
Rp721
(dp722
g12
Nsg13
I00
sbsg36
I78466893
sg37
g81
sg38
I214083
sg39
g40
(S'\x07\xdf\x02\x14\r.\x00\x07\xef@'
p723
tp724
Rp725
sg44
g5
(g6
g7
VAttendee
p726
tp727
Rp728
(dp729
g12
Nsg13
I00
sbsg49
g81
sg54
g5
(g6
g7
VConfirmed
p730
tp731
Rp732
(dp733
g12
Nsg13
I00
sbsg59
g5
(g6
g7
Vkathrynb1
p734
tp735
Rp736
(dp737
g12
Nsg13
I00
sbsg64
g40
(S'\x07\xdf\x02\x12\x0c\x19\x1c\x06\x0e\xc8'
p738
tp739
Rp740
sa(dp741
g2
Nsg3
I00
sg4
g5
(g6
g7
VTable Patron
p742
tp743
Rp744
(dp745
g12
Nsg13
I00
sbsg14
g5
(g6
g7
VConsuelo_Rodriguez@Dell.com
p746
tp747
Rp748
(dp749
g12
Nsg13
I00
sbsg19
I2
sg20
g5
(g6
g7
VConsuelo
p750
tp751
Rp752
(dp753
g12
Nsg13
I00
sbsg25
Nsg26
g5
(g6
g7
VRodriguez
p754
tp755
Rp756
(dp757
g12
Nsg13
I00
sbsg31
g5
(g6
g7
VDell
p758
tp759
Rp760
(dp761
g12
Nsg13
I00
sbsg36
I78476504
sg37
Nsg38
I214082
sg39
g40
(S'\x07\xdf\x04\r\x0c5\n\n\x1d\xd8'
p762
tp763
Rp764
sg44
g5
(g6
g7
VAttendee
p765
tp766
Rp767
(dp768
g12
Nsg13
I00
sbsg49
Nsg54
g5
(g6
g7
VConfirmed
p769
tp770
Rp771
(dp772
g12
Nsg13
I00
sbsg59
g5
(g6
g7
Vkathrynb1
p773
tp774
Rp775
(dp776
g12
Nsg13
I00
sbsg64
g40
(S'\x07\xdf\x02\x12\x0f\x0e\x0c\x0c@\xb8'
p777
tp778
Rp779
sa(dp780
g2
Nsg3
I00
sg4
g5
(g6
g7
VTable Patron
p781
tp782
Rp783
(dp784
g12
Nsg13
I00
sbsg14
g5
(g6
g7
Vikendall@apple.com
p785
tp786
Rp787
(dp788
g12
Nsg13
I00
sbsg19
I2
sg20
g5
(g6
g7
VIrene
p789
tp790
Rp791
(dp792
g12
Nsg13
I00
sbsg25
g81
sg26
g5
(g6
g7
VKendall
p793
tp794
Rp795
(dp796
g12
Nsg13
I00
sbsg31
g5
(g6
g7
VApple
p797
tp798
Rp799
(dp800
g12
Nsg13
I00
sbsg36
I78477353
sg37
g81
sg38
I214082
sg39
g40
(S'\x07\xdf\x04\r\x0c.1\x0c\x8e\xd8'
p801
tp802
Rp803
sg44
g5
(g6
g7
VAttendee
p804
tp805
Rp806
(dp807
g12
Nsg13
I00
sbsg49
g81
sg54
g5
(g6
g7
VConfirmed
p808
tp809
Rp810
(dp811
g12
Nsg13
I00
sbsg59
g5
(g6
g7
Vkathrynb1
p812
tp813
Rp814
(dp815
g12
Nsg13
I00
sbsg64
g40
(S'\x07\xdf\x02\x12\x0f\x17-\nD\xe8'
p816
tp817
Rp818
sa(dp819
g2
Nsg3
I00
sg4
g5
(g6
g7
VTable Patron
p820
tp821
Rp822
(dp823
g12
Nsg13
I00
sbsg14
g5
(g6
g7
Vrvannest@marketo.com
p824
tp825
Rp826
(dp827
g12
Nsg13
I00
sbsg19
I2
sg20
g5
(g6
g7
VRory
p828
tp829
Rp830
(dp831
g12
Nsg13
I00
sbsg25
g81
sg26
g5
(g6
g7
VVan Nest
p832
tp833
Rp834
(dp835
g12
Nsg13
I00
sbsg31
g5
(g6
g7
VMarketo
p836
tp837
Rp838
(dp839
g12
Nsg13
I00
sbsg36
I78482258
sg37
g81
sg38
I214082
sg39
g40
(S'\x07\xdf\x02\x12\x17\x0c8\x00\x0b\xb8'
p840
tp841
Rp842
sg44
g5
(g6
g7
VAttendee
p843
tp844
Rp845
(dp846
g12
Nsg13
I00
sbsg49
g81
sg54
g5
(g6
g7
VConfirmed
p847
tp848
Rp849
(dp850
g12
Nsg13
I00
sbsg59
g5
(g6
g7
Vkathrynb1
p851
tp852
Rp853
(dp854
g12
Nsg13
I00
sbsg64
g40
(S'\x07\xdf\x02\x12\x11(*\x00\xa7\xf8'
p855
tp856
Rp857
sa(dp858
g2
Nsg3
I00
sg4
g5
(g6
g7
VTable Patron
p859
tp860
Rp861
(dp862
g12
Nsg13
I00
sbsg14
g5
(g6
g7
Vdana.vandecoevering@intel.com
p863
tp864
Rp865
(dp866
g12
Nsg13
I00
sbsg19
I2
sg20
g5
(g6
g7
VDana
p867
tp868
Rp869
(dp870
g12
Nsg13
I00
sbsg25
g81
sg26
g5
(g6
g7
VVandecoevering
p871
tp872
Rp873
(dp874
g12
Nsg13
I00
sbsg31
g5
(g6
g7
VIntel
p875
tp876
Rp877
(dp878
g12
Nsg13
I00
sbsg36
I78525071
sg37
g81
sg38
I214082
sg39
g40
(S'\x07\xdf\x04\r\x0c:\x17\x0c5\x00'
p879
tp880
Rp881
sg44
g5
(g6
g7
VAttendee
p882
tp883
Rp884
(dp885
g12
Nsg13
I00
sbsg49
g81
sg54
g5
(g6
g7
VConfirmed
p886
tp887
Rp888
(dp889
g12
Nsg13
I00
sbsg59
g5
(g6
g7
Vkathrynb1
p890
tp891
Rp892
(dp893
g12
Nsg13
I00
sbsg64
g40
(S'\x07\xdf\x02\x13\x10\x0e%\x01\xad\xb0'
p894
tp895
Rp896
sa(dp897
g2
Nsg3
I00
sg4
g5
(g6
g7
VTable Patron
p898
tp899
Rp900
(dp901
g12
Nsg13
I00
sbsg14
g5
(g6
g7
Vsheila@caltech.edu
p902
tp903
Rp904
(dp905
g12
Nsg13
I00
sbsg19
I2
sg20
g5
(g6
g7
VSheila
p906
tp907
Rp908
(dp909
g12
Nsg13
I00
sbsg25
g81
sg26
g5
(g6
g7
VShull
p910
tp911
Rp912
(dp913
g12
Nsg13
I00
sbsg31
g5
(g6
g7
VCaltech
p914
tp915
Rp916
(dp917
g12
Nsg13
I00
sbsg36
I78677527
sg37
g5
(g6
g7
V6263954560
p918
tp919
Rp920
(dp921
g12
Nsg13
I00
sbsg38
I214082
sg39
g40
(S'\x07\xdf\x02\x19\x0c3\x0b\t\xa8\xa8'
p922
tp923
Rp924
sg44
g5
(g6
g7
VAttendee
p925
tp926
Rp927
(dp928
g12
Nsg13
I00
sbsg49
g5
(g6
g7
Vsheila@cms.caltech.edu
p929
tp930
Rp931
(dp932
g12
Nsg13
I00
sbsg54
g5
(g6
g7
VConfirmed
p933
tp934
Rp935
(dp936
g12
Nsg13
I00
sbsg59
g5
(g6
g7
Vkathrynb1
p937
tp938
Rp939
(dp940
g12
Nsg13
I00
sbsg64
g40
(S'\x07\xdf\x02\x18\x0b;\x05\nD\xe8'
p941
tp942
Rp943
sa(dp944
g2
Nsg3
I00
sg4
g5
(g6
g7
VTable Patron
p945
tp946
Rp947
(dp948
g12
Nsg13
I00
sbsg14
g5
(g6
g7
Vkatie.swank@emc.com
p949
tp950
Rp951
(dp952
g12
Nsg13
I00
sbsg19
I2
sg20
g5
(g6
g7
VKatie
p953
tp954
Rp955
(dp956
g12
Nsg13
I00
sbsg25
g81
sg26
g5
(g6
g7
VSwank
p957
tp958
Rp959
(dp960
g12
Nsg13
I00
sbsg31
g5
(g6
g7
VEMC
p961
tp962
Rp963
(dp964
g12
Nsg13
I00
sbsg36
I78730680
sg37
g81
sg38
I214082
sg39
g40
(S'\x07\xdf\x04\r\x0c5;\x05\xd8\x18'
p965
tp966
Rp967
sg44
g5
(g6
g7
VAttendee
p968
tp969
Rp970
(dp971
g12
Nsg13
I00
sbsg49
g81
sg54
g5
(g6
g7
VConfirmed
p972
tp973
Rp974
(dp975
g12
Nsg13
I00
sbsg59
g5
(g6
g7
Vkathrynb1
p976
tp977
Rp978
(dp979
g12
Nsg13
I00
sbsg64
g40
(S'\x07\xdf\x02\x19\x0c"5\x06\x0e\xc8'
p980
tp981
Rp982
sa(dp983
g2
Nsg3
I00
sg4
g5
(g6
g7
VSilver Sponsor 
p984
tp985
Rp986
(dp987
g12
Nsg13
I00
sbsg14
g5
(g6
g7
Vruha_devanesan@symantec.com
p988
tp989
Rp990
(dp991
g12
Nsg13
I00
sbsg19
I2
sg20
g5
(g6
g7
VRuha
p992
tp993
Rp994
(dp995
g12
Nsg13
I00
sbsg25
Nsg26
g5
(g6
g7
VDevanesan
p996
tp997
Rp998
(dp999
g12
Nsg13
I00
sbsg31
g5
(g6
g7
VSymantec Corp
p1000
tp1001
Rp1002
(dp1003
g12
Nsg13
I00
sbsg36
I78736369
sg37
Nsg38
I214084
sg39
g40
(S'\x07\xdf\x04\x17\x08+\x1c\x06\x0e\xc8'
p1004
tp1005
Rp1006
sg44
g5
(g6
g7
VAttendee
p1007
tp1008
Rp1009
(dp1010
g12
Nsg13
I00
sbsg49
g5
(g6
g7
Vantoine_andrews@symantec.com
p1011
tp1012
Rp1013
(dp1014
g12
Nsg13
I00
sbsg54
g5
(g6
g7
VConfirmed
p1015
tp1016
Rp1017
(dp1018
g12
Nsg13
I00
sbsg59
g5
(g6
g7
Vkathrynb1
p1019
tp1020
Rp1021
(dp1022
g12
Nsg13
I00
sbsg64
g40
(S'\x07\xdf\x02\x19\x0e\x04\x1e\x02|\xb8'
p1023
tp1024
Rp1025
sa(dp1026
g2
Nsg3
I00
sg4
g5
(g6
g7
VTable Patron
p1027
tp1028
Rp1029
(dp1030
g12
Nsg13
I00
sbsg14
g5
(g6
g7
Vdbarbosa@firstrain.com
p1031
tp1032
Rp1033
(dp1034
g12
Nsg13
I00
sbsg19
I2
sg20
g5
(g6
g7
VDaniela
p1035
tp1036
Rp1037
(dp1038
g12
Nsg13
I00
sbsg25
g81
sg26
g5
(g6
g7
VBarbosa
p1039
tp1040
Rp1041
(dp1042
g12
Nsg13
I00
sbsg31
g5
(g6
g7
VFirstRain
p1043
tp1044
Rp1045
(dp1046
g12
Nsg13
I00
sbsg36
I79027030
sg37
g81
sg38
I214082
sg39
g40
(S'\x07\xdf\x03\x04\x0b1\x1e\x08\x16P'
p1047
tp1048
Rp1049
sg44
g5
(g6
g7
VAttendee
p1050
tp1051
Rp1052
(dp1053
g12
Nsg13
I00
sbsg49
g5
(g6
g7
Vdaniela@firstrain.com
p1054
tp1055
Rp1056
(dp1057
g12
Nsg13
I00
sbsg54
g5
(g6
g7
VConfirmed
p1058
tp1059
Rp1060
(dp1061
g12
Nsg13
I00
sbsg59
g5
(g6
g7
Vkathrynb1
p1062
tp1063
Rp1064
(dp1065
g12
Nsg13
I00
sbsg64
g40
(S'\x07\xdf\x03\x04\x0b\x12.\x00\xf6\x18'
p1066
tp1067
Rp1068
sa(dp1069
g2
Nsg3
I00
sg4
g5
(g6
g7
VTable Patron
p1070
tp1071
Rp1072
(dp1073
g12
Nsg13
I00
sbsg14
g5
(g6
g7
Vdeborah.morris@bestbuy.com
p1074
tp1075
Rp1076
(dp1077
g12
Nsg13
I00
sbsg19
I2
sg20
g5
(g6
g7
VDeb
p1078
tp1079
Rp1080
(dp1081
g12
Nsg13
I00
sbsg25
g81
sg26
g5
(g6
g7
VMorris
p1082
tp1083
Rp1084
(dp1085
g12
Nsg13
I00
sbsg31
g5
(g6
g7
VBest Buy
p1086
tp1087
Rp1088
(dp1089
g12
Nsg13
I00
sbsg36
I79171718
sg37
g81
sg38
I214082
sg39
g40
(S'\x07\xdf\x04\r\x0c0\x00\n\x93\x08'
p1090
tp1091
Rp1092
sg44
g5
(g6
g7
VAttendee
p1093
tp1094
Rp1095
(dp1096
g12
Nsg13
I00
sbsg49
g81
sg54
g5
(g6
g7
VConfirmed
p1097
tp1098
Rp1099
(dp1100
g12
Nsg13
I00
sbsg59
g5
(g6
g7
Vkathrynb1
p1101
tp1102
Rp1103
(dp1104
g12
Nsg13
I00
sbsg64
g40
(S'\x07\xdf\x03\x08\x0c;4\x05b\xe8'
p1105
tp1106
Rp1107
sa(dp1108
g2
Nsg3
I00
sg4
g5
(g6
g7
VTable Patron
p1109
tp1110
Rp1111
(dp1112
g12
Nsg13
I00
sbsg14
g5
(g6
g7
VErica.Christensen@ca.com
p1113
tp1114
Rp1115
(dp1116
g12
Nsg13
I00
sbsg19
I2
sg20
g5
(g6
g7
VErica
p1117
tp1118
Rp1119
(dp1120
g12
Nsg13
I00
sbsg25
g81
sg26
g5
(g6
g7
VChristensen
p1121
tp1122
Rp1123
(dp1124
g12
Nsg13
I00
sbsg31
g5
(g6
g7
VCA Technologies
p1125
tp1126
Rp1127
(dp1128
g12
Nsg13
I00
sbsg36
I79217804
sg37
g81
sg38
I214082
sg39
g40
(S'\x07\xdf\x04\r\x0c15\x03[`'
p1129
tp1130
Rp1131
sg44
g5
(g6
g7
VAttendee
p1132
tp1133
Rp1134
(dp1135
g12
Nsg13
I00
sbsg49
g5
(g6
g7
VMichelle.Barrett@ca.com
p1136
tp1137
Rp1138
(dp1139
g12
Nsg13
I00
sbsg54
g5
(g6
g7
VConfirmed
p1140
tp1141
Rp1142
(dp1143
g12
Nsg13
I00
sbsg59
g5
(g6
g7
Vkathrynb1
p1144
tp1145
Rp1146
(dp1147
g12
Nsg13
I00
sbsg64
g40
(S'\x07\xdf\x03\t\x0e\x111\x06\x1a\x80'
p1148
tp1149
Rp1150
sa(dp1151
g2
Nsg3
I00
sg4
g5
(g6
g7
VBronze Sponsor 
p1152
tp1153
Rp1154
(dp1155
g12
Nsg13
I00
sbsg14
g5
(g6
g7
Vdeanna.rutland@rackspace.com
p1156
tp1157
Rp1158
(dp1159
g12
Nsg13
I00
sbsg19
I2
sg20
g5
(g6
g7
VDeanna
p1160
tp1161
Rp1162
(dp1163
g12
Nsg13
I00
sbsg25
g81
sg26
g5
(g6
g7
VRutland
p1164
tp1165
Rp1166
(dp1167
g12
Nsg13
I00
sbsg31
g5
(g6
g7
VRackspace
p1168
tp1169
Rp1170
(dp1171
g12
Nsg13
I00
sbsg36
I79478599
sg37
g81
sg38
I214085
sg39
g40
(S'\x07\xdf\x03\x1f\x0c\x1e\x04\x07\x04\xe0'
p1172
tp1173
Rp1174
sg44
g5
(g6
g7
VAttendee
p1175
tp1176
Rp1177
(dp1178
g12
Nsg13
I00
sbsg49
g5
(g6
g7
Vtrisha.medina@RACKSPACE.COM
p1179
tp1180
Rp1181
(dp1182
g12
Nsg13
I00
sbsg54
g5
(g6
g7
VConfirmed
p1183
tp1184
Rp1185
(dp1186
g12
Nsg13
I00
sbsg59
g5
(g6
g7
Vkathrynb1
p1187
tp1188
Rp1189
(dp1190
g12
Nsg13
I00
sbsg64
g40
(S'\x07\xdf\x03\x10\t3\x03\x0c)H'
p1191
tp1192
Rp1193
sa(dp1194
g2
Nsg3
I00
sg4
g5
(g6
g7
VShow Management
p1195
tp1196
Rp1197
(dp1198
g12
Nsg13
I00
sbsg14
g5
(g6
g7
Vgmcfall@wsgr.com
p1199
tp1200
Rp1201
(dp1202
g12
Nsg13
I00
sbsg19
I2
sg20
g5
(g6
g7
VGail
p1203
tp1204
Rp1205
(dp1206
g12
Nsg13
I00
sbsg25
g81
sg26
g5
(g6
g7
VMcFall
p1207
tp1208
Rp1209
(dp1210
g12
Nsg13
I00
sbsg31
g5
(g6
g7
VWSGR
p1211
tp1212
Rp1213
(dp1214
g12
Nsg13
I00
sbsg36
I79784433
sg37
g81
sg38
I224943
sg39
g40
(S'\x07\xdf\x03\x17\x15\r\x0c\x00ix'
p1215
tp1216
Rp1217
sg44
g5
(g6
g7
Vkathrynb1
p1218
tp1219
Rp1220
(dp1221
g12
Nsg13
I00
sbsg49
g81
sg54
g5
(g6
g7
VConfirmed
p1222
tp1223
Rp1224
(dp1225
g12
Nsg13
I00
sbsg59
g5
(g6
g7
Vkathrynb1
p1226
tp1227
Rp1228
(dp1229
g12
Nsg13
I00
sbsg64
g40
(S'\x07\xdf\x03\x17\x0f*2\t\xeb\x10'
p1230
tp1231
Rp1232
sa(dp1233
g2
Nsg3
I00
sg4
g5
(g6
g7
VShow Management
p1234
tp1235
Rp1236
(dp1237
g12
Nsg13
I00
sbsg14
g5
(g6
g7
Vbillunger1@mac.com
p1238
tp1239
Rp1240
(dp1241
g12
Nsg13
I00
sbsg19
I2
sg20
g5
(g6
g7
VBill
p1242
tp1243
Rp1244
(dp1245
g12
Nsg13
I00
sbsg25
g81
sg26
g5
(g6
g7
VUnger
p1246
tp1247
Rp1248
(dp1249
g12
Nsg13
I00
sbsg31
g5
(g6
g7
VBill Unger
p1250
tp1251
Rp1252
(dp1253
g12
Nsg13
I00
sbsg36
I79793143
sg37
g81
sg38
I224943
sg39
g40
(S'\x07\xdf\x03\x17\x15\r1\x00\x1bX'
p1254
tp1255
Rp1256
sg44
g5
(g6
g7
Vkathrynb1
p1257
tp1258
Rp1259
(dp1260
g12
Nsg13
I00
sbsg49
g81
sg54
g5
(g6
g7
VConfirmed
p1261
tp1262
Rp1263
(dp1264
g12
Nsg13
I00
sbsg59
g5
(g6
g7
Vkathrynb1
p1265
tp1266
Rp1267
(dp1268
g12
Nsg13
I00
sbsg64
g40
(S'\x07\xdf\x03\x17\x15\x057\x08\x16P'
p1269
tp1270
Rp1271
sa(dp1272
g2
Nsg3
I00
sg4
g5
(g6
g7
VTable Patron
p1273
tp1274
Rp1275
(dp1276
g12
Nsg13
I00
sbsg14
g5
(g6
g7
Vandreac@fb.com
p1277
tp1278
Rp1279
(dp1280
g12
Nsg13
I00
sbsg19
I2
sg20
g5
(g6
g7
VAndrea
p1281
tp1282
Rp1283
(dp1284
g12
Nsg13
I00
sbsg25
g81
sg26
g5
(g6
g7
VConstantinides
p1285
tp1286
Rp1287
(dp1288
g12
Nsg13
I00
sbsg31
g5
(g6
g7
VFacebook
p1289
tp1290
Rp1291
(dp1292
g12
Nsg13
I00
sbsg36
I79829222
sg37
g81
sg38
I214082
sg39
g40
(S'\x07\xdf\x04\x18\n2/\x00\xa7\xf8'
p1293
tp1294
Rp1295
sg44
g5
(g6
g7
VAttendee
p1296
tp1297
Rp1298
(dp1299
g12
Nsg13
I00
sbsg49
g81
sg54
g5
(g6
g7
VConfirmed
p1300
tp1301
Rp1302
(dp1303
g12
Nsg13
I00
sbsg59
g5
(g6
g7
Vkathrynb1
p1304
tp1305
Rp1306
(dp1307
g12
Nsg13
I00
sbsg64
g40
(S'\x07\xdf\x03\x18\r*3\x01\xe0x'
p1308
tp1309
Rp1310
sa(dp1311
g2
Nsg3
I00
sg4
g5
(g6
g7
VTable Patron
p1312
tp1313
Rp1314
(dp1315
g12
Nsg13
I00
sbsg14
g5
(g6
g7
Vhrhowell@us.ibm.com
p1316
tp1317
Rp1318
(dp1319
g12
Nsg13
I00
sbsg19
I2
sg20
g5
(g6
g7
VHeather
p1320
tp1321
Rp1322
(dp1323
g12
Nsg13
I00
sbsg25
g81
sg26
g5
(g6
g7
VHowell
p1324
tp1325
Rp1326
(dp1327
g12
Nsg13
I00
sbsg31
g5
(g6
g7
VIBM Corporation
p1328
tp1329
Rp1330
(dp1331
g12
Nsg13
I00
sbsg36
I79830969
sg37
g81
sg38
I214082
sg39
g40
(S'\x07\xdf\x04\r\x0c9\x04\x07GH'
p1332
tp1333
Rp1334
sg44
g5
(g6
g7
VAttendee
p1335
tp1336
Rp1337
(dp1338
g12
Nsg13
I00
sbsg49
g81
sg54
g5
(g6
g7
VConfirmed
p1339
tp1340
Rp1341
(dp1342
g12
Nsg13
I00
sbsg59
g5
(g6
g7
Vkathrynb1
p1343
tp1344
Rp1345
(dp1346
g12
Nsg13
I00
sbsg64
g40
(S'\x07\xdf\x03\x18\r4\x08\x02\xf1\xe8'
p1347
tp1348
Rp1349
sa(dp1350
g2
Nsg3
I00
sg4
g5
(g6
g7
VSilver Sponsor 
p1351
tp1352
Rp1353
(dp1354
g12
Nsg13
I00
sbsg14
g5
(g6
g7
Vlucille.mayer@bnymellon.com
p1355
tp1356
Rp1357
(dp1358
g12
Nsg13
I00
sbsg19
I2
sg20
g5
(g6
g7
VLucille
p1359
tp1360
Rp1361
(dp1362
g12
Nsg13
I00
sbsg25
Nsg26
g5
(g6
g7
VMayer
p1363
tp1364
Rp1365
(dp1366
g12
Nsg13
I00
sbsg31
g5
(g6
g7
VBNY Mellon
p1367
tp1368
Rp1369
(dp1370
g12
Nsg13
I00
sbsg36
I79868140
sg37
g5
(g6
g7
V07869
p1371
tp1372
Rp1373
(dp1374
g12
Nsg13
I00
sbsg38
I214084
sg39
g40
(S'\x07\xdf\x04\x0f\x0f4\x05\x07\xac\xd8'
p1375
tp1376
Rp1377
sg44
g5
(g6
g7
VAttendee
p1378
tp1379
Rp1380
(dp1381
g12
Nsg13
I00
sbsg49
g5
(g6
g7
Vddilaurenzio@pershing.com
p1382
tp1383
Rp1384
(dp1385
g12
Nsg13
I00
sbsg54
g5
(g6
g7
VConfirmed
p1386
tp1387
Rp1388
(dp1389
g12
Nsg13
I00
sbsg59
g5
(g6
g7
Vkathrynb1
p1390
tp1391
Rp1392
(dp1393
g12
Nsg13
I00
sbsg64
g40
(S'\x07\xdf\x03\x19\n;,\x0e\xb1\xb8'
p1394
tp1395
Rp1396
sa(dp1397
g2
Nsg3
I00
sg4
g5
(g6
g7
VBronze Sponsor 
p1398
tp1399
Rp1400
(dp1401
g12
Nsg13
I00
sbsg14
g5
(g6
g7
Vmarjorie@synopsys.com
p1402
tp1403
Rp1404
(dp1405
g12
Nsg13
I00
sbsg19
I2
sg20
g5
(g6
g7
VMarjorie
p1406
tp1407
Rp1408
(dp1409
g12
Nsg13
I00
sbsg25
g81
sg26
g5
(g6
g7
VMartinez
p1410
tp1411
Rp1412
(dp1413
g12
Nsg13
I00
sbsg31
g5
(g6
g7
VSynopsys Inc.
p1414
tp1415
Rp1416
(dp1417
g12
Nsg13
I00
sbsg36
I79877761
sg37
g81
sg38
I214085
sg39
g40
(S'\x07\xdf\x03\x1a\x13%\x1e\x00\xf6\x18'
p1418
tp1419
Rp1420
sg44
g5
(g6
g7
VAttendee
p1421
tp1422
Rp1423
(dp1424
g12
Nsg13
I00
sbsg49
g5
(g6
g7
Vjcradd@synopsys.com
p1425
tp1426
Rp1427
(dp1428
g12
Nsg13
I00
sbsg54
g5
(g6
g7
VConfirmed
p1429
tp1430
Rp1431
(dp1432
g12
Nsg13
I00
sbsg59
g5
(g6
g7
Vkathrynb1
p1433
tp1434
Rp1435
(dp1436
g12
Nsg13
I00
sbsg64
g40
(S'\x07\xdf\x03\x19\x0e\x0f\x1e\tu\xe0'
p1437
tp1438
Rp1439
sa(dp1440
g2
Nsg3
I00
sg4
g5
(g6
g7
VTable Patron
p1441
tp1442
Rp1443
(dp1444
g12
Nsg13
I00
sbsg14
g5
(g6
g7
Vaarvin@salesforce.com
p1445
tp1446
Rp1447
(dp1448
g12
Nsg13
I00
sbsg19
I2
sg20
g5
(g6
g7
VAlyssa
p1449
tp1450
Rp1451
(dp1452
g12
Nsg13
I00
sbsg25
g81
sg26
g5
(g6
g7
VArvin
p1453
tp1454
Rp1455
(dp1456
g12
Nsg13
I00
sbsg31
g5
(g6
g7
VSalesforce
p1457
tp1458
Rp1459
(dp1460
g12
Nsg13
I00
sbsg36
I80015964
sg37
g5
(g6
g7
V4154714603
p1461
tp1462
Rp1463
(dp1464
g12
Nsg13
I00
sbsg38
I214082
sg39
g40
(S'\x07\xdf\x04\r\r\x04\x0b\x05b\xe8'
p1465
tp1466
Rp1467
sg44
g5
(g6
g7
VAttendee
p1468
tp1469
Rp1470
(dp1471
g12
Nsg13
I00
sbsg49
g81
sg54
g5
(g6
g7
VConfirmed
p1472
tp1473
Rp1474
(dp1475
g12
Nsg13
I00
sbsg59
g5
(g6
g7
Vkathrynb1
p1476
tp1477
Rp1478
(dp1479
g12
Nsg13
I00
sbsg64
g40
(S'\x07\xdf\x03\x1e\x088\x00\x00\x00\x00'
p1480
tp1481
Rp1482
sa(dp1483
g2
Nsg3
I00
sg4
g5
(g6
g7
VBronze Sponsor 
p1484
tp1485
Rp1486
(dp1487
g12
Nsg13
I00
sbsg14
g5
(g6
g7
Vksumberg@google.com
p1488
tp1489
Rp1490
(dp1491
g12
Nsg13
I00
sbsg19
I2
sg20
g5
(g6
g7
VKaren
p1492
tp1493
Rp1494
(dp1495
g12
Nsg13
I00
sbsg25
Nsg26
g5
(g6
g7
VSumberg
p1496
tp1497
Rp1498
(dp1499
g12
Nsg13
I00
sbsg31
g5
(g6
g7
VGoogle
p1500
tp1501
Rp1502
(dp1503
g12
Nsg13
I00
sbsg36
I80045336
sg37
Nsg38
I214085
sg39
g40
(S'\x07\xdf\x04\x16\x15\x04\x13\x06&8'
p1504
tp1505
Rp1506
sg44
g5
(g6
g7
Vkathrynb1
p1507
tp1508
Rp1509
(dp1510
g12
Nsg13
I00
sbsg49
Nsg54
g5
(g6
g7
VConfirmed
p1511
tp1512
Rp1513
(dp1514
g12
Nsg13
I00
sbsg59
g5
(g6
g7
Vkathrynb1
p1515
tp1516
Rp1517
(dp1518
g12
Nsg13
I00
sbsg64
g40
(S'\x07\xdf\x03\x1e\x12\r#\x0b\xa4x'
p1519
tp1520
Rp1521
sa(dp1522
g2
Nsg3
I00
sg4
g5
(g6
g7
VTable Patron
p1523
tp1524
Rp1525
(dp1526
g12
Nsg13
I00
sbsg14
g5
(g6
g7
Vkaren_angemi@hmc.edu
p1527
tp1528
Rp1529
(dp1530
g12
Nsg13
I00
sbsg19
I2
sg20
g5
(g6
g7
VKaren
p1531
tp1532
Rp1533
(dp1534
g12
Nsg13
I00
sbsg25
g81
sg26
g5
(g6
g7
VAngemi
p1535
tp1536
Rp1537
(dp1538
g12
Nsg13
I00
sbsg31
g5
(g6
g7
VHarvey Mudd College
p1539
tp1540
Rp1541
(dp1542
g12
Nsg13
I00
sbsg36
I80082343
sg37
g5
(g6
g7
V9096218384
p1543
tp1544
Rp1545
(dp1546
g12
Nsg13
I00
sbsg38
I214082
sg39
g40
(S'\x07\xdf\x04\x01\t6-\x0cPX'
p1547
tp1548
Rp1549
sg44
g5
(g6
g7
VAttendee
p1550
tp1551
Rp1552
(dp1553
g12
Nsg13
I00
sbsg49
g81
sg54
g5
(g6
g7
VConfirmed
p1554
tp1555
Rp1556
(dp1557
g12
Nsg13
I00
sbsg59
g5
(g6
g7
VAttendee
p1558
tp1559
Rp1560
(dp1561
g12
Nsg13
I00
sbsg64
g40
(S'\x07\xdf\x03\x1f\x0c\x15.\r+\x18'
p1562
tp1563
Rp1564
sa(dp1565
g2
Nsg3
I00
sg4
g5
(g6
g7
VShow Management
p1566
tp1567
Rp1568
(dp1569
g12
Nsg13
I00
sbsg14
g5
(g6
g7
Vsheila_jordan@symantec.com
p1570
tp1571
Rp1572
(dp1573
g12
Nsg13
I00
sbsg19
I2
sg20
g5
(g6
g7
VSheila
p1574
tp1575
Rp1576
(dp1577
g12
Nsg13
I00
sbsg25
Nsg26
g5
(g6
g7
VJordan
p1578
tp1579
Rp1580
(dp1581
g12
Nsg13
I00
sbsg31
g5
(g6
g7
VSymantec Corp.
p1582
tp1583
Rp1584
(dp1585
g12
Nsg13
I00
sbsg36
I80133642
sg37
g5
(g6
g7
V6505275474
p1586
tp1587
Rp1588
(dp1589
g12
Nsg13
I00
sbsg38
I224943
sg39
g40
(S'\x07\xdf\x04\x16\x155\x0f\n\x93\x08'
p1590
tp1591
Rp1592
sg44
g5
(g6
g7
VAttendee
p1593
tp1594
Rp1595
(dp1596
g12
Nsg13
I00
sbsg49
g5
(g6
g7
Vsusan_nystrom@symantec.com
p1597
tp1598
Rp1599
(dp1600
g12
Nsg13
I00
sbsg54
g5
(g6
g7
VConfirmed
p1601
tp1602
Rp1603
(dp1604
g12
Nsg13
I00
sbsg59
g5
(g6
g7
Vkathrynb1
p1605
tp1606
Rp1607
(dp1608
g12
Nsg13
I00
sbsg64
g40
(S'\x07\xdf\x04\x01\x0c5-\x07\xa1 '
p1609
tp1610
Rp1611
sa(dp1612
g2
Nsg3
I00
sg4
g5
(g6
g7
VTable Patron
p1613
tp1614
Rp1615
(dp1616
g12
Nsg13
I00
sbsg14
g5
(g6
g7
Vkenzie.harper@ericsson.com
p1617
tp1618
Rp1619
(dp1620
g12
Nsg13
I00
sbsg19
I2
sg20
g5
(g6
g7
VTracy
p1621
tp1622
Rp1623
(dp1624
g12
Nsg13
I00
sbsg25
g81
sg26
g5
(g6
g7
VMcShane-Wilson
p1625
tp1626
Rp1627
(dp1628
g12
Nsg13
I00
sbsg31
g5
(g6
g7
VEricsson
p1629
tp1630
Rp1631
(dp1632
g12
Nsg13
I00
sbsg36
I80205953
sg37
g5
(g6
g7
V4052276241
p1633
tp1634
Rp1635
(dp1636
g12
Nsg13
I00
sbsg38
I214082
sg39
g40
(S'\x07\xdf\x04\r\x15&(\x04\xe2\x00'
p1637
tp1638
Rp1639
sg44
g5
(g6
g7
VAttendee
p1640
tp1641
Rp1642
(dp1643
g12
Nsg13
I00
sbsg49
g81
sg54
g5
(g6
g7
VConfirmed
p1644
tp1645
Rp1646
(dp1647
g12
Nsg13
I00
sbsg59
g5
(g6
g7
Vkathrynb1
p1648
tp1649
Rp1650
(dp1651
g12
Nsg13
I00
sbsg64
g40
(S'\x07\xdf\x04\x03\n\x07\x00\x08p('
p1652
tp1653
Rp1654
sa(dp1655
g2
Nsg3
I00
sg4
g5
(g6
g7
VTable Patron
p1656
tp1657
Rp1658
(dp1659
g12
Nsg13
I00
sbsg14
g5
(g6
g7
Vihalsey@linkedin.com
p1660
tp1661
Rp1662
(dp1663
g12
Nsg13
I00
sbsg19
I2
sg20
g5
(g6
g7
VIrena
p1664
tp1665
Rp1666
(dp1667
g12
Nsg13
I00
sbsg25
g5
(g6
g7
VInclusion Consultant
p1668
tp1669
Rp1670
(dp1671
g12
Nsg13
I00
sbsg26
g5
(g6
g7
VHalsey
p1672
tp1673
Rp1674
(dp1675
g12
Nsg13
I00
sbsg31
g5
(g6
g7
VLinkedIn
p1676
tp1677
Rp1678
(dp1679
g12
Nsg13
I00
sbsg36
I80266374
sg37
g81
sg38
I214082
sg39
g40
(S"\x07\xdf\x04\r\x15'\n\x0e0\xd0"
p1680
tp1681
Rp1682
sg44
g5
(g6
g7
VAttendee
p1683
tp1684
Rp1685
(dp1686
g12
Nsg13
I00
sbsg49
g81
sg54
g5
(g6
g7
VConfirmed
p1687
tp1688
Rp1689
(dp1690
g12
Nsg13
I00
sbsg59
g5
(g6
g7
Vkathrynb1
p1691
tp1692
Rp1693
(dp1694
g12
Nsg13
I00
sbsg64
g40
(S'\x07\xdf\x04\x06\x0b!#\r\x94\x90'
p1695
tp1696
Rp1697
sa(dp1698
g2
Nsg3
I00
sg4
g5
(g6
g7
VTable Patron
p1699
tp1700
Rp1701
(dp1702
g12
Nsg13
I00
sbsg14
g5
(g6
g7
Vlhj@purdue.edu
p1703
tp1704
Rp1705
(dp1706
g12
Nsg13
I00
sbsg19
I2
sg20
g5
(g6
g7
VLeah
p1707
tp1708
Rp1709
(dp1710
g12
Nsg13
I00
sbsg25
Nsg26
g5
(g6
g7
VJamieson
p1711
tp1712
Rp1713
(dp1714
g12
Nsg13
I00
sbsg31
g5
(g6
g7
VLeah Jamieson
p1715
tp1716
Rp1717
(dp1718
g12
Nsg13
I00
sbsg36
I80276476
sg37
Nsg38
I214082
sg39
g40
(S'\x07\xdf\x04\x06\x13\x12*\x0eW\xe0'
p1719
tp1720
Rp1721
sg44
g5
(g6
g7
VAttendee
p1722
tp1723
Rp1724
(dp1725
g12
Nsg13
I00
sbsg49
Nsg54
g5
(g6
g7
VConfirmed
p1726
tp1727
Rp1728
(dp1729
g12
Nsg13
I00
sbsg59
g5
(g6
g7
Vkathrynb1
p1730
tp1731
Rp1732
(dp1733
g12
Nsg13
I00
sbsg64
g40
(S'\x07\xdf\x04\x06\x0e.\x1d\x01\x11p'
p1734
tp1735
Rp1736
sa(dp1737
g2
Nsg3
I00
sg4
g5
(g6
g7
VTable Patron
p1738
tp1739
Rp1740
(dp1741
g12
Nsg13
I00
sbsg14
g5
(g6
g7
VSteve.Hoover@parc.com
p1742
tp1743
Rp1744
(dp1745
g12
Nsg13
I00
sbsg19
I2
sg20
g5
(g6
g7
VSteve
p1746
tp1747
Rp1748
(dp1749
g12
Nsg13
I00
sbsg25
g81
sg26
g5
(g6
g7
VHoover
p1750
tp1751
Rp1752
(dp1753
g12
Nsg13
I00
sbsg31
g5
(g6
g7
VPARC, A Xerox Company
p1754
tp1755
Rp1756
(dp1757
g12
Nsg13
I00
sbsg36
I80312904
sg37
g81
sg38
I214082
sg39
g40
(S'\x07\xdf\x04\x15\x120!\x07^\xb8'
p1758
tp1759
Rp1760
sg44
g5
(g6
g7
VAttendee
p1761
tp1762
Rp1763
(dp1764
g12
Nsg13
I00
sbsg49
g5
(g6
g7
VLisa.Andreasen@parc.com
p1765
tp1766
Rp1767
(dp1768
g12
Nsg13
I00
sbsg54
g5
(g6
g7
VConfirmed
p1769
tp1770
Rp1771
(dp1772
g12
Nsg13
I00
sbsg59
g5
(g6
g7
Vkathrynb1
p1773
tp1774
Rp1775
(dp1776
g12
Nsg13
I00
sbsg64
g40
(S'\x07\xdf\x04\x07\n\x034\x03\r@'
p1777
tp1778
Rp1779
sa(dp1780
g2
Nsg3
I01
sg4
g5
(g6
g7
VTable Patron
p1781
tp1782
Rp1783
(dp1784
g12
Nsg13
I00
sbsg14
g5
(g6
g7
Vdeandra.jeanlouis@workday.com
p1785
tp1786
Rp1787
(dp1788
g12
Nsg13
I00
sbsg19
I2
sg20
g5
(g6
g7
VDeAndra
p1789
tp1790
Rp1791
(dp1792
g12
Nsg13
I00
sbsg25
g81
sg26
g5
(g6
g7
VJean-Louis
p1793
tp1794
Rp1795
(dp1796
g12
Nsg13
I00
sbsg31
g5
(g6
g7
VWorkday, Inc.
p1797
tp1798
Rp1799
(dp1800
g12
Nsg13
I00
sbsg36
I80314050
sg37
g5
(g6
g7
V925-963-9908
p1801
tp1802
Rp1803
(dp1804
g12
Nsg13
I00
sbsg38
I214082
sg39
g40
(S'\x07\xdf\x04\x18\t\x1c#\x06\x8f\xb0'
p1805
tp1806
Rp1807
sg44
g5
(g6
g7
VAttendee
p1808
tp1809
Rp1810
(dp1811
g12
Nsg13
I00
sbsg49
g5
(g6
g7
Vcherissa.fachner@workday.com
p1812
tp1813
Rp1814
(dp1815
g12
Nsg13
I00
sbsg54
g5
(g6
g7
VConfirmed
p1816
tp1817
Rp1818
(dp1819
g12
Nsg13
I00
sbsg59
g5
(g6
g7
VAttendee
p1820
tp1821
Rp1822
(dp1823
g12
Nsg13
I00
sbsg64
g40
(S'\x07\xdf\x04\x07\n\x16/\x08dp'
p1824
tp1825
Rp1826
sa(dp1827
g2
Nsg3
I00
sg4
g5
(g6
g7
VTable Patron
p1828
tp1829
Rp1830
(dp1831
g12
Nsg13
I00
sbsg14
g5
(g6
g7
Vshaela_lawson@troweprice.com
p1832
tp1833
Rp1834
(dp1835
g12
Nsg13
I00
sbsg19
I2
sg20
g5
(g6
g7
VShaela
p1836
tp1837
Rp1838
(dp1839
g12
Nsg13
I00
sbsg25
g81
sg26
g5
(g6
g7
VLawson
p1840
tp1841
Rp1842
(dp1843
g12
Nsg13
I00
sbsg31
g5
(g6
g7
VT. Rowe Price
p1844
tp1845
Rp1846
(dp1847
g12
Nsg13
I00
sbsg36
I80371952
sg37
g81
sg38
I214082
sg39
g40
(S'\x07\xdf\x04\x08\x10\x1b\x13\x05W0'
p1848
tp1849
Rp1850
sg44
g5
(g6
g7
VAttendee
p1851
tp1852
Rp1853
(dp1854
g12
Nsg13
I00
sbsg49
g5
(g6
g7
Vnicole_laflamme@troweprice.com
p1855
tp1856
Rp1857
(dp1858
g12
Nsg13
I00
sbsg54
g5
(g6
g7
VConfirmed
p1859
tp1860
Rp1861
(dp1862
g12
Nsg13
I00
sbsg59
g5
(g6
g7
Vkathrynb1
p1863
tp1864
Rp1865
(dp1866
g12
Nsg13
I00
sbsg64
g40
(S"\x07\xdf\x04\x08\x0c\x19'\x06\xd2\x18"
p1867
tp1868
Rp1869
sa(dp1870
g2
Nsg3
I00
sg4
g5
(g6
g7
VTable Patron
p1871
tp1872
Rp1873
(dp1874
g12
Nsg13
I00
sbsg14
g5
(g6
g7
Vbeepy@purestorage.com
p1875
tp1876
Rp1877
(dp1878
g12
Nsg13
I00
sbsg19
I2
sg20
g5
(g6
g7
VBrian
p1879
tp1880
Rp1881
(dp1882
g12
Nsg13
I00
sbsg25
g81
sg26
g5
(g6
g7
VPawlowski
p1883
tp1884
Rp1885
(dp1886
g12
Nsg13
I00
sbsg31
g5
(g6
g7
VPURE Storage
p1887
tp1888
Rp1889
(dp1890
g12
Nsg13
I00
sbsg36
I80662418
sg37
g81
sg38
I214082
sg39
g40
(S'\x07\xdf\x04\x0f\x0f\x1e\x10\x01\xad\xb0'
p1891
tp1892
Rp1893
sg44
g5
(g6
g7
Vkathrynb1
p1894
tp1895
Rp1896
(dp1897
g12
Nsg13
I00
sbsg49
g81
sg54
g5
(g6
g7
VConfirmed
p1898
tp1899
Rp1900
(dp1901
g12
Nsg13
I00
sbsg59
g5
(g6
g7
Vkathrynb1
p1902
tp1903
Rp1904
(dp1905
g12
Nsg13
I00
sbsg64
g40
(S'\x07\xdf\x04\x0f\x0f\x1d\x00\x02U\xa8'
p1906
tp1907
Rp1908
sa(dp1909
g2
Nsg3
I00
sg4
g5
(g6
g7
VTable Patron
p1910
tp1911
Rp1912
(dp1913
g12
Nsg13
I00
sbsg14
g5
(g6
g7
Vzoe.lewis@accenture.com
p1914
tp1915
Rp1916
(dp1917
g12
Nsg13
I00
sbsg19
I2
sg20
g5
(g6
g7
VZoe
p1918
tp1919
Rp1920
(dp1921
g12
Nsg13
I00
sbsg25
g81
sg26
g5
(g6
g7
VLewis
p1922
tp1923
Rp1924
(dp1925
g12
Nsg13
I00
sbsg31
g5
(g6
g7
VAccenture
p1926
tp1927
Rp1928
(dp1929
g12
Nsg13
I00
sbsg36
I80853981
sg37
g81
sg38
I214082
sg39
g40
(S'\x07\xdf\x04\x14\x0e66\x02\xca\xd8'
p1930
tp1931
Rp1932
sg44
g5
(g6
g7
VAttendee
p1933
tp1934
Rp1935
(dp1936
g12
Nsg13
I00
sbsg49
g5
(g6
g7
Vashley.s.habas@accenture.com
p1937
tp1938
Rp1939
(dp1940
g12
Nsg13
I00
sbsg54
g5
(g6
g7
VConfirmed
p1941
tp1942
Rp1943
(dp1944
g12
Nsg13
I00
sbsg59
g5
(g6
g7
Vkathrynb1
p1945
tp1946
Rp1947
(dp1948
g12
Nsg13
I00
sbsg64
g40
(S'\x07\xdf\x04\x14\x0e,\x1a\x081\xa8'
p1949
tp1950
Rp1951
sa(dp1952
g2
Nsg3
I00
sg4
g5
(g6
g7
VShow Management
p1953
tp1954
Rp1955
(dp1956
g12
Nsg13
I00
sbsg14
g5
(g6
g7
Vaileen.burckhardt@macys.com
p1957
tp1958
Rp1959
(dp1960
g12
Nsg13
I00
sbsg19
I2
sg20
g5
(g6
g7
VAileen
p1961
tp1962
Rp1963
(dp1964
g12
Nsg13
I00
sbsg25
Nsg26
g5
(g6
g7
VBurckhardt
p1965
tp1966
Rp1967
(dp1968
g12
Nsg13
I00
sbsg31
g5
(g6
g7
VMacys.com
p1969
tp1970
Rp1971
(dp1972
g12
Nsg13
I00
sbsg36
I80857041
sg37
Nsg38
I224943
sg39
g40
(S'\x07\xdf\x04\x14\x0e6\x17\x06h\xa0'
p1973
tp1974
Rp1975
sg44
g5
(g6
g7
Vkathrynb1
p1976
tp1977
Rp1978
(dp1979
g12
Nsg13
I00
sbsg49
g5
(g6
g7
Vrachelli.g.materum@macys.com
p1980
tp1981
Rp1982
(dp1983
g12
Nsg13
I00
sbsg54
g5
(g6
g7
VConfirmed
p1984
tp1985
Rp1986
(dp1987
g12
Nsg13
I00
sbsg59
g5
(g6
g7
Vkathrynb1
p1988
tp1989
Rp1990
(dp1991
g12
Nsg13
I00
sbsg64
g40
(S'\x07\xdf\x04\x14\x0e5\x1a\r\xc7X'
p1992
tp1993
Rp1994
sa(dp1995
g2
Nsg3
I00
sg4
g5
(g6
g7
VTable Patron
p1996
tp1997
Rp1998
(dp1999
g12
Nsg13
I00
sbsg14
g5
(g6
g7
Vclaudiag@anitaborg.org
p2000
tp2001
Rp2002
(dp2003
g12
Nsg13
I00
sbsg19
I2
sg20
g5
(g6
g7
VClaudia
p2004
tp2005
Rp2006
(dp2007
g12
Nsg13
I00
sbsg25
Nsg26
g5
(g6
g7
VGalvan
p2008
tp2009
Rp2010
(dp2011
g12
Nsg13
I00
sbsg31
g5
(g6
g7
VABI.Local
p2012
tp2013
Rp2014
(dp2015
g12
Nsg13
I00
sbsg36
I80861413
sg37
Nsg38
I214082
sg39
g40
(S'\x07\xdf\x04\x14\x112)\x03[`'
p2016
tp2017
Rp2018
sg44
g5
(g6
g7
VAttendee
p2019
tp2020
Rp2021
(dp2022
g12
Nsg13
I00
sbsg49
g5
(g6
g7
Vclaudia.galvan@hotmail.com
p2023
tp2024
Rp2025
(dp2026
g12
Nsg13
I00
sbsg54
g5
(g6
g7
VConfirmed
p2027
tp2028
Rp2029
(dp2030
g12
Nsg13
I00
sbsg59
g5
(g6
g7
Vkathrynb1
p2031
tp2032
Rp2033
(dp2034
g12
Nsg13
I00
sbsg64
g40
(S'\x07\xdf\x04\x14\x11\x03\x1e\x08\x978'
p2035
tp2036
Rp2037
sa(dp2038
S'CancelDate'
p2039
NsS'IsSubstitute'
p2040
I00
sS'RegistrationType'
p2041
g5
(g6
g7
VTable Patron
p2042
tp2043
Rp2044
(dp2045
g12
Nsg13
I00
sbsS'Email'
p2046
g5
(g6
g7
Vmangier@ebay.com
p2047
tp2048
Rp2049
(dp2050
g12
Nsg13
I00
sbsS'StatusID'
p2051
I2
sS'FirstName'
p2052
g5
(g6
g7
VMichelle
p2053
tp2054
Rp2055
(dp2056
g12
Nsg13
I00
sbsS'Title'
p2057
g81
sS'LastName'
p2058
g5
(g6
g7
VAngier
p2059
tp2060
Rp2061
(dp2062
g12
Nsg13
I00
sbsS'Company'
p2063
g5
(g6
g7
VeBay Inc
p2064
tp2065
Rp2066
(dp2067
g12
Nsg13
I00
sbsS'ID'
p2068
I81057512
sS'Phone'
p2069
g81
sS'RegTypeID'
p2070
I214082
sS'ModDate'
p2071
g40
(S"\x07\xdf\x04\x18\x0e\x01'\x04*h"
p2072
tp2073
Rp2074
sS'AddBy'
p2075
g5
(g6
g7
VAttendee
p2076
tp2077
Rp2078
(dp2079
g12
Nsg13
I00
sbsS'CCEmail'
p2080
g81
sS'StatusDescription'
p2081
g5
(g6
g7
VConfirmed
p2082
tp2083
Rp2084
(dp2085
g12
Nsg13
I00
sbsS'ModBy'
p2086
g5
(g6
g7
VmichaelI2
p2087
tp2088
Rp2089
(dp2090
g12
Nsg13
I00
sbsS'AddDate'
p2091
g40
(S"\x07\xdf\x04\x18\r'\x1b\x00ix"
p2092
tp2093
Rp2094
sa.