(lp1
(dp2
S'CancelDate'
p3
NsS'IsSubstitute'
p4
I00
sS'RegistrationType'
p5
S'GHC 2014 Silver Industry Sponsor '
p6
sS'FirstName'
p7
S'Christina'
p8
sS'Title'
p9
S'Recruiting Director'
p10
sS'LastName'
p11
S'Guilbault'
p12
sS'Company'
p13
S'EMC'
p14
sS'StatusDescription'
p15
S'Confirmed'
p16
sS'CCEmail'
p17
S'katie.swank@emc.com'
p18
sS'RegTypeID'
p19
I214102
sS'ModBy'
p20
ccopy_reg
_reconstructor
p21
(csuds.sax.text
Text
p22
c__builtin__
unicode
p23
Vkathrynb1
tRp24
(dp25
S'lang'
p26
NsS'escaped'
p27
I00
sbsS'ModDate'
p28
cdatetime
datetime
p29
(S'\x07\xde\x06\x17\x12\x13\x02\x00\x1bX'
tRp30
sS'ID'
p31
I64544505
sS'AddBy'
p32
g21
(g22
g23
VAttendee
tRp33
(dp34
g26
Nsg27
I00
sbsS'AddDate'
p35
g29
(S'\x07\xde\x01\x1b\x0c7 \x06\xab\x08'
tRp36
sS'StatusID'
p37
I2
sS'Email'
p38
S'emc@nc3.com'
p39
sa(dp40
g3
Nsg4
I00
sg5
S'GHC 2014 Silver Industry Sponsor '
p41
sg7
S'Mia'
p42
sg9
S'Inclusion & Diversity Recruitment Channel Expert'
p43
sg11
S'Ferolito'
p44
sg13
S'Accenture'
p45
sg15
S'Confirmed'
p46
sg17
S'casey.christensen@accenture.com'
p47
sg19
I214102
sg20
g21
(g22
g23
Vjohnsoja
tRp48
(dp49
g26
Nsg27
I00
sbsg28
g29
(S"\x07\xde\x06\t\x0e('\x07\x10\x98"
tRp50
sg31
I64588849
sg32
g21
(g22
g23
VAttendee
tRp51
(dp52
g26
Nsg27
I00
sbsg35
g29
(S'\x07\xde\x01\x1c\x0b $\x07 8'
tRp53
sg37
I2
sg38
S'mia.ferolito@accenture.com'
p54
sa(dp55
g3
Nsg4
I00
sg5
S'GHC 2014 Bronze Industry Sponsor'
p56
sg7
S'Caitlin'
p57
sg9
S'Recruiter'
p58
sg11
S'Maynard'
p59
sg13
S'Jane Street'
p60
sg15
S'Confirmed'
p61
sg17
S'hr@janestreet.com'
p62
sg19
I214103
sg20
g21
(g22
g23
VSystem Process
tRp63
(dp64
g26
Nsg27
I00
sbsg28
g29
(S'\x07\xde\x06\x07\x0f/\x11\n\xe1('
tRp65
sg31
I64589097
sg32
g21
(g22
g23
VAttendee
tRp66
(dp67
g26
Nsg27
I00
sbsg35
g29
(S'\x07\xde\x01\x1c\x0b\x1c/\nD\xe8'
tRp68
sg37
I2
sg38
S'cmaynard@janestreet.com'
p69
sa(dp70
g3
Nsg4
I00
sg5
S'GHC 2014 Gold Industry Sponsor'
p71
sg7
S'Katie'
p72
sg9
S'Recruiting Events Specialist'
p73
sg11
S"O'Rourke"
p74
sg13
S'Palantir Technologies'
p75
sg15
S'Confirmed'
p76
sg17
S'bjensen@palantir.com'
p77
sg19
I214101
sg20
g21
(g22
g23
Vkathrynb1
tRp78
(dp79
g26
Nsg27
I00
sbsg28
g29
(S'\x07\xde\x06\x12\x0e\x13*\x077\xa8'
tRp80
sg31
I64747828
sg32
g21
(g22
g23
VAttendee
tRp81
(dp82
g26
Nsg27
I00
sbsg35
g29
(S'\x07\xde\x01\x1f\x10%7\x02\xf1\xe8'
tRp83
sg37
I2
sg38
S'katieo@palantir.com'
p84
sa(dp85
g3
Nsg4
I01
sg5
S'GHC 2014 Silver Industry Sponsor '
p86
sg7
S'Kathryn'
p87
sg9
S'R&D Recruiting Coordinator'
p88
sg11
S'Flores'
p89
sg13
S'Bloomberg'
p90
sg15
S'Confirmed'
p91
sg17
S''
sg19
I214102
sg20
g21
(g22
g23
Vkathrynb1
tRp92
(dp93
g26
Nsg27
I00
sbsg28
g29
(S'\x07\xde\t\x05\x11)\x02\x0c\r\xf0'
tRp94
sg31
I64752006
sg32
g21
(g22
g23
VAttendee
tRp95
(dp96
g26
Nsg27
I00
sbsg35
g29
(S'\x07\xde\x01\x1f\x11\x17-\n\xba\x18'
tRp97
sg37
I2
sg38
S'kflores6@bloomberg.net'
p98
sa(dp99
g3
Nsg4
I00
sg5
S'GHC 2014 Platinum Sponsor (available to ABI Partners Only)'
p100
sg7
S'Nicole'
p101
sg9
S'Sr. Project Manager'
p102
sg11
S'Hansen'
p103
sg13
S'Thomson Reuters '
p104
sg15
S'Confirmed'
p105
sg17
S''
sg19
I214100
sg20
g21
(g22
g23
Vkathrynb1
tRp106
(dp107
g26
Nsg27
I00
sbsg28
g29
(S'\x07\xde\x07\x07\x12\x0e\x13\x03\x01\x88'
tRp108
sg31
I64761478
sg32
g21
(g22
g23
Vjohnsoja
tRp109
(dp110
g26
Nsg27
I00
sbsg35
g29
(S'\x07\xde\x02\x01\x06;6\r\xaf\xe8'
tRp111
sg37
I2
sg38
S'nicole.m.hansen@thomsonreuters.com'
p112
sa(dp113
g3
Nsg4
I00
sg5
S'GHC 2014 Platinum Sponsor (available to ABI Partners Only)'
p114
sg7
S'Cindy'
p115
sg9
S'Contact'
p116
sg11
S'Stanphill'
p117
sg13
S'Hewlett Packard'
p118
sg15
S'Confirmed'
p119
sg17
S'loren.arrieta@hp.com'
p120
sg19
I214100
sg20
g21
(g22
g23
Vkathrynb1
tRp121
(dp122
g26
Nsg27
I00
sbsg28
g29
(S'\x07\xde\x08\x0b\x0e0\x15\x07\x85\xc8'
tRp123
sg31
I64761796
sg32
g21
(g22
g23
Vjohnsoja
tRp124
(dp125
g26
Nsg27
I00
sbsg35
g29
(S'\x07\xde\x02\x01\x07()\x01\x1d('
tRp126
sg37
I2
sg38
S'cindy.stanphill@hp.com '
p127
sa(dp128
g3
Nsg4
I01
sg5
S'GHC 2014 Silver Industry Sponsor '
p129
sg7
S'Jennifer'
p130
sg9
S'Manager-Recruiting Operations'
p131
sg11
S'Ross'
p132
sg13
S'GE'
p133
sg15
S'Confirmed'
p134
sg17
S''
sg19
I214102
sg20
g21
(g22
g23
Vjohnsoja
tRp135
(dp136
g26
Nsg27
I00
sbsg28
g29
(S'\x07\xde\x06\t\x0e.,\x04\x88('
tRp137
sg31
I64762340
sg32
g21
(g22
g23
Vjohnsoja
tRp138
(dp139
g26
Nsg27
I00
sbsg35
g29
(S'\x07\xde\x02\x01\x08\x01 \x00Y\xd8'
tRp140
sg37
I2
sg38
S'Jennifer.L.Ross@ge.com'
p141
sa(dp142
g3
Nsg4
I00
sg5
S'GHC 2014 Silver Industry Sponsor '
p143
sg7
S'Elizabeth'
p144
sg9
S'Project Manager, Workforce Diversity & Inclusion'
p145
sg11
S'Maggio'
p146
sg13
S'Comcast'
p147
sg15
S'Confirmed'
p148
sg17
S''
sg19
I214102
sg20
g21
(g22
g23
Vjohnsoja
tRp149
(dp150
g26
Nsg27
I00
sbsg28
g29
(S'\x07\xde\x06\t\x0e+\x07\n\xa2\xa8'
tRp151
sg31
I64762477
sg32
g21
(g22
g23
Vjohnsoja
tRp152
(dp153
g26
Nsg27
I00
sbsg35
g29
(S'\x07\xde\x02\x01\x08\t\x1b\x04*h'
tRp154
sg37
I2
sg38
S'elizabeth.maggio@cable.comcast.com'
p155
sa(dp156
g3
Nsg4
I00
sg5
S'GHC 2014 Platinum Sponsor (available to ABI Partners Only)'
p157
sg7
S'Jeannie'
p158
sg9
S'Talend Acquisition Diversity Program Manager'
p159
sg11
S'LaDriere'
p160
sg13
S'Cisco Systems'
p161
sg15
S'Confirmed'
p162
sg17
S''
sg19
I214100
sg20
g21
(g22
g23
Vkathrynb1
tRp163
(dp164
g26
Nsg27
I00
sbsg28
g29
(S'\x07\xde\x08\x08\r$%\x00u0'
tRp165
sg31
I64762664
sg32
g21
(g22
g23
Vjohnsoja
tRp166
(dp167
g26
Nsg27
I00
sbsg35
g29
(S'\x07\xde\x02\x01\x08 \x0e\x02\x98\x10'
tRp168
sg37
I2
sg38
S'jladrier@cisco.com'
p169
sa(dp170
g3
Nsg4
I00
sg5
S'Additional Sponsorship Opportunities'
p171
sg7
S'Michele'
p172
sg9
S'contact'
p173
sg11
S'Ellis'
p174
sg13
S'ESPN'
p175
sg15
S'Confirmed'
p176
sg17
S'jill.brahm@espn.com'
p177
sg19
I214301
sg20
g21
(g22
g23
Vkathrynb1
tRp178
(dp179
g26
Nsg27
I00
sbsg28
g29
(S'\x07\xde\x08\x14\x0b\x1a\x18\x08\xb2\x90'
tRp180
sg31
I64762913
sg32
g21
(g22
g23
Vjohnsoja
tRp181
(dp182
g26
Nsg27
I00
sbsg35
g29
(S'\x07\xde\x02\x01\x08*\x18\x05\xb1\x08'
tRp183
sg37
I2
sg38
S'michele.ellis@espn.com'
p184
sa(dp185
g3
Nsg4
I00
sg5
S'GHC 2014 Platinum Sponsor (available to ABI Partners Only)'
p186
sg7
S'Felicia'
p187
sg9
S'Contact'
p188
sg11
S'Mayo'
p189
sg13
S'Juniper Networks'
p190
sg15
S'Confirmed'
p191
sg17
S'bcureton@juniper.net'
p192
sg19
I214100
sg20
g21
(g22
g23
Vkathrynb1
tRp193
(dp194
g26
Nsg27
I00
sbsg28
g29
(S"\x07\xde\x07\x11\x0e'5\x0b/H"
tRp195
sg31
I64763043
sg32
g21
(g22
g23
Vjohnsoja
tRp196
(dp197
g26
Nsg27
I00
sbsg35
g29
(S'\x07\xde\x02\x01\x0884\x07\xc80'
tRp198
sg37
I2
sg38
S'fmayo@juniper.net'
p199
sa(dp200
g3
Nsg4
I00
sg5
S'GHC 2014 Bronze Industry Sponsor'
p201
sg7
S'Angeline'
p202
sg9
S'Human Resources'
p203
sg11
S'Mozer'
p204
sg13
S'Gemalto'
p205
sg15
S'Confirmed'
p206
sg17
S''
sg19
I214103
sg20
g21
(g22
g23
VSystem Process
tRp207
(dp208
g26
Nsg27
I00
sbsg28
g29
(S'\x07\xde\x06\x07\x0f03\x01,\xc8'
tRp209
sg31
I64843515
sg32
g21
(g22
g23
VAttendee
tRp210
(dp211
g26
Nsg27
I00
sbsg35
g29
(S'\x07\xde\x02\x03\x10\x0e6\x02|\xb8'
tRp212
sg37
I2
sg38
S'angeline.mozer@gemalto.com'
p213
sa(dp214
g3
Nsg4
I00
sg5
S'GHC 2014 Bronze Industry Sponsor'
p215
sg7
S'Daniela'
p216
sg9
S'Recruiting'
p217
sg11
S'Amodei'
p218
sg13
S'Stripe'
p219
sg15
S'Confirmed'
p220
sg17
S'daniela@stripe.com, kat@stripe.com'
p221
sg19
I214103
sg20
g21
(g22
g23
VSystem Process
tRp222
(dp223
g26
Nsg27
I00
sbsg28
g29
(S'\x07\xde\x06\x11\x12\x1e(\x06\x83\xf8'
tRp224
sg31
I64891878
sg32
g21
(g22
g23
VAttendee
tRp225
(dp226
g26
Nsg27
I00
sbsg35
g29
(S'\x07\xde\x02\x04\x0f\x1a8\x0c\xec\x98'
tRp227
sg37
I2
sg38
S'recruiting-bots@stripe.com'
p228
sa(dp229
g3
Nsg4
I00
sg5
S'GHC 2014 Bronze Industry Sponsor'
p230
sg7
S'Grace'
p231
sg9
S'Lead Technical Recruiter'
p232
sg11
S"O'Loan"
p233
sg13
S'Spiceworks'
p234
sg15
S'Confirmed'
p235
sg17
S'elisal@spiceworks.com'
p236
sg19
I214103
sg20
g21
(g22
g23
VSystem Process
tRp237
(dp238
g26
Nsg27
I00
sbsg28
g29
(S'\x07\xde\x06\x1a\x0e8/\x07z\x10'
tRp239
sg31
I64979810
sg32
g21
(g22
g23
VAttendee
tRp240
(dp241
g26
Nsg27
I00
sbsg35
g29
(S'\x07\xde\x02\x06\n 3\x04l\xd0'
tRp242
sg37
I2
sg38
S'graceo@spiceworks.com'
p243
sa(dp244
g3
Nsg4
I00
sg5
S'GHC 2014 Bronze Industry Sponsor'
p245
sg7
S'James'
p246
sg9
S'Associate'
p247
sg11
S'LaVigne'
p248
sg13
S'The D. E. Shaw Group'
p249
sg15
S'Confirmed'
p250
sg17
S''
sg19
I214103
sg20
g21
(g22
g23
VSystem Process
tRp251
(dp252
g26
Nsg27
I00
sbsg28
g29
(S'\x07\xde\x08\x0b\n\x085\x06\xd2\x18'
tRp253
sg31
I64985683
sg32
g21
(g22
g23
VAttendee
tRp254
(dp255
g26
Nsg27
I00
sbsg35
g29
(S'\x07\xde\x02\x06\x0c\x1b\r\ra\xc8'
tRp256
sg37
I2
sg38
S'lavigne@deshaw.com'
p257
sa(dp258
g3
Nsg4
I00
sg5
S'GHC 2014 Bronze Industry Sponsor'
p259
sg7
S'Kym'
p260
sg9
S'Human Capital Analyst'
p261
sg11
S'Lee'
p262
sg13
S'Sequoia Capital'
p263
sg15
S'Confirmed'
p264
sg17
S'kymyclee@gmail.com'
p265
sg19
I214103
sg20
g21
(g22
g23
VSystem Process
tRp266
(dp267
g26
Nsg27
I00
sbsg28
g29
(S'\x07\xde\x07\x03\n\x0e$\x081\xa8'
tRp268
sg31
I65131160
sg32
g21
(g22
g23
VAttendee
tRp269
(dp270
g26
Nsg27
I00
sbsg35
g29
(S'\x07\xde\x02\n\n\x12\r\x08I\x18'
tRp271
sg37
I2
sg38
S'kym@sequoiacap.com'
p272
sa(dp273
g3
Nsg4
I00
sg5
S'GHC 2014 Silver Industry Sponsor '
p274
sg7
S'Erin'
p275
sg9
S'Ms.'
p276
sg11
S'Fox'
p277
sg13
S'Goldman, Sachs & Co'
p278
sg15
S'Confirmed'
p279
sg17
S''
sg19
I214102
sg20
g21
(g22
g23
VSystem Process
tRp280
(dp281
g26
Nsg27
I00
sbsg28
g29
(S'\x07\xde\x06\x19\x11\t\x1a\x05\xcc`'
tRp282
sg31
I65226380
sg32
g21
(g22
g23
VAttendee
tRp283
(dp284
g26
Nsg27
I00
sbsg35
g29
(S'\x07\xde\x02\x0b\r5\x01\x0b#\x90'
tRp285
sg37
I2
sg38
S'erin.fox@gs.com'
p286
sa(dp287
g3
Nsg4
I00
sg5
S'GHC 2014 Bronze Industry Sponsor'
p288
sg7
S'Courtenay'
p289
sg9
S'Marketing and Event Coordinator'
p290
sg11
S'Pope'
p291
sg13
S'The Linux Foundation'
p292
sg15
S'Confirmed'
p293
sg17
S'angela@linuxfoundation.org'
p294
sg19
I214103
sg20
g21
(g22
g23
Vkathrynb1
tRp295
(dp296
g26
Nsg27
I00
sbsg28
g29
(S'\x07\xde\x08\x16\n\x0f\x0b\x02\x98\x10'
tRp297
sg31
I65230012
sg32
g21
(g22
g23
VAttendee
tRp298
(dp299
g26
Nsg27
I00
sbsg35
g29
(S'\x07\xde\x02\x0b\x0e"\x1c\x03@\x08'
tRp300
sg37
I2
sg38
S'cpope@linuxfoundation.org'
p301
sa(dp302
g3
Nsg4
I00
sg5
S'GHC 2014 Platinum Sponsor (available to ABI Partners Only)'
p303
sg7
S'Teresa'
p304
sg9
S'Recruiting Coordinator'
p305
sg11
S'Leija'
p306
sg13
S'LinkedIn'
p307
sg15
S'Confirmed'
p308
sg17
S''
sg19
I214100
sg20
g21
(g22
g23
Vkathrynb1
tRp309
(dp310
g26
Nsg27
I00
sbsg28
g29
(S"\x07\xde\x07\x1c\x0b\x0f'\x03\xa9\x80"
tRp311
sg31
I65291098
sg32
g21
(g22
g23
VAttendee
tRp312
(dp313
g26
Nsg27
I00
sbsg35
g29
(S'\x07\xde\x02\x0c\r\x0c\x11\x04*h'
tRp314
sg37
I2
sg38
S'tleija@linkedin.com'
p315
sa(dp316
g3
Nsg4
I00
sg5
S'GHC 2014 Silver Industry Sponsor '
p317
sg7
S'Molly'
p318
sg9
S'Associate Events Manager'
p319
sg11
S'MacKenzie'
p320
sg13
S'Box'
p321
sg15
S'Confirmed'
p322
sg17
S''
sg19
I214102
sg20
g21
(g22
g23
Vjohnsoja
tRp323
(dp324
g26
Nsg27
I00
sbsg28
g29
(S'\x07\xde\x06\t\x0e)\x1e\x07\xef@'
tRp325
sg31
I65352893
sg32
g21
(g22
g23
VAttendee
tRp326
(dp327
g26
Nsg27
I00
sbsg35
g29
(S'\x07\xde\x02\r\x0e6\x03\x02.\x98'
tRp328
sg37
I2
sg38
S'mmackenzie@box.com'
p329
sa(dp330
g3
Nsg4
I00
sg5
S'GHC 2014 Platinum Sponsor (available to ABI Partners Only)'
p331
sg7
S'Michelle'
p332
sg9
S'contact'
p333
sg11
S'Barrett'
p334
sg13
S'CA Technologies'
p335
sg15
S'Confirmed'
p336
sg17
S''
sg19
I214100
sg20
g21
(g22
g23
Vkathrynb1
tRp337
(dp338
g26
Nsg27
I00
sbsg28
g29
(S"\x07\xde\x06\x10\x0c-'\n`@"
tRp339
sg31
I65601449
sg32
g21
(g22
g23
Vjohnsoja
tRp340
(dp341
g26
Nsg27
I00
sbsg35
g29
(S'\x07\xde\x02\x12\r\x0c\x11\x04\xba\xf0'
tRp342
sg37
I2
sg38
S'michelle.barrett@ca.com'
p343
sa(dp344
g3
Nsg4
I01
sg5
S'GHC 2014 Platinum Sponsor (available to ABI Partners Only)'
p345
sg7
S'LaShanti'
p346
sg9
S'Senior Manager, Talent Acquisition'
p347
sg11
S'Jenkins'
p348
sg13
S'Yahoo!'
p349
sg15
S'Confirmed'
p350
sg17
S'lbailey@yahoo-inc.com'
p351
sg19
I214100
sg20
g21
(g22
g23
Vkathrynb1
tRp352
(dp353
g26
Nsg27
I00
sbsg28
g29
(S'\x07\xde\x07\x12\x12\x0b\x17\n\xe1('
tRp354
sg31
I65607626
sg32
g21
(g22
g23
Vjohnsoja
tRp355
(dp356
g26
Nsg27
I00
sbsg35
g29
(S'\x07\xde\x02\x12\x0e3;\n\xfc\x80'
tRp357
sg37
I2
sg38
S'ljenkins@yahoo-inc.com'
p358
sa(dp359
g3
Nsg4
I00
sg5
S'GHC 2014 Bronze Industry Sponsor'
p360
sg7
S'Melisa'
p361
sg9
S'Campus Recruiter'
p362
sg11
S'Sanchez'
p363
sg13
S'BlackRock'
p364
sg15
S'Confirmed'
p365
sg17
S''
sg19
I214103
sg20
g21
(g22
g23
Vkathrynb1
tRp366
(dp367
g26
Nsg27
I00
sbsg28
g29
(S'\x07\xde\x06\x12\x0e\x0f.\x081\xa8'
tRp368
sg31
I65623237
sg32
g21
(g22
g23
VAttendee
tRp369
(dp370
g26
Nsg27
I00
sbsg35
g29
(S'\x07\xde\x02\x12\x16\t \x00\x0b\xb8'
tRp371
sg37
I2
sg38
S'melisa.sanchez@blackrock.com'
p372
sa(dp373
g3
Nsg4
I00
sg5
S'GHC 2014 Silver Industry Sponsor '
p374
sg7
S'Kathleen'
p375
sg9
S'Project Director, Engineering'
p376
sg11
S'Lincoln'
p377
sg13
S'Via Sat'
p378
sg15
S'Confirmed'
p379
sg17
S'Nik.devereaux@viasat.com'
p380
sg19
I214102
sg20
g21
(g22
g23
Vjohnsoja
tRp381
(dp382
g26
Nsg27
I00
sbsg28
g29
(S'\x07\xde\x08\x03\r\n-\x034P'
tRp383
sg31
I65710241
sg32
g21
(g22
g23
VAttendee
tRp384
(dp385
g26
Nsg27
I00
sbsg35
g29
(S'\x07\xde\x02\x14\x0c\x03\x10\x03\x01\x88'
tRp386
sg37
I2
sg38
S'kathleen.lincoln@viasat.com'
p387
sa(dp388
g3
Nsg4
I01
sg5
S'GHC 2014 Silver Industry Sponsor '
p389
sg7
S'Ashley'
p390
sg9
S'University Relations'
p391
sg11
S'Moniz'
p392
sg13
S'Akamai Technologies'
p393
sg15
S'Confirmed'
p394
sg17
S''
sg19
I214102
sg20
g21
(g22
g23
Vkathrynb1
tRp395
(dp396
g26
Nsg27
I00
sbsg28
g29
(S'\x07\xde\x06\n\x12)\x19\n\xa2\xa8'
tRp397
sg31
I65917633
sg32
g21
(g22
g23
VAttendee
tRp398
(dp399
g26
Nsg27
I00
sbsg35
g29
(S'\x07\xde\x02\x19\x10\x10\x18\x00\x0b\xb8'
tRp400
sg37
I2
sg38
S'amacri@akamai.com'
p401
sa(dp402
g3
Nsg4
I00
sg5
S'GHC 2014 Silver Industry Sponsor '
p403
sg7
S'Rachelli'
p404
sg9
S'Director of Talent Acquisition'
p405
sg11
S'Materum'
p406
sg13
S'Macys.com'
p407
sg15
S'Confirmed'
p408
sg17
S'aileen.burckhardt@macys.com'
p409
sg19
I214102
sg20
g21
(g22
g23
Vkathrynb1
tRp410
(dp411
g26
Nsg27
I00
sbsg28
g29
(S'\x07\xde\x06\x12\x0e"1\x06A\x90'
tRp412
sg31
I65975308
sg32
g21
(g22
g23
VAttendee
tRp413
(dp414
g26
Nsg27
I00
sbsg35
g29
(S'\x07\xde\x02\x1a\x10.1\x01\xfb\xd0'
tRp415
sg37
I2
sg38
S'rachelli.g.materum@macys.com'
p416
sa(dp417
g3
Nsg4
I00
sg5
S'GHC 2014 Gold  Academic, National Lab & NonProfit Sponsor'
p418
sg7
S'Anna'
p419
sg9
S'Human Resources Dept'
p420
sg11
S'Wilbanks'
p421
sg13
S'MIT Lincoln Laboratory'
p422
sg15
S'Confirmed'
p423
sg17
S''
sg19
I214104
sg20
g21
(g22
g23
Vkathrynb1
tRp424
(dp425
g26
Nsg27
I00
sbsg28
g29
(S'\x07\xde\x06\x17\x12\x19)\x07\x10\x98'
tRp426
sg31
I66231934
sg32
g21
(g22
g23
VAttendee
tRp427
(dp428
g26
Nsg27
I00
sbsg35
g29
(S'\x07\xde\x03\x04\x0e\x0e\t\x02\xe60'
tRp429
sg37
I2
sg38
S'Anna.Wilbanks@ll.mit.edu'
p430
sa(dp431
g3
Nsg4
I00
sg5
S'GHC 2014 Bronze Industry Sponsor'
p432
sg7
S'Heidi'
p433
sg9
S'University and Internship Programs'
p434
sg11
S'Newiger'
p435
sg13
S'AppDynamics'
p436
sg15
S'Confirmed'
p437
sg17
S''
sg19
I214103
sg20
g21
(g22
g23
VSystem Process
tRp438
(dp439
g26
Nsg27
I00
sbsg28
g29
(S'\x07\xde\x06\x07\x0f1\x1c\x08\x8b\x80'
tRp440
sg31
I66350907
sg32
g21
(g22
g23
VAttendee
tRp441
(dp442
g26
Nsg27
I00
sbsg35
g29
(S'\x07\xde\x03\x06\x12\x1e#\rm\x80'
tRp443
sg37
I2
sg38
S'heidi@appdynamics.com'
p444
sa(dp445
g3
Nsg4
I01
sg5
S'GHC 2014 Bronze Academic, National Lab & NonProfit Sponsor'
p446
sg7
S'Viveka'
p447
sg9
S'Coordinator of CS Graduate Programs'
p448
sg11
S'Kudaligama'
p449
sg13
S'University of Illinois Urbana-Champaign'
p450
sg15
S'Confirmed'
p451
sg17
S'krunck@illinois.edu'
p452
sg19
I214106
sg20
g21
(g22
g23
VSystem Process
tRp453
(dp454
g26
Nsg27
I00
sbsg28
g29
(S'\x07\xde\x08\x03\x0c6\x1a\x04\x1e\xb0'
tRp455
sg31
I66519165
sg32
g21
(g22
g23
VAttendee
tRp456
(dp457
g26
Nsg27
I00
sbsg35
g29
(S'\x07\xde\x03\x0b\x07\x152\x0b>\xe8'
tRp458
sg37
I2
sg38
S'kudaliga@illinois.edu'
p459
sa(dp460
g3
Nsg4
I00
sg5
S'GHC 2014 Gold Industry Sponsor'
p461
sg7
S'Julie'
p462
sg9
S'Director Assistant'
p463
sg11
S'Golvach'
p464
sg13
S'American Express'
p465
sg15
S'Confirmed'
p466
sg17
S'Michiko.Katsuren@aexp.com'
p467
sg19
I214101
sg20
g21
(g22
g23
VSystem Process
tRp468
(dp469
g26
Nsg27
I00
sbsg28
g29
(S'\x07\xde\x08\x0b\x11\x15 \x04\xe2\x00'
tRp470
sg31
I66521779
sg32
g21
(g22
g23
VAttendee
tRp471
(dp472
g26
Nsg27
I00
sbsg35
g29
(S'\x07\xde\x03\x0b\x08\t\x01\nk\xf8'
tRp473
sg37
I2
sg38
S'Julie.Golvach@aexp.com'
p474
sa(dp475
g3
Nsg4
I00
sg5
S'GHC 2014 Gold  Academic, National Lab & NonProfit Sponsor'
p476
sg7
S'Raymond'
p477
sg9
S"Ass't Director; Graduate Recruitment"
p478
sg11
S'Fujioka'
p479
sg13
S'University of Southern California'
p480
sg15
S'Confirmed'
p481
sg17
S'vgrads@usc.edu'
p482
sg19
I214104
sg20
g21
(g22
g23
Vjohnsoja
tRp483
(dp484
g26
Nsg27
I00
sbsg28
g29
(S'\x07\xde\x08\x03\x0c7\x1a\x0c)H'
tRp485
sg31
I66552124
sg32
g21
(g22
g23
VAttendee
tRp486
(dp487
g26
Nsg27
I00
sbsg35
g29
(S'\x07\xde\x03\x0b\x0f1\x00\x0b/H'
tRp488
sg37
I2
sg38
S'fujioka@usc.edu'
p489
sa(dp490
g3
Nsg4
I00
sg5
S'GHC 2014 Silver Industry Sponsor '
p491
sg7
S'Vanessa'
p492
sg9
S'Talent Programs'
p493
sg11
S'Slavich'
p494
sg13
S'Square'
p495
sg15
S'Confirmed'
p496
sg17
S''
sg19
I214102
sg20
g21
(g22
g23
Vjohnsoja
tRp497
(dp498
g26
Nsg27
I00
sbsg28
g29
(S'\x07\xde\x06\x07\x0f7\x1e\x07 8'
tRp499
sg31
I66607960
sg32
g21
(g22
g23
VAttendee
tRp500
(dp501
g26
Nsg27
I00
sbsg35
g29
(S'\x07\xde\x03\x0c\x0f\x12-\x04\x1e\xb0'
tRp502
sg37
I2
sg38
S'vanessa@squareup.com'
p503
sa(dp504
g3
Nsg4
I00
sg5
S'GHC 2014 Silver Industry Sponsor '
p505
sg7
S'Mark'
p506
sg9
S'Chief Technology Officer'
p507
sg11
S'Bregman'
p508
sg13
S'Neustar'
p509
sg15
S'Confirmed'
p510
sg17
S'kristin.swanson@neustar.biz'
p511
sg19
I214102
sg20
g21
(g22
g23
Vkathrynb1
tRp512
(dp513
g26
Nsg27
I00
sbsg28
g29
(S'\x07\xde\x08\x05\t\x02\x16\x01\x11p'
tRp514
sg31
I66615810
sg32
g21
(g22
g23
Vkathrynb1
tRp515
(dp516
g26
Nsg27
I00
sbsg35
g29
(S'\x07\xde\x03\x0c\x13#0\x07\x10\x98'
tRp517
sg37
I2
sg38
S'mark.bregman@neustar.biz'
p518
sa(dp519
g3
Nsg4
I01
sg5
S'GHC 2014 Silver Industry Sponsor '
p520
sg7
S'Antoine'
p521
sg9
S'Manager, Diversity & Inclusion'
p522
sg11
S'Andrews'
p523
sg13
S'Symantec '
p524
sg15
S'Confirmed'
p525
sg17
S''
sg19
I214102
sg20
g21
(g22
g23
Vjohnsoja
tRp526
(dp527
g26
Nsg27
I00
sbsg28
g29
(S'\x07\xde\x08\x03\r\x05\x1e\x05\xa5P'
tRp528
sg31
I66615900
sg32
g21
(g22
g23
Vkathrynb1
tRp529
(dp530
g26
Nsg27
I00
sbsg35
g29
(S'\x07\xde\x03\x0c\x13(\x08\x03[`'
tRp531
sg37
I2
sg38
S'Antoine_Andrews@symantec.com'
p532
sa(dp533
g3
Nsg4
I00
sg5
S'GHC 2014 Platinum Sponsor (available to ABI Partners Only)'
p534
sg7
S'Dana'
p535
sg9
S"Women's InitiativeProgram Manager"
p536
sg11
S'Vandecoevering'
p537
sg13
S'Intel '
p538
sg15
S'Confirmed'
p539
sg17
S'cristinax.i.serrano@intel.com '
p540
sg19
I214100
sg20
g21
(g22
g23
Vkathrynb1
tRp541
(dp542
g26
Nsg27
I00
sbsg28
g29
(S'\x07\xde\t\x0c\x08\x06\x1c\x0b\xbf\xd0'
tRp543
sg31
I66616024
sg32
g21
(g22
g23
Vkathrynb1
tRp544
(dp545
g26
Nsg27
I00
sbsg35
g29
(S'\x07\xde\x03\x0c\x13-2\r:\xb8'
tRp546
sg37
I2
sg38
S'dana.vandecoevering@intel.com'
p547
sa(dp548
g3
Nsg4
I00
sg5
S'GHC 2014 Bronze Academic, National Lab & NonProfit Sponsor'
p549
sg7
S'Donna'
p550
sg9
S'Project Coordinator'
p551
sg11
S'Cirelli'
p552
sg13
S'Tufts University'
p553
sg15
S'Confirmed'
p554
sg17
S''
sg19
I214106
sg20
g21
(g22
g23
VSystem Process
tRp555
(dp556
g26
Nsg27
I00
sbsg28
g29
(S'\x07\xde\x06\x0f\x14\x1c\x15\r\xaf\xe8'
tRp557
sg31
I66646485
sg32
g21
(g22
g23
VAttendee
tRp558
(dp559
g26
Nsg27
I00
sbsg35
g29
(S'\x07\xde\x03\r\x0b39\x01\xa1\xf8'
tRp560
sg37
I2
sg38
S'dcirelli@cs.tufts.edu'
p561
sa(dp562
g3
Nsg4
I00
sg5
S'GHC 2014 Gold  Academic, National Lab & NonProfit Sponsor'
p563
sg7
S'Peche'
p564
sg9
S'Manager'
p565
sg11
S'Turner'
p566
sg13
S'Stanford Computer Science Department'
p567
sg15
S'Confirmed'
p568
sg17
S'cmarquez@cs.stanford.edu'
p569
sg19
I214104
sg20
g21
(g22
g23
Vtinapratt
tRp570
(dp571
g26
Nsg27
I00
sbsg28
g29
(S'\x07\xde\x08\t\x0f\x17\x1e\x0c\xec\x98'
tRp572
sg31
I66693740
sg32
g21
(g22
g23
VAttendee
tRp573
(dp574
g26
Nsg27
I00
sbsg35
g29
(S'\x07\xde\x03\x0e\n;7\x00\xea`'
tRp575
sg37
I2
sg38
S'pturner@stanford.edu'
p576
sa(dp577
g3
Nsg4
I01
sg5
S'GHC 2014 Silver Academic, National Lab & NonProfit Sponsor'
p578
sg7
S'Olivia'
p579
sg9
S'Director'
p580
sg11
S'Lewis'
p581
sg13
S'Pennsylvania  State University College of IST'
p582
sg15
S'Confirmed'
p583
sg17
S'cbierly@ist.psu.edu'
p584
sg19
I214105
sg20
g21
(g22
g23
Vjohnsoja
tRp585
(dp586
g26
Nsg27
I00
sbsg28
g29
(S"\x07\xde\x08\x03\r\x03'\x08p("
tRp587
sg31
I66762209
sg32
g21
(g22
g23
VAttendee
tRp588
(dp589
g26
Nsg27
I00
sbsg35
g29
(S'\x07\xde\x03\x11\x06"\x19\x03\xb58'
tRp590
sg37
I2
sg38
S'okl1@psu.edu'
p591
sa(dp592
g3
Nsg4
I00
sg5
S'GHC 2014 Silver Academic, National Lab & NonProfit Sponsor'
p593
sg7
S'Rick'
p594
sg9
S'Project Manager'
p595
sg11
S'Horten'
p596
sg13
S'Johns Hopkins University Applied Physics Laboratory'
p597
sg15
S'Confirmed'
p598
sg17
S'Stacy.Murphy@jhuapl.edu'
p599
sg19
I214105
sg20
g21
(g22
g23
Vjohnsoja
tRp600
(dp601
g26
Nsg27
I00
sbsg28
g29
(S'\x07\xde\x08\x03\r\x00\x16\x08\x978'
tRp602
sg31
I66786110
sg32
g21
(g22
g23
VAttendee
tRp603
(dp604
g26
Nsg27
I00
sbsg35
g29
(S'\x07\xde\x03\x11\r\x1c \x05\xa5P'
tRp605
sg37
I2
sg38
S'richard.horten@tmp.com'
p606
sa(dp607
g3
Nsg4
I01
sg5
S'GHC 2014 Bronze Academic, National Lab & NonProfit Sponsor'
p608
sg7
S'Camelia '
p609
sg9
S'Undergraduate Program Coordinator'
p610
sg11
S'Pierson Eaves'
p611
sg13
S'Duke University'
p612
sg15
S'Confirmed'
p613
sg17
S'mkbutler@cs.duke.edu'
p614
sg19
I214106
sg20
g21
(g22
g23
VSystem Process
tRp615
(dp616
g26
Nsg27
I00
sbsg28
g29
(S'\x07\xde\x08\x07\x0f\x0e\n\x05$h'
tRp617
sg31
I66897773
sg32
g21
(g22
g23
VAttendee
tRp618
(dp619
g26
Nsg27
I00
sbsg35
g29
(S'\x07\xde\x03\x13\r\x1f\x1c\x01\x05\xb8'
tRp620
sg37
I2
sg38
S'revp@cs.duke.edu'
p621
sa(dp622
g3
Nsg4
I00
sg5
S'GHC 2014 Silver Industry Sponsor '
p623
sg7
S'Jennifer'
p624
sg9
S'Vice President'
p625
sg11
S'Moorehouse'
p626
sg13
S'Morgan Stanley'
p627
sg15
S'Confirmed'
p628
sg17
S'itcolrec@morganstanley.com'
p629
sg19
I214102
sg20
g21
(g22
g23
Vkathrynb1
tRp630
(dp631
g26
Nsg27
I00
sbsg28
g29
(S'\x07\xde\x06\x11\x12$\x05\x0c\xf8P'
tRp632
sg31
I66932350
sg32
g21
(g22
g23
VAttendee
tRp633
(dp634
g26
Nsg27
I00
sbsg35
g29
(S'\x07\xde\x03\x14\t\x004\x0b\xb4\x18'
tRp635
sg37
I2
sg38
S'itcolrec@morganstanley.com'
p636
sa(dp637
g3
Nsg4
I00
sg5
S'GHC 2014 Bronze Industry Sponsor'
p638
sg7
S'Danielle'
p639
sg9
S'Recruiting Coordinator'
p640
sg11
S'Rego'
p641
sg13
S'SurveyMonkey'
p642
sg15
S'Confirmed'
p643
sg17
S'adams@surveymonkey.com'
p644
sg19
I214103
sg20
g21
(g22
g23
VSystem Process
tRp645
(dp646
g26
Nsg27
I00
sbsg28
g29
(S'\x07\xde\x06\x07\x0f3;\x0b\xe6\xe0'
tRp647
sg31
I66991708
sg32
g21
(g22
g23
VAttendee
tRp648
(dp649
g26
Nsg27
I00
sbsg35
g29
(S'\x07\xde\x03\x15\x0c,\x13\x07\xe3\x88'
tRp650
sg37
I2
sg38
S'danieller@surveymonkey.com'
p651
sa(dp652
g3
Nsg4
I00
sg5
S'GHC 2014 Bronze Industry Sponsor'
p653
sg7
S'Fiorella'
p654
sg9
S'Recruiter'
p655
sg11
S'Bariani'
p656
sg13
S'Knewton'
p657
sg15
S'Confirmed'
p658
sg17
S''
sg19
I214103
sg20
g21
(g22
g23
VSystem Process
tRp659
(dp660
g26
Nsg27
I00
sbsg28
g29
(S'\x07\xde\x06\x18\x07\x1d$\x06MH'
tRp661
sg31
I66998528
sg32
g21
(g22
g23
VAttendee
tRp662
(dp663
g26
Nsg27
I00
sbsg35
g29
(S'\x07\xde\x03\x15\x0f\r2\x06&8'
tRp664
sg37
I2
sg38
S'fiorella@knewton.com'
p665
sa(dp666
g3
Nsg4
I00
sg5
S'GHC 2014 Gold  Academic, National Lab & NonProfit Sponsor'
p667
sg7
S'Libby'
p668
sg9
S'Director - External Relations and Undergraduate Studies'
p669
sg11
S'Bradford'
p670
sg13
S'Virginia Tech - Computer Science'
p671
sg15
S'Confirmed'
p672
sg17
S''
sg19
I214104
sg20
g21
(g22
g23
Vtinapratt
tRp673
(dp674
g26
Nsg27
I00
sbsg28
g29
(S'\x07\xde\x06\x14\x0e+\x1b\x018\x80'
tRp675
sg31
I67058631
sg32
g21
(g22
g23
VAttendee
tRp676
(dp677
g26
Nsg27
I00
sbsg35
g29
(S'\x07\xde\x03\x18\t\x0f\x02\x04\x1e\xb0'
tRp678
sg37
I2
sg38
S'bradfolg@cs.vt.edu'
p679
sa(dp680
g3
Nsg4
I00
sg5
S'GHC 2014 Silver Industry Sponsor '
p681
sg7
S'Kimberly'
p682
sg9
S'VP, Office of the CIO'
p683
sg11
S'Saxton'
p684
sg13
S'Mylan'
p685
sg15
S'Confirmed'
p686
sg17
S'Michael.Smith@mylan.com'
p687
sg19
I214102
sg20
g21
(g22
g23
Vjohnsoja
tRp688
(dp689
g26
Nsg27
I00
sbsg28
g29
(S'\x07\xde\x06\t\x0f+\x14\x06\xab\x08'
tRp690
sg31
I67065547
sg32
g21
(g22
g23
VAttendee
tRp691
(dp692
g26
Nsg27
I00
sbsg35
g29
(S'\x07\xde\x03\x18\n8/\x04\xc6\xa8'
tRp693
sg37
I2
sg38
S'Kimberly.Saxton@mylan.com'
p694
sa(dp695
g3
Nsg4
I00
sg5
S'GHC 2014 Silver Industry Sponsor '
p696
sg7
S'Tracy'
p697
sg9
S'HR Program Manager'
p698
sg11
S'Hawkins'
p699
sg13
S'Aruba Networks'
p700
sg15
S'Confirmed'
p701
sg17
S'danderl@arubanetworks.com'
p702
sg19
I214102
sg20
g21
(g22
g23
Vjohnsoja
tRp703
(dp704
g26
Nsg27
I00
sbsg28
g29
(S'\x07\xde\x07\x04\x08$\x04\x07nX'
tRp705
sg31
I67072939
sg32
g21
(g22
g23
VAttendee
tRp706
(dp707
g26
Nsg27
I00
sbsg35
g29
(S'\x07\xde\x03\x18\r57\x05\t\x10'
tRp708
sg37
I2
sg38
S'thawkins@arubanetworks.com'
p709
sa(dp710
g3
Nsg4
I00
sg5
S'GHC 2014 Silver Industry Sponsor '
p711
sg7
S'Megan'
p712
sg9
S'Senior Diversity Specialist'
p713
sg11
S'Pierouchakos'
p714
sg13
S'Freddie Mac'
p715
sg15
S'Confirmed'
p716
sg17
S''
sg19
I214102
sg20
g21
(g22
g23
Vjohnsoja
tRp717
(dp718
g26
Nsg27
I00
sbsg28
g29
(S'\x07\xde\x06\t\x0e,/\x0b\xcb\x88'
tRp719
sg31
I67081936
sg32
g21
(g22
g23
VAttendee
tRp720
(dp721
g26
Nsg27
I00
sbsg35
g29
(S'\x07\xde\x03\x18\x0e8$\x04l\xd0'
tRp722
sg37
I2
sg38
S'meganpierouchakos@freddiemac.com'
p723
sa(dp724
g3
Nsg4
I00
sg5
S'GHC 2014 Silver Industry Sponsor '
p725
sg7
S'Maureen'
p726
sg9
S'Recruiter'
p727
sg11
S'Guadagno'
p728
sg13
S'Barclays'
p729
sg15
S'Confirmed'
p730
sg17
S''
sg19
I214102
sg20
g21
(g22
g23
VSystem Process
tRp731
(dp732
g26
Nsg27
I00
sbsg28
g29
(S'\x07\xde\x06\t\x0e(\x02\x08"\x08'
tRp733
sg31
I67164274
sg32
g21
(g22
g23
VAttendee
tRp734
(dp735
g26
Nsg27
I00
sbsg35
g29
(S'\x07\xde\x03\x1a\t*\x15\x02\xbf '
tRp736
sg37
I2
sg38
S'maureen.guadagno@barclays.com'
p737
sa(dp738
g3
Nsg4
I00
sg5
S'GHC 2014 Silver Industry Sponsor '
p739
sg7
S'Julia'
p740
sg9
S'Tech Recruiting Coordinator'
p741
sg11
S'Nguyen'
p742
sg13
S'Yelp, Inc.'
p743
sg15
S'Confirmed'
p744
sg17
S''
sg19
I214102
sg20
g21
(g22
g23
Vkathrynb1
tRp745
(dp746
g26
Nsg27
I00
sbsg28
g29
(S'\x07\xde\x08\x16\n\x0f\x1e\x0b}h'
tRp747
sg31
I67237140
sg32
g21
(g22
g23
Vkathrynb1
tRp748
(dp749
g26
Nsg27
I00
sbsg35
g29
(S'\x07\xde\x03\x1b\x10&\x19\x04\xe2\x00'
tRp750
sg37
I2
sg38
S'Julia@yelp.com'
p751
sa(dp752
g3
Nsg4
I00
sg5
S'GHC 2014 Platinum Sponsor (available to ABI Partners Only)'
p753
sg7
S'Stacy'
p754
sg9
S'Community Outreach Specialist'
p755
sg11
S'Bennett'
p756
sg13
S'GoDaddy'
p757
sg15
S'Confirmed'
p758
sg17
S'tbutler@godaddy.com'
p759
sg19
I214100
sg20
g21
(g22
g23
Vkathrynb1
tRp760
(dp761
g26
Nsg27
I00
sbsg28
g29
(S'\x07\xde\x08\x08\t/2\x05\x14\xc8'
tRp762
sg31
I67268325
sg32
g21
(g22
g23
VAttendee
tRp763
(dp764
g26
Nsg27
I00
sbsg35
g29
(S'\x07\xde\x03\x1c\x0b2:\x01D8'
tRp765
sg37
I2
sg38
S'sbennett@godaddy.com'
p766
sa(dp767
g3
Nsg4
I00
sg5
S'GHC 2014 Silver Academic, National Lab & NonProfit Sponsor'
p768
sg7
S'Barbara'
p769
sg9
S'Assistant Business Manager'
p770
sg11
S'Kline'
p771
sg13
S'Oakland University'
p772
sg15
S'Confirmed'
p773
sg17
S'wzhou@oakland.edu'
p774
sg19
I214105
sg20
g21
(g22
g23
Vkathrynb1
tRp775
(dp776
g26
Nsg27
I00
sbsg28
g29
(S'\x07\xde\x06\x11\x12\x10\x1e\x00\x0b\xb8'
tRp777
sg31
I67370183
sg32
g21
(g22
g23
VAttendee
tRp778
(dp779
g26
Nsg27
I00
sbsg35
g29
(S'\x07\xde\x03\x1f\r\x03:\x018\x80'
tRp780
sg37
I2
sg38
S'kline@oakland.edu'
p781
sa(dp782
g3
Nsg4
I00
sg5
S'GHC 2014 Bronze Industry Sponsor'
p783
sg7
S'Stevie'
p784
sg9
S'Sr. Specialist, University Recruitment'
p785
sg11
S'Sprague'
p786
sg13
S'Union Pacific Railroad'
p787
sg15
S'Confirmed'
p788
sg17
S'upcampus@up.com'
p789
sg19
I214103
sg20
g21
(g22
g23
VSystem Process
tRp790
(dp791
g26
Nsg27
I00
sbsg28
g29
(S'\x07\xde\x06\x07\x0f5\x11\r\xeeh'
tRp792
sg31
I67413545
sg32
g21
(g22
g23
VAttendee
tRp793
(dp794
g26
Nsg27
I00
sbsg35
g29
(S'\x07\xde\x04\x01\x08:\r\x04\x88('
tRp795
sg37
I2
sg38
S'steviesprague@up.com'
p796
sa(dp797
g3
Nsg4
I00
sg5
S'GHC 2014 Silver Industry Sponsor '
p798
sg7
S'Jovanna'
p799
sg9
S'Talent Attraction Manager'
p800
sg11
S'Owusu'
p801
sg13
S'AT&T'
p802
sg15
S'Confirmed'
p803
sg17
S''
sg19
I214102
sg20
g21
(g22
g23
Vjohnsoja
tRp804
(dp805
g26
Nsg27
I00
sbsg28
g29
(S"\x07\xde\x06\t\x0e' \x0f&\xe8"
tRp806
sg31
I67474569
sg32
g21
(g22
g23
VAttendee
tRp807
(dp808
g26
Nsg27
I00
sbsg35
g29
(S'\x07\xde\x04\x02\t6\x06\x04\x1e\xb0'
tRp809
sg37
I2
sg38
S'malaysia.thomas@tmp.com'
p810
sa(dp811
g3
Nsg4
I00
sg5
S'GHC 2014 Silver Industry Sponsor '
p812
sg7
S'Patricia'
p813
sg9
S'Recruiting Coordinator'
p814
sg11
S'Jarombek'
p815
sg13
S'FactSet Research Systems'
p816
sg15
S'Confirmed'
p817
sg17
S''
sg19
I214102
sg20
g21
(g22
g23
VSystem Process
tRp818
(dp819
g26
Nsg27
I00
sbsg28
g29
(S'\x07\xde\x06\t\x0e,\x04\x034P'
tRp820
sg31
I67581351
sg32
g21
(g22
g23
VAttendee
tRp821
(dp822
g26
Nsg27
I00
sbsg35
g29
(S'\x07\xde\x04\x04\n\x14:\t\xc4\x00'
tRp823
sg37
I2
sg38
S'pjarombek@factset.com'
p824
sa(dp825
g3
Nsg4
I00
sg5
S'GHC 2014 Silver Academic, National Lab & NonProfit Sponsor'
p826
sg7
S'Erin'
p827
sg9
S'Gender Diversity Specialist'
p828
sg11
S'Thomas'
p829
sg13
S"Argonne Nat'l Lab/UChicago CI"
p830
sg15
S'Confirmed'
p831
sg17
S'jwulf@ci.uchicago.edu'
p832
sg19
I214105
sg20
g21
(g22
g23
VSystem Process
tRp833
(dp834
g26
Nsg27
I00
sbsg28
g29
(S'\x07\xde\x08\x04\x0c(!\x07z\x10'
tRp835
sg31
I67585742
sg32
g21
(g22
g23
VAttendee
tRp836
(dp837
g26
Nsg27
I00
sbsg35
g29
(S'\x07\xde\x04\x04\n5%\x07\xc80'
tRp838
sg37
I2
sg38
S'ethomas@anl.gov'
p839
sa(dp840
g3
Nsg4
I00
sg5
S'GHC 2014 Silver Industry Sponsor '
p841
sg7
S'Alyssa'
p842
sg9
S'Tech Marketing Project Manager'
p843
sg11
S'Arvin'
p844
sg13
S'Salesforce.com'
p845
sg15
S'Confirmed'
p846
sg17
S'rburkebile@salesforce.com'
p847
sg19
I214102
sg20
g21
(g22
g23
Vjohnsoja
tRp848
(dp849
g26
Nsg27
I00
sbsg28
g29
(S'\x07\xde\x08\x03\r\x04,\x04\x9f\x98'
tRp850
sg31
I67665414
sg32
g21
(g22
g23
VAttendee
tRp851
(dp852
g26
Nsg27
I00
sbsg35
g29
(S"\x07\xde\x04\x07\x0b'\x12\x07S\x00"
tRp853
sg37
I2
sg38
S'aarvin@salesforce.com'
p854
sa(dp855
g3
Nsg4
I01
sg5
S'GHC 2014 Silver Industry Sponsor '
p856
sg7
S'Lisa'
p857
sg9
S'Relationship Manager, Diversity'
p858
sg11
S'Labarbera'
p859
sg13
S'Prudential'
p860
sg15
S'Confirmed'
p861
sg17
S'Jessica.Cruz@Prudential.com'
p862
sg19
I214102
sg20
g21
(g22
g23
Vkathrynb1
tRp863
(dp864
g26
Nsg27
I00
sbsg28
g29
(S'\x07\xde\t\x08\x0c!\x1f\x02\xe60'
tRp865
sg31
I67676314
sg32
g21
(g22
g23
VAttendee
tRp866
(dp867
g26
Nsg27
I00
sbsg35
g29
(S'\x07\xde\x04\x07\x0e*\x01\x03g\x18'
tRp868
sg37
I2
sg38
S'lisa.labarbera@prudential.com'
p869
sa(dp870
g3
Nsg4
I00
sg5
S'GHC 2014 Silver Industry Sponsor '
p871
sg7
S'Marvin'
p872
sg9
S'Global University Relations Manager'
p873
sg11
S'Lopez'
p874
sg13
S'AMD'
p875
sg15
S'Confirmed'
p876
sg17
S''
sg19
I214102
sg20
g21
(g22
g23
Vjohnsoja
tRp877
(dp878
g26
Nsg27
I00
sbsg28
g29
(S'\x07\xde\x07\x03\x0c\x0f.\x00\x90\x88'
tRp879
sg31
I67785345
sg32
g21
(g22
g23
VAttendee
tRp880
(dp881
g26
Nsg27
I00
sbsg35
g29
(S'\x07\xde\x04\t\x11-\x06\x04E\xc0'
tRp882
sg37
I2
sg38
S'marvin.lopez@amd.com'
p883
sa(dp884
g3
Nsg4
I00
sg5
S'GHC 2014 Silver Academic, National Lab & NonProfit Sponsor'
p885
sg7
S'Kristi'
p886
sg9
S'CSE Undergraduate Program Coordinator'
p887
sg11
S'MacKenzie'
p888
sg13
S'University of Michigan, CSE'
p889
sg15
S'Confirmed'
p890
sg17
S'kcormier@umich.edu'
p891
sg19
I214105
sg20
g21
(g22
g23
VSystem Process
tRp892
(dp893
g26
Nsg27
I00
sbsg28
g29
(S'\x07\xde\x06\x18\x06\r!\rFp'
tRp894
sg31
I67805197
sg32
g21
(g22
g23
VAttendee
tRp895
(dp896
g26
Nsg27
I00
sbsg35
g29
(S'\x07\xde\x04\n\x08\x02\x01\n\x93\x08'
tRp897
sg37
I2
sg38
S'kmacken@umich.edu'
p898
sa(dp899
g3
Nsg4
I00
sg5
S'GHC 2014 Gold  Academic, National Lab & NonProfit Sponsor'
p900
sg7
S'Kari'
p901
sg9
S'Director of Admissions'
p902
sg11
S'Gazdich'
p903
sg13
S'Carnegie Mellon University'
p904
sg15
S'Confirmed'
p905
sg17
S'jonesc@ece.cmu.edu'
p906
sg19
I214104
sg20
g21
(g22
g23
Vkathrynb1
tRp907
(dp908
g26
Nsg27
I00
sbsg28
g29
(S'\x07\xde\t\x08\x12"6\x0b}h'
tRp909
sg31
I67937960
sg32
g21
(g22
g23
VAttendee
tRp910
(dp911
g26
Nsg27
I00
sbsg35
g29
(S'\x07\xde\x04\x0e\x0c\x1a4\x02U\xa8'
tRp912
sg37
I2
sg38
S'kgaz@cmu.edu'
p913
sa(dp914
g3
Nsg4
I00
sg5
S'GHC 2014 Platinum Sponsor (available to ABI Partners Only)'
p915
sg7
S'Paul'
p916
sg9
S'Sr HR Consultant, Nationwide'
p917
sg11
S'Szlosek'
p918
sg13
S'Nationwide Insurance'
p919
sg15
S'Confirmed'
p920
sg17
S''
sg19
I214100
sg20
g21
(g22
g23
Vkathrynb1
tRp921
(dp922
g26
Nsg27
I00
sbsg28
g29
(S'\x07\xde\x07\x1d\x12%\x15\x0b\xbf\xd0'
tRp923
sg31
I67993708
sg32
g21
(g22
g23
VAttendee
tRp924
(dp925
g26
Nsg27
I00
sbsg35
g29
(S'\x07\xde\x04\x0f\x0e\x18\x12\x002\xc8'
tRp926
sg37
I2
sg38
S'szlosep@nationwide.com'
p927
sa(dp928
g3
Nsg4
I00
sg5
S'GHC 2014 Silver Academic, National Lab & NonProfit Sponsor'
p929
sg7
S'Barry'
p930
sg9
S'Marketing Associate'
p931
sg11
S'Williams'
p932
sg13
S'AAAS S & T Policy Fellowships'
p933
sg15
S'Confirmed'
p934
sg17
S''
sg19
I214105
sg20
g21
(g22
g23
Vtinapratt
tRp935
(dp936
g26
Nsg27
I00
sbsg28
g29
(S'\x07\xde\x06\x14\x0f!\x0e\x02>8'
tRp937
sg31
I67999561
sg32
g21
(g22
g23
VAttendee
tRp938
(dp939
g26
Nsg27
I00
sbsg35
g29
(S'\x07\xde\x04\x0f\x0f\x161\t\x1c\x08'
tRp940
sg37
I2
sg38
S'bwilliam@aaas.org'
p941
sa(dp942
g3
Nsg4
I00
sg5
S'GHC 2014 Gold Industry Sponsor'
p943
sg7
S'Sanam'
p944
sg9
S'Recruiter'
p945
sg11
S'Shetty'
p946
sg13
S'Two Sigma'
p947
sg15
S'Confirmed'
p948
sg17
S'leighton.symons@twosigma.com'
p949
sg19
I214101
sg20
g21
(g22
g23
Vkathrynb1
tRp950
(dp951
g26
Nsg27
I00
sbsg28
g29
(S'\x07\xde\x06\x12\x0e\x15\x01\x0e\x15x'
tRp952
sg31
I68043118
sg32
g21
(g22
g23
VAttendee
tRp953
(dp954
g26
Nsg27
I00
sbsg35
g29
(S'\x07\xde\x04\x10\x0e\x18 \x081\xa8'
tRp955
sg37
I2
sg38
S'sanam.shetty@twosigma.com'
p956
sa(dp957
g3
Nsg4
I00
sg5
S'GHC 2014 Silver Academic, National Lab & NonProfit Sponsor'
p958
sg7
S'Jeff'
p959
sg9
S'Senior Recruiter'
p960
sg11
S'Todd'
p961
sg13
S'Lawrence Berkeley National Lab'
p962
sg15
S'Confirmed'
p963
sg17
S'ejbautista@lbl.gov'
p964
sg19
I214105
sg20
g21
(g22
g23
Vkathrynb1
tRp965
(dp966
g26
Nsg27
I00
sbsg28
g29
(S'\x07\xde\x07\x0b\n0+\x06\xd2\x18'
tRp967
sg31
I68477633
sg32
g21
(g22
g23
VAttendee
tRp968
(dp969
g26
Nsg27
I00
sbsg35
g29
(S'\x07\xde\x04\x1c\x10(\x16\x07S\x00'
tRp970
sg37
I2
sg38
S'jltodd@lbl.gov'
p971
sa(dp972
g3
Nsg4
I00
sg5
S'GHC 2014 Bronze Industry Sponsor'
p973
sg7
S'Mike'
p974
sg9
S'Recruiting Associate'
p975
sg11
S'Stenman'
p976
sg13
S'Bridgewater Associates'
p977
sg15
S'Confirmed'
p978
sg17
S'nicole.bamford@bwater.com'
p979
sg19
I214103
sg20
g21
(g22
g23
VSystem Process
tRp980
(dp981
g26
Nsg27
I00
sbsg28
g29
(S'\x07\xde\x06\x11\x12!\x1f\x05\xd8\x18'
tRp982
sg31
I68502868
sg32
g21
(g22
g23
VAttendee
tRp983
(dp984
g26
Nsg27
I00
sbsg35
g29
(S'\x07\xde\x04\x1d\x08\x15\x12\x00\x0b\xb8'
tRp985
sg37
I2
sg38
S'mike.stenman@bwater.com'
p986
sa(dp987
g3
Nsg4
I00
sg5
S'GHC 2014 Silver Academic, National Lab & NonProfit Sponsor'
p988
sg7
S'Deb'
p989
sg9
S'Executive Director'
p990
sg11
S'Goodkin'
p991
sg13
S'FreeBSD Foundation'
p992
sg15
S'Confirmed'
p993
sg17
S'dru.lavigne@att.net'
p994
sg19
I214105
sg20
g21
(g22
g23
VSystem Process
tRp995
(dp996
g26
Nsg27
I00
sbsg28
g29
(S'\x07\xde\x08\x03\r\x06\n\x00\xb7\x98'
tRp997
sg31
I68740690
sg32
g21
(g22
g23
VAttendee
tRp998
(dp999
g26
Nsg27
I00
sbsg35
g29
(S'\x07\xde\x05\x05\t\x07\x19\x06\xd2\x18'
tRp1000
sg37
I2
sg38
S'deb@freebsd.org'
p1001
sa(dp1002
g3
Nsg4
I00
sg5
S'GHC 2014 Silver Industry Sponsor '
p1003
sg7
S'Michelle'
p1004
sg9
S'Recruiting Team'
p1005
sg11
S'Morton'
p1006
sg13
S'Addepar'
p1007
sg15
S'Confirmed'
p1008
sg17
S''
sg19
I214102
sg20
g21
(g22
g23
Vjohnsoja
tRp1009
(dp1010
g26
Nsg27
I00
sbsg28
g29
(S'\x07\xde\x06\t\x0e*\t\t\x81\x98'
tRp1011
sg31
I68745440
sg32
g21
(g22
g23
VAttendee
tRp1012
(dp1013
g26
Nsg27
I00
sbsg35
g29
(S'\x07\xde\x05\x05\n\x196\tN\xd0'
tRp1014
sg37
I2
sg38
S'michelle@addepar.com'
p1015
sa(dp1016
g3
Nsg4
I00
sg5
S'GHC 2014 Gold  Academic, National Lab & NonProfit Sponsor'
p1017
sg7
S'Marielle'
p1018
sg9
S'Program Coordinator of Employer Relations'
p1019
sg11
S'Thomas'
p1020
sg13
S'Georgia Institute of Technology'
p1021
sg15
S'Confirmed'
p1022
sg17
S''
sg19
I214104
sg20
g21
(g22
g23
Vjohnsoja
tRp1023
(dp1024
g26
Nsg27
I00
sbsg28
g29
(S'\x07\xde\x06\x14\n\x1e$\x01\xad\xb0'
tRp1025
sg31
I68754280
sg32
g21
(g22
g23
VAttendee
tRp1026
(dp1027
g26
Nsg27
I00
sbsg35
g29
(S'\x07\xde\x05\x05\x0c0)\x01,\xc8'
tRp1028
sg37
I2
sg38
S'mcthomas@cc.gatech.edu'
p1029
sa(dp1030
g3
Nsg4
I00
sg5
S'GHC 2014 Silver Academic, National Lab & NonProfit Sponsor'
p1031
sg7
S'Jill'
p1032
sg9
S'Sr. Technical Recruiter'
p1033
sg11
S'Schroeder'
p1034
sg13
S'Pacific Northwest National Laboratory'
p1035
sg15
S'Confirmed'
p1036
sg17
S'anna.mitson@pnnl.gov'
p1037
sg19
I214105
sg20
g21
(g22
g23
VSystem Process
tRp1038
(dp1039
g26
Nsg27
I00
sbsg28
g29
(S"\x07\xde\x08\x03\r\x03\x08\x00'\x10"
tRp1040
sg31
I68802079
sg32
g21
(g22
g23
VAttendee
tRp1041
(dp1042
g26
Nsg27
I00
sbsg35
g29
(S'\x07\xde\x05\x06\x0b*;\x05\xcc`'
tRp1043
sg37
I2
sg38
S'jill.schroeder@pnnl.gov'
p1044
sa(dp1045
g3
Nsg4
I01
sg5
S'GHC 2014 Bronze Academic, National Lab & NonProfit Sponsor'
p1046
sg7
S'Michele'
p1047
sg9
S'Admin Intelligent Systems Program'
p1048
sg11
S'Thomas'
p1049
sg13
S'University of Pittsburgh CS&ISP '
p1050
sg15
S'Confirmed'
p1051
sg17
S''
sg19
I214106
sg20
g21
(g22
g23
Vkathrynb1
tRp1052
(dp1053
g26
Nsg27
I00
sbsg28
g29
(S'\x07\xde\x08\n\x10/2\x03\xa9\x80'
tRp1054
sg31
I68856525
sg32
g21
(g22
g23
VAttendee
tRp1055
(dp1056
g26
Nsg27
I00
sbsg35
g29
(S'\x07\xde\x05\x07\x0c5\x11\x04\x1e\xb0'
tRp1057
sg37
I2
sg38
S'paum4b@pitt.edu'
p1058
sa(dp1059
g3
Nsg4
I00
sg5
S'GHC 2014 Silver Industry Sponsor '
p1060
sg7
S'Lisa'
p1061
sg9
S'Systems Analyst'
p1062
sg11
S'Clawson'
p1063
sg13
S'State Farm'
p1064
sg15
S'Confirmed'
p1065
sg17
S''
sg19
I214102
sg20
g21
(g22
g23
Vkathrynb1
tRp1066
(dp1067
g26
Nsg27
I00
sbsg28
g29
(S'\x07\xde\x08\x12\n\t\x1e\x05\xff('
tRp1068
sg31
I68891039
sg32
g21
(g22
g23
VAttendee
tRp1069
(dp1070
g26
Nsg27
I00
sbsg35
g29
(S'\x07\xde\x05\x08\x08#,\x04\xe2\x00'
tRp1071
sg37
I2
sg38
S'lisa.clawson.ghjd@statefarm.com'
p1072
sa(dp1073
g3
Nsg4
I00
sg5
S'GHC 2014 Silver Industry Sponsor '
p1074
sg7
S'Anna'
p1075
sg9
S'Manager, Technology Talent Acquisition'
p1076
sg11
S'Karapogosyan'
p1077
sg13
S'The Walt Disney Company'
p1078
sg15
S'Confirmed'
p1079
sg17
S''
sg19
I214102
sg20
g21
(g22
g23
Vkathrynb1
tRp1080
(dp1081
g26
Nsg27
I00
sbsg28
g29
(S'\x07\xde\x08\x14\x11%\x11\x03[`'
tRp1082
sg31
I69036079
sg32
g21
(g22
g23
VAttendee
tRp1083
(dp1084
g26
Nsg27
I00
sbsg35
g29
(S'\x07\xde\x05\x0c\x11\x00\x12\x0bq\xb0'
tRp1085
sg37
I2
sg38
S'anna.karapogosyan@disney.com'
p1086
sa(dp1087
g3
Nsg4
I00
sg5
S'GHC 2014 Silver Academic, National Lab & NonProfit Sponsor'
p1088
sg7
S'Sheila'
p1089
sg9
S'Administrator'
p1090
sg11
S'Shull'
p1091
sg13
S'CALTECH'
p1092
sg15
S'Confirmed'
p1093
sg17
S's.k.shull@gmail.com'
p1094
sg19
I214105
sg20
g21
(g22
g23
VSystem Process
tRp1095
(dp1096
g26
Nsg27
I00
sbsg28
g29
(S'\x07\xde\x06\x14\x0e\r\r\x0e\x9aH'
tRp1097
sg31
I69082192
sg32
g21
(g22
g23
VAttendee
tRp1098
(dp1099
g26
Nsg27
I00
sbsg35
g29
(S'\x07\xde\x05\r\x0f;\x19\x00Y\xd8'
tRp1100
sg37
I2
sg38
S'sheila@caltech.edu'
p1101
sa(dp1102
g3
Nsg4
I00
sg5
S'GHC 2014 Platinum Sponsor (available to ABI Partners Only)'
p1103
sg7
S'Amber'
p1104
sg9
S'Manager- University Relations'
p1105
sg11
S'Daniels'
p1106
sg13
S'VMware'
p1107
sg15
S'Confirmed'
p1108
sg17
S'schmidta@vmware.com'
p1109
sg19
I214100
sg20
g21
(g22
g23
Vjohnsoja
tRp1110
(dp1111
g26
Nsg27
I00
sbsg28
g29
(S'\x07\xde\x07\x17\x11\t%\n\xba\x18'
tRp1112
sg31
I69110911
sg32
g21
(g22
g23
VAttendee
tRp1113
(dp1114
g26
Nsg27
I00
sbsg35
g29
(S'\x07\xde\x05\x0e\t#\x0f\x0b\x17\xd8'
tRp1115
sg37
I2
sg38
S'danielsa@vmware.com'
p1116
sa(dp1117
g3
Nsg4
I00
sg5
S'GHC 2014 Platinum Sponsor (available to ABI Partners Only)'
p1118
sg7
S'Luis'
p1119
sg9
S'Senior Vice President'
p1120
sg11
S'Villadiego'
p1121
sg13
S'Bank of America'
p1122
sg15
S'Confirmed'
p1123
sg17
S'angela.Morris@bankofamerica.com '
p1124
sg19
I214100
sg20
g21
(g22
g23
Vkathrynb1
tRp1125
(dp1126
g26
Nsg27
I00
sbsg28
g29
(S'\x07\xde\x08\x1a\x13 \x16\x03\xc4\xd8'
tRp1127
sg31
I69118751
sg32
g21
(g22
g23
VAttendee
tRp1128
(dp1129
g26
Nsg27
I00
sbsg35
g29
(S'\x07\xde\x05\x0e\x0b\x1c\x1b\x08I\x18'
tRp1130
sg37
I2
sg38
S'luis.villadiego@bankofamerica.com'
p1131
sa(dp1132
g3
Nsg4
I00
sg5
S'GHC 2014 Platinum Sponsor (available to ABI Partners Only)'
p1133
sg7
S'Desiree'
p1134
sg9
S'Specialist, Student Development'
p1135
sg11
S'Caballero'
p1136
sg13
S'Google'
p1137
sg15
S'Confirmed'
p1138
sg17
S'matthoward@google.com'
p1139
sg19
I214100
sg20
g21
(g22
g23
Vkathrynb1
tRp1140
(dp1141
g26
Nsg27
I00
sbsg28
g29
(S'\x07\xde\x08\x01\x0b%.\x02|\xb8'
tRp1142
sg31
I69165376
sg32
g21
(g22
g23
Vkathrynb1
tRp1143
(dp1144
g26
Nsg27
I00
sbsg35
g29
(S'\x07\xde\x05\x0f\x0c\x03\x1f\x07\xd3\xe8'
tRp1145
sg37
I2
sg38
S'desireec@google.com'
p1146
sa(dp1147
g3
Nsg4
I00
sg5
S'GHC 2014 Platinum Sponsor (available to ABI Partners Only)'
p1148
sg7
S'Kesha'
p1149
sg9
S'National Events Manager'
p1150
sg11
S'Hill'
p1151
sg13
S'Lockheed Martin '
p1152
sg15
S'Confirmed'
p1153
sg17
S''
sg19
I214100
sg20
g21
(g22
g23
Vjohnsoja
tRp1154
(dp1155
g26
Nsg27
I00
sbsg28
g29
(S'\x07\xde\x08\x03\r\x01\x06\r\xe2\xb0'
tRp1156
sg31
I69174870
sg32
g21
(g22
g23
Vkathrynb1
tRp1157
(dp1158
g26
Nsg27
I00
sbsg35
g29
(S'\x07\xde\x05\x0f\r:\x04\x0c\x8e\xd8'
tRp1159
sg37
I2
sg38
S'kesha.harris@lmco.com'
p1160
sa(dp1161
g3
Nsg4
I00
sg5
S'GHC 2014 Bronze Industry Sponsor'
p1162
sg7
S'Louis'
p1163
sg9
S'Technology Recruiter'
p1164
sg11
S'Deli'
p1165
sg13
S'Sears Holding '
p1166
sg15
S'Confirmed'
p1167
sg17
S'stacy.greenfield@searshc.com'
p1168
sg19
I214103
sg20
g21
(g22
g23
Vjohnsoja
tRp1169
(dp1170
g26
Nsg27
I00
sbsg28
g29
(S'\x07\xde\x08\x03\r\x05\x08\x04a\x18'
tRp1171
sg31
I69175309
sg32
g21
(g22
g23
Vkathrynb1
tRp1172
(dp1173
g26
Nsg27
I00
sbsg35
g29
(S'\x07\xde\x05\x0f\x0e\x04%\r\xc7X'
tRp1174
sg37
I2
sg38
S'Louis.Deli@searshc.com'
p1175
sa(dp1176
g3
Nsg4
I00
sg5
S'GHC 2014 Silver Industry Sponsor '
p1177
sg7
S'Doug'
p1178
sg9
S'.'
sg11
S'Tetzner'
p1179
sg13
S'Shopify'
p1180
sg15
S'Confirmed'
p1181
sg17
S''
sg19
I214102
sg20
g21
(g22
g23
Vjohnsoja
tRp1182
(dp1183
g26
Nsg27
I00
sbsg28
g29
(S'\x07\xde\x06\t\x0f,(\r\xd6\xf8'
tRp1184
sg31
I69175480
sg32
g21
(g22
g23
Vkathrynb1
tRp1185
(dp1186
g26
Nsg27
I00
sbsg35
g29
(S'\x07\xde\x05\x0f\x0e\x06\x1f\x0e%\x18'
tRp1187
sg37
I2
sg38
S'doug@shopify.com'
p1188
sa(dp1189
g3
Nsg4
I01
sg5
S'GHC 2014 Bronze Industry Sponsor'
p1190
sg7
S'Mark'
p1191
sg9
S'Director HR Global Categories & Global Geography IT'
p1192
sg11
S'Bachmann'
p1193
sg13
S'Unilever'
p1194
sg15
S'Confirmed'
p1195
sg17
S'Jackie.Jacobson@unilever.com'
p1196
sg19
I214103
sg20
g21
(g22
g23
Vkathrynb1
tRp1197
(dp1198
g26
Nsg27
I00
sbsg28
g29
(S'\x07\xde\x08\x0f\r*\x0f\x01\xa1\xf8'
tRp1199
sg31
I69175585
sg32
g21
(g22
g23
Vkathrynb1
tRp1200
(dp1201
g26
Nsg27
I00
sbsg35
g29
(S'\x07\xde\x05\x0f\x0e\x085\x0b\xf2\x98'
tRp1202
sg37
I2
sg38
S'Mark.Bachmann@unilever.com'
p1203
sa(dp1204
g3
Nsg4
I00
sg5
S'GHC 2014 Platinum Sponsor (available to ABI Partners Only)'
p1205
sg7
S'Jacqueline'
p1206
sg9
S'Diversity Program Manager'
p1207
sg11
S"O'Sullivan"
p1208
sg13
S'IBM'
p1209
sg15
S'Confirmed'
p1210
sg17
S''
sg19
I214100
sg20
g21
(g22
g23
Vjohnsoja
tRp1211
(dp1212
g26
Nsg27
I00
sbsg28
g29
(S'\x07\xde\x06\x1a\x0e\x1d5\x07GH'
tRp1213
sg31
I69179013
sg32
g21
(g22
g23
Vkathrynb1
tRp1214
(dp1215
g26
Nsg27
I00
sbsg35
g29
(S'\x07\xde\x05\x0f\x0f\x126\x07\x85\xc8'
tRp1216
sg37
I2
sg38
S'josulliv@us.ibm.com'
p1217
sa(dp1218
g3
Nsg4
I00
sg5
S'GHC 2014 Gold Industry Sponsor'
p1219
sg7
S'Dana'
p1220
sg9
S'Sr. Manager, University Relations'
p1221
sg11
S'Gharda'
p1222
sg13
S'@WalmartLabs'
p1223
sg15
S'Confirmed'
p1224
sg17
S'Keri.Reynolds@walmart.com'
p1225
sg19
I214101
sg20
g21
(g22
g23
Vkathrynb1
tRp1226
(dp1227
g26
Nsg27
I00
sbsg28
g29
(S'\x07\xde\x08\x1b\x0f,\x0f\x00\x80\xe8'
tRp1228
sg31
I69180507
sg32
g21
(g22
g23
Vkathrynb1
tRp1229
(dp1230
g26
Nsg27
I00
sbsg35
g29
(S'\x07\xde\x05\x0f\x0f87\x02\xf1\xe8'
tRp1231
sg37
I2
sg38
S'DGharda@walmart.com'
p1232
sa(dp1233
g3
Nsg4
I00
sg5
S'GHC 2014 Silver Academic, National Lab & NonProfit Sponsor'
p1234
sg7
S'Michele'
p1235
sg9
S'Event Producer'
p1236
sg11
S'Leonard'
p1237
sg13
S'NCWIT'
p1238
sg15
S'Confirmed'
p1239
sg17
S'michele.leonard@Colorado.EDU'
p1240
sg19
I214105
sg20
g21
(g22
g23
Vkathrynb1
tRp1241
(dp1242
g26
Nsg27
I00
sbsg28
g29
(S'\x07\xde\t\x15\x16\x10-\n{\x98'
tRp1243
sg31
I69180889
sg32
g21
(g22
g23
Vkathrynb1
tRp1244
(dp1245
g26
Nsg27
I00
sbsg35
g29
(S'\x07\xde\x05\x0f\x10\t#\x03\xf7\xa0'
tRp1246
sg37
I2
sg38
S'ruthe.farmer@ncwit.org'
p1247
sa(dp1248
g3
Nsg4
I00
sg5
S'GHC 2014 Silver Industry Sponsor '
p1249
sg7
S'Dana'
p1250
sg9
S'Staffing Manager, Technical Consulting & Services'
p1251
sg11
S'Muckerheide'
p1252
sg13
S'Teradata'
p1253
sg15
S'Confirmed'
p1254
sg17
S''
sg19
I214102
sg20
g21
(g22
g23
VSystem Process
tRp1255
(dp1256
g26
Nsg27
I00
sbsg28
g29
(S'\x07\xde\x06\x0c\x11\x05\x1e\x0e\xc1X'
tRp1257
sg31
I69220694
sg32
g21
(g22
g23
VAttendee
tRp1258
(dp1259
g26
Nsg27
I00
sbsg35
g29
(S'\x07\xde\x05\x10\x0e\x1c!\x06\x8f\xb0'
tRp1260
sg37
I2
sg38
S'dana.muckerheide2@teradata.com'
p1261
sa(dp1262
g3
Nsg4
I00
sg5
S'GHC 2014 Gold  Academic, National Lab & NonProfit Sponsor'
p1263
sg7
S'Sharon'
p1264
sg9
S'Assistant Dean'
p1265
sg11
S'Hill'
p1266
sg13
S'Bentley University'
p1267
sg15
S'Confirmed'
p1268
sg17
S'sshorr@bentley.edu'
p1269
sg19
I214104
sg20
g21
(g22
g23
Vkathrynb1
tRp1270
(dp1271
g26
Nsg27
I00
sbsg28
g29
(S'\x07\xde\x06\x11\x12\x1c\x0e\x0b\xe6\xe0'
tRp1272
sg31
I69273177
sg32
g21
(g22
g23
VAttendee
tRp1273
(dp1274
g26
Nsg27
I00
sbsg35
g29
(S'\x07\xde\x05\x13\x08\x1b\x14\n\x12 '
tRp1275
sg37
I2
sg38
S'shill@bentley.edu'
p1276
sa(dp1277
g3
Nsg4
I00
sg5
S'GHC 2014 Bronze Industry Sponsor'
p1278
sg7
S'Lisa'
p1279
sg9
S'Diversity Program Manager'
p1280
sg11
S'Lee'
p1281
sg13
S'Pandora'
p1282
sg15
S'Confirmed'
p1283
sg17
S''
sg19
I214103
sg20
g21
(g22
g23
Vjohnsoja
tRp1284
(dp1285
g26
Nsg27
I00
sbsg28
g29
(S'\x07\xde\x06\x07\x0f.,\x03\x82p'
tRp1286
sg31
I69297554
sg32
g21
(g22
g23
VAttendee
tRp1287
(dp1288
g26
Nsg27
I00
sbsg35
g29
(S'\x07\xde\x05\x13\x10\x1d\x03\n\x87P'
tRp1289
sg37
I2
sg38
S'llee@pandora.com'
p1290
sa(dp1291
g3
Nsg4
I00
sg5
S'GHC 2014 Bronze Industry Sponsor'
p1292
sg7
S'Jennifer'
p1293
sg9
S'Sr. Event Manager'
p1294
sg11
S'Burke'
p1295
sg13
S'Chef'
p1296
sg15
S'Confirmed'
p1297
sg17
S''
sg19
I214103
sg20
g21
(g22
g23
Vjohnsoja
tRp1298
(dp1299
g26
Nsg27
I00
sbsg28
g29
(S'\x07\xde\x06\x07\x0f"8\x07\xfa\xf8'
tRp1300
sg31
I69375025
sg32
g21
(g22
g23
VAttendee
tRp1301
(dp1302
g26
Nsg27
I00
sbsg35
g29
(S'\x07\xde\x05\x15\n89\x07\x04\xe0'
tRp1303
sg37
I2
sg38
S'jennifer@getchef.com'
p1304
sa(dp1305
g3
Nsg4
I00
sg5
S'GHC 2014 Bronze Industry Sponsor'
p1306
sg7
S'Emily'
p1307
sg9
S'Communications'
p1308
sg11
S'Chin'
p1309
sg13
S'Sift Science'
p1310
sg15
S'Confirmed'
p1311
sg17
S'liz@siftscience.com'
p1312
sg19
I214103
sg20
g21
(g22
g23
VSystem Process
tRp1313
(dp1314
g26
Nsg27
I00
sbsg28
g29
(S'\x07\xde\x06\x11\x12\x1f1\x06tX'
tRp1315
sg31
I69432412
sg32
g21
(g22
g23
VAttendee
tRp1316
(dp1317
g26
Nsg27
I00
sbsg35
g29
(S'\x07\xde\x05\x16\x0f,\x0f\x06\x8f\xb0'
tRp1318
sg37
I2
sg38
S'emily@siftscience.com'
p1319
sa(dp1320
g3
Nsg4
I00
sg5
S'Additional Sponsorship Opportunities'
p1321
sg7
S'Alex'
p1322
sg9
S'Nestling Lead'
p1323
sg11
S'Wrigley'
p1324
sg13
S'Nest'
p1325
sg15
S'Confirmed'
p1326
sg17
S''
sg19
I214301
sg20
g21
(g22
g23
Vkathrynb1
tRp1327
(dp1328
g26
Nsg27
I00
sbsg28
g29
(S'\x07\xde\x05\x1d\x10\x08\x0f\x02q\x00'
tRp1329
sg31
I69581846
sg32
g21
(g22
g23
Vkathrynb1
tRp1330
(dp1331
g26
Nsg27
I00
sbsg35
g29
(S'\x07\xde\x05\x1c\x08!\x12\x08=`'
tRp1332
sg37
I2
sg38
S'awrigley@nestlabs.com'
p1333
sa(dp1334
g3
Nsg4
I00
sg5
S'GHC 2014 Silver Industry Sponsor '
p1335
sg7
S'Elizabeth'
p1336
sg9
S'Event Handler'
p1337
sg11
S'Naramore'
p1338
sg13
S'GitHub'
p1339
sg15
S'Confirmed'
p1340
sg17
S'sponsorships@github.com, jroll@github.com'
p1341
sg19
I214102
sg20
g21
(g22
g23
Vkathrynb1
tRp1342
(dp1343
g26
Nsg27
I00
sbsg28
g29
(S'\x07\xde\x06\x11\x12%\r\n\xe1('
tRp1344
sg31
I69595543
sg32
g21
(g22
g23
VAttendee
tRp1345
(dp1346
g26
Nsg27
I00
sbsg35
g29
(S'\x07\xde\x05\x1c\x0c&"\x07\xa1 '
tRp1347
sg37
I2
sg38
S'elizabeth@github.com'
p1348
sa(dp1349
g3
Nsg4
I00
sg5
S'GHC 2014 Gold  Academic, National Lab & NonProfit Sponsor'
p1350
sg7
S'Angela'
p1351
sg9
S'Advisor'
p1352
sg11
S'Murphy'
p1353
sg13
S'Purdue University'
p1354
sg15
S'Confirmed'
p1355
sg17
S'mallus@purdue.edu'
p1356
sg19
I214104
sg20
g21
(g22
g23
VSystem Process
tRp1357
(dp1358
g26
Nsg27
I00
sbsg28
g29
(S'\x07\xde\x06\x11\x12\x1b\x1f\n\xa2\xa8'
tRp1359
sg31
I69599056
sg32
g21
(g22
g23
VAttendee
tRp1360
(dp1361
g26
Nsg27
I00
sbsg35
g29
(S'\x07\xde\x05\x1c\x0e\r8\x04\xc6\xa8'
tRp1362
sg37
I2
sg38
S'armurphy@purdue.edu'
p1363
sa(dp1364
g3
Nsg4
I00
sg5
S'GHC 2014 Silver Industry Sponsor '
p1365
sg7
S'Janet'
p1366
sg9
S'Technical Recruiter'
p1367
sg11
S'Frishberg'
p1368
sg13
S'Airbnb'
p1369
sg15
S'Confirmed'
p1370
sg17
S''
sg19
I214102
sg20
g21
(g22
g23
Vjohnsoja
tRp1371
(dp1372
g26
Nsg27
I00
sbsg28
g29
(S'\x07\xde\x06\t\x0f)\x02\x04\x88('
tRp1373
sg31
I69608015
sg32
g21
(g22
g23
VAttendee
tRp1374
(dp1375
g26
Nsg27
I00
sbsg35
g29
(S'\x07\xde\x05\x1c\x11*\x08\x06\xd2\x18'
tRp1376
sg37
I2
sg38
S'janet.frishberg@airbnb.com'
p1377
sa(dp1378
g3
Nsg4
I00
sg5
S'GHC 2014 Silver Industry Sponsor '
p1379
sg7
S'Vivian'
p1380
sg9
S'Vice President, Human Resources'
p1381
sg11
S'Chow'
p1382
sg13
S'Travelers'
p1383
sg15
S'Confirmed'
p1384
sg17
S'meckert2@travelers.com'
p1385
sg19
I214102
sg20
g21
(g22
g23
VSystem Process
tRp1386
(dp1387
g26
Nsg27
I00
sbsg28
g29
(S'\x07\xde\x06\x11\x12"\x17\x04*h'
tRp1388
sg31
I69652524
sg32
g21
(g22
g23
VAttendee
tRp1389
(dp1390
g26
Nsg27
I00
sbsg35
g29
(S'\x07\xde\x05\x1d\x106)\x0eL('
tRp1391
sg37
I2
sg38
S'vchow@travelers.com'
p1392
sa(dp1393
g3
Nsg4
I00
sg5
S'GHC 2014 Gold Industry Sponsor'
p1394
sg7
S'Laura'
p1395
sg9
S'Recruitment Marketing Manager'
p1396
sg11
S'Nash'
p1397
sg13
S'ThoughtWorks'
p1398
sg15
S'Confirmed'
p1399
sg17
S'tzelecho@thoughtworks.com'
p1400
sg19
I214101
sg20
g21
(g22
g23
Vkathrynb1
tRp1401
(dp1402
g26
Nsg27
I00
sbsg28
g29
(S'\x07\xde\x06\x11\x12\'"\x06\xdd\xd0'
tRp1403
sg31
I69774882
sg32
g21
(g22
g23
VAttendee
tRp1404
(dp1405
g26
Nsg27
I00
sbsg35
g29
(S'\x07\xde\x06\x02\x0f\x19\x1e\x08\x8b\x80'
tRp1406
sg37
I2
sg38
S'lnash@thoughtworks.com'
p1407
sa(dp1408
g3
Nsg4
I00
sg5
S'GHC 2014 Silver Industry Sponsor '
p1409
sg7
S'Amanda'
p1410
sg9
S'University Relations Recruiter'
p1411
sg11
S'Moser'
p1412
sg13
S'USAA'
p1413
sg15
S'Confirmed'
p1414
sg17
S''
sg19
I214102
sg20
g21
(g22
g23
VSystem Process
tRp1415
(dp1416
g26
Nsg27
I00
sbsg28
g29
(S'\x07\xde\x08\x04\x0f;\x13\x02\xa3\xc8'
tRp1417
sg31
I69776993
sg32
g21
(g22
g23
VAttendee
tRp1418
(dp1419
g26
Nsg27
I00
sbsg35
g29
(S'\x07\xde\x06\x02\x10\x12,\x0f\x0fx'
tRp1420
sg37
I2
sg38
S'amanda.moser@usaa.com'
p1421
sa(dp1422
g3
Nsg4
I00
sg5
S'GHC 2014 Bronze Industry Sponsor'
p1423
sg7
S'Catherine'
p1424
sg9
S'Recruiter'
p1425
sg11
S'Connolly'
p1426
sg13
S'Simple'
p1427
sg15
S'Confirmed'
p1428
sg17
S'lindsay@simple.com'
p1429
sg19
I214103
sg20
g21
(g22
g23
VSystem Process
tRp1430
(dp1431
g26
Nsg27
I00
sbsg28
g29
(S'\x07\xde\x06\x11\x12\x1f\x18\x03[`'
tRp1432
sg31
I69781774
sg32
g21
(g22
g23
VAttendee
tRp1433
(dp1434
g26
Nsg27
I00
sbsg35
g29
(S'\x07\xde\x06\x02\x1213\x02\x8cX'
tRp1435
sg37
I2
sg38
S'Cate@simple.com'
p1436
sa(dp1437
g3
Nsg4
I00
sg5
S'GHC 2014 Bronze Academic, National Lab & NonProfit Sponsor'
p1438
sg7
S'Sonja'
p1439
sg9
S'Associate Director'
p1440
sg11
S'Phongsavanh'
p1441
sg13
S'Rochester Institute of Technology'
p1442
sg15
S'Confirmed'
p1443
sg17
S'njlrpt@rit.edu'
p1444
sg19
I214106
sg20
g21
(g22
g23
Vkathrynb1
tRp1445
(dp1446
g26
Nsg27
I00
sbsg28
g29
(S'\x07\xde\x06\x11\x11 5\x03[`'
tRp1447
sg31
I69801213
sg32
g21
(g22
g23
VAttendee
tRp1448
(dp1449
g26
Nsg27
I00
sbsg35
g29
(S'\x07\xde\x06\x03\x07+\x04\nT\x88'
tRp1450
sg37
I2
sg38
S'samadm@rit.edu'
p1451
sa(dp1452
g3
Nsg4
I00
sg5
S'GHC 2014 Platinum Sponsor (available to ABI Partners Only)'
p1453
sg7
S'Alix'
p1454
sg9
S'Diversity Program Leader'
p1455
sg11
S'Hughes'
p1456
sg13
S'Amazon'
p1457
sg15
S'Confirmed'
p1458
sg17
S'charetts@amazon.com'
p1459
sg19
I214100
sg20
g21
(g22
g23
Vjohnsoja
tRp1460
(dp1461
g26
Nsg27
I00
sbsg28
g29
(S'\x07\xde\x06\x1a\x0e\x1d\x1f\x03\xeb\xe8'
tRp1462
sg31
I69804225
sg32
g21
(g22
g23
VAttendee
tRp1463
(dp1464
g26
Nsg27
I00
sbsg35
g29
(S'\x07\xde\x06\x03\x08(1\x0bq\xb0'
tRp1465
sg37
I2
sg38
S'alixh@amazon.com'
p1466
sa(dp1467
g3
Nsg4
I00
sg5
S'GHC 2014 Silver Industry Sponsor '
p1468
sg7
S'Sohrab'
p1469
sg9
S'University Talent Scout'
p1470
sg11
S'Madani'
p1471
sg13
S'Adobe'
p1472
sg15
S'Confirmed'
p1473
sg17
S''
sg19
I214102
sg20
g21
(g22
g23
Vjohnsoja
tRp1474
(dp1475
g26
Nsg27
I00
sbsg28
g29
(S'\x07\xde\x07\x19\x0e\x1f"\x0eW\xe0'
tRp1476
sg31
I69809384
sg32
g21
(g22
g23
VAttendee
tRp1477
(dp1478
g26
Nsg27
I00
sbsg35
g29
(S'\x07\xde\x06\x03\x0b\x07\x04\x0e\x15x'
tRp1479
sg37
I2
sg38
S'smadani@adobe.com'
p1480
sa(dp1481
g3
Nsg4
I00
sg5
S'GHC 2014 Silver Industry Sponsor '
p1482
sg7
S'Stacey'
p1483
sg9
S'Director, Human Resources'
p1484
sg11
S'Olive'
p1485
sg13
S'Time Inc.'
p1486
sg15
S'Confirmed'
p1487
sg17
S''
sg19
I214102
sg20
g21
(g22
g23
Vkathrynb1
tRp1488
(dp1489
g26
Nsg27
I00
sbsg28
g29
(S'\x07\xde\x08\x16\n\x0f0\x0es8'
tRp1490
sg31
I69813284
sg32
g21
(g22
g23
Vkathrynb1
tRp1491
(dp1492
g26
Nsg27
I00
sbsg35
g29
(S'\x07\xde\x06\x03\x0b\x19\x18\x04\xd6H'
tRp1493
sg37
I2
sg38
S'Stacey.Olive@timeinc.com'
p1494
sa(dp1495
g3
Nsg4
I00
sg5
S'GHC 2014 Gold  Academic, National Lab & NonProfit Sponsor'
p1496
sg7
S'Carol'
p1497
sg9
S'Senior Recruiter'
p1498
sg11
S'Hogsett'
p1499
sg13
S'Los Alamos National Laboratory'
p1500
sg15
S'Confirmed'
p1501
sg17
S''
sg19
I214104
sg20
g21
(g22
g23
Vjohnsoja
tRp1502
(dp1503
g26
Nsg27
I00
sbsg28
g29
(S'\x07\xde\x06\x0f\x13\x1c\x1d\x04\xc6\xa8'
tRp1504
sg31
I69866642
sg32
g21
(g22
g23
VAttendee
tRp1505
(dp1506
g26
Nsg27
I00
sbsg35
g29
(S'\x07\xde\x06\x04\x0c8\x14\x0bVX'
tRp1507
sg37
I2
sg38
S'carol@lanl.gov'
p1508
sa(dp1509
g3
Nsg4
I00
sg5
S'GHC 2014 Platinum Sponsor (available to ABI Partners Only)'
p1510
sg7
S'Trisha'
p1511
sg9
S'University Recruiting Manager'
p1512
sg11
S'Medina'
p1513
sg13
S'Rackspace'
p1514
sg15
S'Confirmed'
p1515
sg17
S''
sg19
I214100
sg20
g21
(g22
g23
Vjohnsoja
tRp1516
(dp1517
g26
Nsg27
I00
sbsg28
g29
(S'\x07\xde\x07\x02\x12\x089\nT\x88'
tRp1518
sg31
I69867442
sg32
g21
(g22
g23
VAttendee
tRp1519
(dp1520
g26
Nsg27
I00
sbsg35
g29
(S'\x07\xde\x06\x04\r\x1d\x12\x0c)H'
tRp1521
sg37
I2
sg38
S'trisha.medina@rackspace.com'
p1522
sa(dp1523
g3
Nsg4
I00
sg5
S'Additional Sponsorship Opportunities'
p1524
sg7
S'Danelle'
p1525
sg9
S'Sr. Manager, Talent Acquisition'
p1526
sg11
S'DiLibero'
p1527
sg13
S'RMS'
p1528
sg15
S'Confirmed'
p1529
sg17
S''
sg19
I214301
sg20
g21
(g22
g23
VSystem Process
tRp1530
(dp1531
g26
Nsg27
I00
sbsg28
g29
(S'\x07\xde\x06\x17\r\x0b*\x0b\x8d\x08'
tRp1532
sg31
I69869467
sg32
g21
(g22
g23
VAttendee
tRp1533
(dp1534
g26
Nsg27
I00
sbsg35
g29
(S'\x07\xde\x06\x04\r-+\n\x87P'
tRp1535
sg37
I2
sg38
S'danelle.dilibero@rms.com'
p1536
sa(dp1537
g3
Nsg4
I00
sg5
S'GHC 2014 Silver Industry Sponsor '
p1538
sg7
S'Linda'
p1539
sg9
S'Development Manager'
p1540
sg11
S'Cook'
p1541
sg13
S'Agile Alliance'
p1542
sg15
S'Confirmed'
p1543
sg17
S'operations@agilealliance.org'
p1544
sg19
I214102
sg20
g21
(g22
g23
Vkathrynb1
tRp1545
(dp1546
g26
Nsg27
I00
sbsg28
g29
(S'\x07\xde\x06\x11\x12&1\x05Kx'
tRp1547
sg31
I69873540
sg32
g21
(g22
g23
VAttendee
tRp1548
(dp1549
g26
Nsg27
I00
sbsg35
g29
(S'\x07\xde\x06\x04\x0f\t:\n{\x98'
tRp1550
sg37
I2
sg38
S'lcook@paypal.com'
p1551
sa(dp1552
g3
Nsg4
I01
sg5
S'GHC 2014 Bronze Industry Sponsor'
p1553
sg7
S'Chelsea'
p1554
sg9
S'Talent Attraction Coordinator'
p1555
sg11
S'Egan'
p1556
sg13
S'Vanguard'
p1557
sg15
S'Confirmed'
p1558
sg17
S''
sg19
I214103
sg20
g21
(g22
g23
Vkathrynb1
tRp1559
(dp1560
g26
Nsg27
I00
sbsg28
g29
(S'\x07\xde\x08\x14\x0f\x10\n\x03\xc4\xd8'
tRp1561
sg31
I69909505
sg32
g21
(g22
g23
VAttendee
tRp1562
(dp1563
g26
Nsg27
I00
sbsg35
g29
(S'\x07\xde\x06\x05\x0c4\x0b\n\x93\x08'
tRp1564
sg37
I2
sg38
S'chelsea_egan@vanguard.com'
p1565
sa(dp1566
g3
Nsg4
I00
sg5
S'GHC 2014 Gold  Academic, National Lab & NonProfit Sponsor'
p1567
sg7
S'Stephanie'
p1568
sg9
S'Administrative Aide'
p1569
sg11
S'Tracy'
p1570
sg13
S'New York University'
p1571
sg15
S'Confirmed'
p1572
sg17
S''
sg19
I214104
sg20
g21
(g22
g23
Vjohnsoja
tRp1573
(dp1574
g26
Nsg27
I00
sbsg28
g29
(S'\x07\xde\x06\x0f\x13)2\x06\\\xe8'
tRp1575
sg31
I69912493
sg32
g21
(g22
g23
VAttendee
tRp1576
(dp1577
g26
Nsg27
I00
sbsg35
g29
(S'\x07\xde\x06\x05\r6\x1a\x0e\xcd\x10'
tRp1578
sg37
I2
sg38
S'stephanie@cs.nyu.edu'
p1579
sa(dp1580
g3
Nsg4
I01
sg5
S'Additional Sponsorship Opportunities'
p1581
sg7
S'Amanda'
p1582
sg9
S'contact'
p1583
sg11
S'Hashimoto'
p1584
sg13
S'Avanade'
p1585
sg15
S'Confirmed'
p1586
sg17
S''
sg19
I214301
sg20
g21
(g22
g23
Vkathrynb1
tRp1587
(dp1588
g26
Nsg27
I00
sbsg28
g29
(S'\x07\xde\x08\x0b\r\x13\x1b\n\x87P'
tRp1589
sg31
I69914188
sg32
g21
(g22
g23
Vkathrynb1
tRp1590
(dp1591
g26
Nsg27
I00
sbsg35
g29
(S'\x07\xde\x06\x05\x0e\x1e1\x06MH'
tRp1592
sg37
I2
sg38
S'amanda.hashimoto@avanade.com'
p1593
sa(dp1594
g3
Nsg4
I00
sg5
S'GHC 2014 Silver Academic, National Lab & NonProfit Sponsor'
p1595
sg7
S'Aimee'
p1596
sg9
S'EEO Specialist'
p1597
sg11
S'Generoso-Nguyen'
p1598
sg13
S'National Institute of Standards and Technology NIST'
p1599
sg15
S'Confirmed'
p1600
sg17
S''
sg19
I214105
sg20
g21
(g22
g23
Vjohnsoja
tRp1601
(dp1602
g26
Nsg27
I00
sbsg28
g29
(S'\x07\xde\x08\x03\r\x02,\x0cg\xc8'
tRp1603
sg31
I69915172
sg32
g21
(g22
g23
Vkathrynb1
tRp1604
(dp1605
g26
Nsg27
I00
sbsg35
g29
(S'\x07\xde\x06\x05\x0e7\x18\x03@\x08'
tRp1606
sg37
I2
sg38
S'aimee.generoso-nguyen@nist.gov'
p1607
sa(dp1608
g3
Nsg4
I00
sg5
S'GHC 2014 Silver Academic, National Lab & NonProfit Sponsor'
p1609
sg7
S'Shabana'
p1610
sg9
S'Enrollment Manager'
p1611
sg11
S'Reza'
p1612
sg13
S'University of Pittsburgh iSchool'
p1613
sg15
S'Confirmed'
p1614
sg17
S''
sg19
I214105
sg20
g21
(g22
g23
Vjohnsoja
tRp1615
(dp1616
g26
Nsg27
I00
sbsg28
g29
(S'\x07\xde\x08\x03\x0c:6\x05\xb1\x08'
tRp1617
sg31
I69939906
sg32
g21
(g22
g23
VAttendee
tRp1618
(dp1619
g26
Nsg27
I00
sbsg35
g29
(S'\x07\xde\x06\x06\t\x129\x06\xab\x08'
tRp1620
sg37
I2
sg38
S'sreza@sis.pitt.edu'
p1621
sa(dp1622
g3
Nsg4
I00
sg5
S'GHC 2014 Silver Academic, National Lab & NonProfit Sponsor'
p1623
sg7
S'Adrienne'
p1624
sg9
S'Director of Undergraduate Affairs'
p1625
sg11
S'Harrell'
p1626
sg13
S'University of California Santa Cruz Baskin Engineering'
p1627
sg15
S'Confirmed'
p1628
sg17
S'charlie@cs.ucsc.edu'
p1629
sg19
I214105
sg20
g21
(g22
g23
Vjohnsoja
tRp1630
(dp1631
g26
Nsg27
I00
sbsg28
g29
(S'\x07\xde\x08\x03\r\x08\x00\x0c\xf8P'
tRp1632
sg31
I69957123
sg32
g21
(g22
g23
VAttendee
tRp1633
(dp1634
g26
Nsg27
I00
sbsg35
g29
(S'\x07\xde\x06\x06\x10\r\r\x01\x1d('
tRp1635
sg37
I2
sg38
S'adrienne@soe.ucsc.edu'
p1636
sa(dp1637
g3
Nsg4
I00
sg5
S'GHC 2014 Gold  Academic, National Lab & NonProfit Sponsor'
p1638
sg7
S'Susanne'
p1639
sg9
S'Admin'
p1640
sg11
S'Brownlee'
p1641
sg13
S'Cal Poly State University'
p1642
sg15
S'Confirmed'
p1643
sg17
S''
sg19
I214104
sg20
g21
(g22
g23
Vkathrynb1
tRp1644
(dp1645
g26
Nsg27
I00
sbsg28
g29
(S'\x07\xde\x06\x17\x0e2\r\x018\x80'
tRp1646
sg31
I69958981
sg32
g21
(g22
g23
VAttendee
tRp1647
(dp1648
g26
Nsg27
I00
sbsg35
g29
(S'\x07\xde\x06\x06\x11\x1a7\x06A\x90'
tRp1649
sg37
I2
sg38
S'sabrownl@calpoly.edu'
p1650
sa(dp1651
g3
Nsg4
I01
sg5
S'GHC 2014 Platinum Sponsor (available to ABI Partners Only)'
p1652
sg7
S'Talia'
p1653
sg9
S'Director, Strategic Programs'
p1654
sg11
S'Reyes-Ortiz'
p1655
sg13
S'NetApp'
p1656
sg15
S'Confirmed'
p1657
sg17
S'Dawn.carter@netapp.com; Sara.west@netapp.com'
p1658
sg19
I214100
sg20
g21
(g22
g23
Vkathrynb1
tRp1659
(dp1660
g26
Nsg27
I00
sbsg28
g29
(S'\x07\xde\x08\x01\n3:\x07\xe3\x88'
tRp1661
sg31
I70033932
sg32
g21
(g22
g23
Vkathrynb1
tRp1662
(dp1663
g26
Nsg27
I00
sbsg35
g29
(S'\x07\xde\x06\t\x14\x08\x07\r\x1f`'
tRp1664
sg37
I2
sg38
S'Talia.Reyes-Ortiz@netapp.com'
p1665
sa(dp1666
g3
Nsg4
I00
sg5
S'GHC 2014 Silver Industry Sponsor '
p1667
sg7
S'Rachel'
p1668
sg9
S'Campus Recruiter'
p1669
sg11
S'Broitman'
p1670
sg13
S'Credit Suisse'
p1671
sg15
S'Confirmed'
p1672
sg17
S''
sg19
I214102
sg20
g21
(g22
g23
VSystem Process
tRp1673
(dp1674
g26
Nsg27
I00
sbsg28
g29
(S'\x07\xde\x07\x1f\r\x15)\tj('
tRp1675
sg31
I70055150
sg32
g21
(g22
g23
VAttendee
tRp1676
(dp1677
g26
Nsg27
I00
sbsg35
g29
(S'\x07\xde\x06\n\t11\x08I\x18'
tRp1678
sg37
I2
sg38
S'rachel.broitman@credit-suisse.com'
p1679
sa(dp1680
g3
Nsg4
I00
sg5
S'GHC 2014 Bronze Industry Sponsor'
p1681
sg7
S'Kelsey'
p1682
sg9
S'Global Diversity & Inclusion Specialist'
p1683
sg11
S'Wesley'
p1684
sg13
S'Electronic Arts'
p1685
sg15
S'Confirmed'
p1686
sg17
S'achambers@ea.com'
p1687
sg19
I214103
sg20
g21
(g22
g23
Vkathrynb1
tRp1688
(dp1689
g26
Nsg27
I00
sbsg28
g29
(S"\x07\xde\x08\x0f\r+'\x03v\xb8"
tRp1690
sg31
I70072277
sg32
g21
(g22
g23
VAttendee
tRp1691
(dp1692
g26
Nsg27
I00
sbsg35
g29
(S'\x07\xde\x06\n\x0f-0\x08dp'
tRp1693
sg37
I2
sg38
S'kwesley@ea.com'
p1694
sa(dp1695
g3
Nsg4
I00
sg5
S'GHC 2014 Bronze Industry Sponsor'
p1696
sg7
S'Wendy'
p1697
sg9
S'Sr Manager, Marketing Programs'
p1698
sg11
S'Laugesen'
p1699
sg13
S'MarkLogic '
p1700
sg15
S'Confirmed'
p1701
sg17
S'michelle.ashufta@marklogic.com'
p1702
sg19
I214103
sg20
g21
(g22
g23
VSystem Process
tRp1703
(dp1704
g26
Nsg27
I00
sbsg28
g29
(S'\x07\xde\x08\x03\r\x01\x18\x02\x8cX'
tRp1705
sg31
I70096897
sg32
g21
(g22
g23
VAttendee
tRp1706
(dp1707
g26
Nsg27
I00
sbsg35
g29
(S'\x07\xde\x06\x0b\t\x12\x13\x04\x1e\xb0'
tRp1708
sg37
I2
sg38
S'wendy.laugesen@marklogic.com'
p1709
sa(dp1710
g3
Nsg4
I00
sg5
S'GHC 2014 Bronze Academic, National Lab & NonProfit Sponsor'
p1711
sg7
S'Jane'
p1712
sg9
S'Dept Manager, Computer Science'
p1713
sg11
S'McIlmail'
p1714
sg13
S'Brown University'
p1715
sg15
S'Confirmed'
p1716
sg17
S'Layla_Oesper@brown.edu'
p1717
sg19
I214106
sg20
g21
(g22
g23
VSystem Process
tRp1718
(dp1719
g26
Nsg27
I00
sbsg28
g29
(S'\x07\xde\x06\x11\x11:\x06\x065\xd8'
tRp1720
sg31
I70098682
sg32
g21
(g22
g23
VAttendee
tRp1721
(dp1722
g26
Nsg27
I00
sbsg35
g29
(S'\x07\xde\x06\x0b\t6/\x050 '
tRp1723
sg37
I2
sg38
S'Jane_McIlmail@brown.edu'
p1724
sa(dp1725
g3
Nsg4
I00
sg5
S'GHC 2014 Silver Industry Sponsor '
p1726
sg7
S'Margaret'
p1727
sg9
S'-'
sg11
S'Parsons'
p1728
sg13
S'National Security Agency'
p1729
sg15
S'Confirmed'
p1730
sg17
S''
sg19
I214102
sg20
g21
(g22
g23
Vkathrynb1
tRp1731
(dp1732
g26
Nsg27
I00
sbsg28
g29
(S'\x07\xde\x07\x18\n5!\x0b\x8d\x08'
tRp1733
sg31
I70119162
sg32
g21
(g22
g23
Vkathrynb1
tRp1734
(dp1735
g26
Nsg27
I00
sbsg35
g29
(S'\x07\xde\x06\x0b\x12\x13:\n90'
tRp1736
sg37
I2
sg38
S'maparso@radium.ncsc.mil'
p1737
sa(dp1738
g3
Nsg4
I00
sg5
S'GHC 2014 Silver Academic, National Lab & NonProfit Sponsor'
p1739
sg7
S'Rosina'
p1740
sg9
S'Public Relations and Marketing Manager'
p1741
sg11
S'Geiger'
p1742
sg13
S'Hasso Plattner Institute'
p1743
sg15
S'Confirmed'
p1744
sg17
S'anja.perlich@hpi.uni-potsdam.de'
p1745
sg19
I214105
sg20
g21
(g22
g23
Vkathrynb1
tRp1746
(dp1747
g26
Nsg27
I00
sbsg28
g29
(S'\x07\xde\x06\x14\x0e,9\x0b\xe6\xe0'
tRp1748
sg31
I70126626
sg32
g21
(g22
g23
VAttendee
tRp1749
(dp1750
g26
Nsg27
I00
sbsg35
g29
(S'\x07\xde\x06\x0c\x02\x013\x0b\xe6\xe0'
tRp1751
sg37
I2
sg38
S'rosina.geiger@hpi.uni-potsdam.de'
p1752
sa(dp1753
g3
Nsg4
I00
sg5
S'GHC 2014 Silver Academic, National Lab & NonProfit Sponsor'
p1754
sg7
S'Meg'
p1755
sg9
S'Director of Admissions and Student Affairs'
p1756
sg11
S'St. John'
p1757
sg13
S'Univesrity of California Berkeley '
p1758
sg15
S'Confirmed'
p1759
sg17
S'ascott@ischool.berkeley.edu'
p1760
sg19
I214105
sg20
g21
(g22
g23
VSystem Process
tRp1761
(dp1762
g26
Nsg27
I00
sbsg28
g29
(S'\x07\xde\x08\x03\r\x07\x17\x03\xb58'
tRp1763
sg31
I70146136
sg32
g21
(g22
g23
VAttendee
tRp1764
(dp1765
g26
Nsg27
I00
sbsg35
g29
(S'\x07\xde\x06\x0c\x0c\x188\x00N '
tRp1766
sg37
I2
sg38
S'Meg@ischool.berkeley.edu'
p1767
sa(dp1768
g3
Nsg4
I00
sg5
S'Enterprise Packages, Partners Only'
p1769
sg7
S'Christine'
p1770
sg9
S'-'
sg11
S'Johnson'
p1771
sg13
S'SAP'
p1772
sg15
S'Confirmed'
p1773
sg17
S''
sg19
I218908
sg20
g21
(g22
g23
Vjohnsoja
tRp1774
(dp1775
g26
Nsg27
I00
sbsg28
g29
(S'\x07\xde\x07\x02\x11+\t\x08\x8b\x80'
tRp1776
sg31
I70147346
sg32
g21
(g22
g23
Vkathrynb1
tRp1777
(dp1778
g26
Nsg27
I00
sbsg35
g29
(S'\x07\xde\x06\x0c\x0c :\x01\xfb\xd0'
tRp1779
sg37
I2
sg38
S'christine.johnson@sap.com'
p1780
sa(dp1781
g3
Nsg4
I00
sg5
S'GHC 2014 Silver Industry Sponsor '
p1782
sg7
S'Debbie'
p1783
sg9
S'Strategy and Operations Manager'
p1784
sg11
S'Wickham'
p1785
sg13
S'Xerox'
p1786
sg15
S'Confirmed'
p1787
sg17
S''
sg19
I214102
sg20
g21
(g22
g23
Vjohnsoja
tRp1788
(dp1789
g26
Nsg27
I00
sbsg28
g29
(S'\x07\xde\x07\x02\x11,5\x0c\x8e\xd8'
tRp1790
sg31
I70148721
sg32
g21
(g22
g23
Vkathrynb1
tRp1791
(dp1792
g26
Nsg27
I00
sbsg35
g29
(S'\x07\xde\x06\x0c\x0c5;\t\xcf\xb8'
tRp1793
sg37
I2
sg38
S'Debbie.Wickham@xerox.com'
p1794
sa(dp1795
g3
Nsg4
I00
sg5
S'GHC 2014 Silver Academic, National Lab & NonProfit Sponsor'
p1796
sg7
S'Karen'
p1797
sg9
S'Administrative Assistant'
p1798
sg11
S'Kenny'
p1799
sg13
S'Indiana University School of  Informatics and Computing'
p1800
sg15
S'Confirmed'
p1801
sg17
S'kkeag@indiana.edu'
p1802
sg19
I214105
sg20
g21
(g22
g23
Vjohnsoja
tRp1803
(dp1804
g26
Nsg27
I00
sbsg28
g29
(S'\x07\xde\x08\x03\x0c;\x18\x01\x1d('
tRp1805
sg31
I70151862
sg32
g21
(g22
g23
VAttendee
tRp1806
(dp1807
g26
Nsg27
I00
sbsg35
g29
(S'\x07\xde\x06\x0c\x0e\x18\x1a\x0b/H'
tRp1808
sg37
I2
sg38
S'kkenny@indiana.edu'
p1809
sa(dp1810
g3
Nsg4
I00
sg5
S'GHC 2014 Bronze Industry Sponsor'
p1811
sg7
S'JoNelle'
p1812
sg9
S'Global Staffing Director'
p1813
sg11
S'Sood'
p1814
sg13
S'Xilinx'
p1815
sg15
S'Confirmed'
p1816
sg17
S'elisn@xilinx.com'
p1817
sg19
I214103
sg20
g21
(g22
g23
VSystem Process
tRp1818
(dp1819
g26
Nsg27
I00
sbsg28
g29
(S'\x07\xde\x08\x03\r\x0b\x07\x04\xaf8'
tRp1820
sg31
I70159256
sg32
g21
(g22
g23
VAttendee
tRp1821
(dp1822
g26
Nsg27
I00
sbsg35
g29
(S'\x07\xde\x06\x0c\x117\x14\x04\xe2\x00'
tRp1823
sg37
I2
sg38
S'jonelle@xilinx.com'
p1824
sa(dp1825
g3
Nsg4
I00
sg5
S'GHC 2014 Bronze Academic, National Lab & NonProfit Sponsor'
p1826
sg7
S'Sally'
p1827
sg9
S'Administrative Coordinator'
p1828
sg11
S'Pettyjohn'
p1829
sg13
S'University of North Texas'
p1830
sg15
S'Confirmed'
p1831
sg17
S'barrett.bryant@unt.edu'
p1832
sg19
I214106
sg20
g21
(g22
g23
VSystem Process
tRp1833
(dp1834
g26
Nsg27
I00
sbsg28
g29
(S'\x07\xde\x08\x0f\r*:\x04\x1e\xb0'
tRp1835
sg31
I70240810
sg32
g21
(g22
g23
VAttendee
tRp1836
(dp1837
g26
Nsg27
I00
sbsg35
g29
(S'\x07\xde\x06\x10\x07\x1c \x02eH'
tRp1838
sg37
I2
sg38
S'sally.pettyjohn@unt.edu'
p1839
sa(dp1840
g3
Nsg4
I00
sg5
S'GHC 2014 Platinum Sponsor (available to ABI Partners Only)'
p1841
sg7
S'Mischa'
p1842
sg9
S'Program Manager'
p1843
sg11
S'White'
p1844
sg13
S'Intuit'
p1845
sg15
S'Confirmed'
p1846
sg17
S''
sg19
I214100
sg20
g21
(g22
g23
Vkathrynb1
tRp1847
(dp1848
g26
Nsg27
I00
sbsg28
g29
(S'\x07\xde\x08\x0f\x11\x1c\x01\x03[`'
tRp1849
sg31
I70251750
sg32
g21
(g22
g23
Vkathrynb1
tRp1850
(dp1851
g26
Nsg27
I00
sbsg35
g29
(S'\x07\xde\x06\x10\x0b\x10\x12\x02"\xe0'
tRp1852
sg37
I2
sg38
S'Mischa_White@intuit.com'
p1853
sa(dp1854
g3
Nsg4
I00
sg5
S'GHC 2014 Bronze Academic, National Lab & NonProfit Sponsor'
p1855
sg7
S'Philip'
p1856
sg9
S'Admissions and Student Affairs Assistant'
p1857
sg11
S'Nardone'
p1858
sg13
S'University of Michigan School of Information'
p1859
sg15
S'Confirmed'
p1860
sg17
S'alissat@umich.edu'
p1861
sg19
I214106
sg20
g21
(g22
g23
VSystem Process
tRp1862
(dp1863
g26
Nsg27
I00
sbsg28
g29
(S'\x07\xde\x08\x03\r\x08\x19\x0c5\x00'
tRp1864
sg31
I70281747
sg32
g21
(g22
g23
VAttendee
tRp1865
(dp1866
g26
Nsg27
I00
sbsg35
g29
(S'\x07\xde\x06\x11\x06\x1f\x1c\x01\xc9\x08'
tRp1867
sg37
I2
sg38
S'umsi.admissions@umich.edu'
p1868
sa(dp1869
g3
Nsg4
I00
sg5
S'GHC 2014 Silver Academic, National Lab & NonProfit Sponsor'
p1870
sg7
S'Jennifer'
p1871
sg9
S'Research Engineer II'
p1872
sg11
S'Palmer'
p1873
sg13
S'Georgia Tech Research Institute'
p1874
sg15
S'Confirmed'
p1875
sg17
S'Shatanese.Reese@gtri.gatech.edu'
p1876
sg19
I214105
sg20
g21
(g22
g23
Vkathrynb1
tRp1877
(dp1878
g26
Nsg27
I00
sbsg28
g29
(S'\x07\xde\x06\x11\x134!\x08p('
tRp1879
sg31
I70285007
sg32
g21
(g22
g23
VAttendee
tRp1880
(dp1881
g26
Nsg27
I00
sbsg35
g29
(S'\x07\xde\x06\x11\x08 0\x05\xcc`'
tRp1882
sg37
I2
sg38
S'Jennifer.Palmer@gtri.gatech.edu'
p1883
sa(dp1884
g3
Nsg4
I00
sg5
S'GHC 2014 Bronze Academic, National Lab & NonProfit Sponsor'
p1885
sg7
S'Samantha'
p1886
sg9
S'Accountant'
p1887
sg11
S'Dubert'
p1888
sg13
S'Iowa State University'
p1889
sg15
S'Confirmed'
p1890
sg17
S'skharris@iastate.edu'
p1891
sg19
I214106
sg20
g21
(g22
g23
VSystem Process
tRp1892
(dp1893
g26
Nsg27
I00
sbsg28
g29
(S'\x07\xde\x08\x07\x0e\x08%\x0e\xd8\xc8'
tRp1894
sg31
I70288781
sg32
g21
(g22
g23
VAttendee
tRp1895
(dp1896
g26
Nsg27
I00
sbsg35
g29
(S'\x07\xde\x06\x11\t\x13\t\x04\x12\xf8'
tRp1897
sg37
I2
sg38
S'smdubert@iastate.edu'
p1898
sa(dp1899
g3
Nsg4
I00
sg5
S'GHC 2014 Silver Academic, National Lab & NonProfit Sponsor'
p1900
sg7
S'Thomas'
p1901
sg9
S'Professor and Chair'
p1902
sg11
S'Cormen'
p1903
sg13
S'Dartmouth College'
p1904
sg15
S'Confirmed'
p1905
sg17
S'joseph.elsener@dartmouth.edu'
p1906
sg19
I214105
sg20
g21
(g22
g23
Vkathrynb1
tRp1907
(dp1908
g26
Nsg27
I00
sbsg28
g29
(S'\x07\xde\x06\x11\r)\x1c\x00\x9c@'
tRp1909
sg31
I70293127
sg32
g21
(g22
g23
VAttendee
tRp1910
(dp1911
g26
Nsg27
I00
sbsg35
g29
(S'\x07\xde\x06\x11\n)6\x0b\x8d\x08'
tRp1912
sg37
I2
sg38
S'thc@cs.dartmouth.edu'
p1913
sa(dp1914
g3
Nsg4
I00
sg5
S'GHC 2014 Silver Industry Sponsor '
p1915
sg7
S'Nadia'
p1916
sg9
S'Recruiter'
p1917
sg11
S'Singer'
p1918
sg13
S'Quora'
p1919
sg15
S'Confirmed'
p1920
sg17
S''
sg19
I214102
sg20
g21
(g22
g23
Vkathrynb1
tRp1921
(dp1922
g26
Nsg27
I00
sbsg28
g29
(S'\x07\xde\x06\x14\n5\x1a\x06\x1a\x80'
tRp1923
sg31
I70305195
sg32
g21
(g22
g23
VAttendee
tRp1924
(dp1925
g26
Nsg27
I00
sbsg35
g29
(S'\x07\xde\x06\x11\x0f*9\x06tX'
tRp1926
sg37
I2
sg38
S'nadia@quora.com'
p1927
sa(dp1928
g3
Nsg4
I00
sg5
S'GHC 2014 Silver Academic, National Lab & NonProfit Sponsor'
p1929
sg7
S'Eric'
p1930
sg9
S'Director of Membership'
p1931
sg11
S'Berkowitz'
p1932
sg13
S'IEEE Computer Society'
p1933
sg15
S'Confirmed'
p1934
sg17
S'chuffman@computer.org'
p1935
sg19
I214105
sg20
g21
(g22
g23
Vkathrynb1
tRp1936
(dp1937
g26
Nsg27
I00
sbsg28
g29
(S'\x07\xde\x07\x1d\x10\n\x0e\x03\xc4\xd8'
tRp1938
sg31
I70328364
sg32
g21
(g22
g23
VAttendee
tRp1939
(dp1940
g26
Nsg27
I00
sbsg35
g29
(S'\x07\xde\x06\x12\x078*\x08\x7f\xc8'
tRp1941
sg37
I2
sg38
S'e.berkowitz@computer.org'
p1942
sa(dp1943
g3
Nsg4
I00
sg5
S'GHC 2014 Bronze Academic, National Lab & NonProfit Sponsor'
p1944
sg7
S'Jiayi'
p1945
sg9
S'Ph.D candidate'
p1946
sg11
S'Dou'
p1947
sg13
S'Rosetta Commons'
p1948
sg15
S'Confirmed'
p1949
sg17
S'jgray@jhu.edu'
p1950
sg19
I214106
sg20
g21
(g22
g23
VSystem Process
tRp1951
(dp1952
g26
Nsg27
I00
sbsg28
g29
(S'\x07\xde\x06\x17\x15\x18\x15\x02eH'
tRp1953
sg31
I70336199
sg32
g21
(g22
g23
VAttendee
tRp1954
(dp1955
g26
Nsg27
I00
sbsg35
g29
(S'\x07\xde\x06\x12\n),\x034P'
tRp1956
sg37
I2
sg38
S'doujy@uw.edu'
p1957
sa(dp1958
g3
Nsg4
I00
sg5
S'GHC 2014 Silver Industry Sponsor '
p1959
sg7
S'Yvette'
p1960
sg9
S'VP'
p1961
sg11
S'Wright'
p1962
sg13
S'BNY Mellon'
p1963
sg15
S'Confirmed'
p1964
sg17
S'lmayer@pershing.com'
p1965
sg19
I214102
sg20
g21
(g22
g23
Vkathrynb1
tRp1966
(dp1967
g26
Nsg27
I00
sbsg28
g29
(S'\x07\xde\x06\x19\x108\x1c\n\x1d\xd8'
tRp1968
sg31
I70356833
sg32
g21
(g22
g23
VAttendee
tRp1969
(dp1970
g26
Nsg27
I00
sbsg35
g29
(S'\x07\xde\x06\x12\x14/\x01\x04E\xc0'
tRp1971
sg37
I2
sg38
S'yvette.wright@bnymellon.com'
p1972
sa(dp1973
g3
Nsg4
I00
sg5
S'GHC 2014 Silver Academic, National Lab & NonProfit Sponsor'
p1974
sg7
S'Laura'
p1975
sg9
S'Professor'
p1976
sg11
S'Dillon'
p1977
sg13
S'Michigan State University'
p1978
sg15
S'Confirmed'
p1979
sg17
S'colbryka@egr.msu.edu'
p1980
sg19
I214105
sg20
g21
(g22
g23
VSystem Process
tRp1981
(dp1982
g26
Nsg27
I00
sbsg28
g29
(S'\x07\xde\x06\x17\x1079\x07\xc80'
tRp1983
sg31
I70385644
sg32
g21
(g22
g23
VAttendee
tRp1984
(dp1985
g26
Nsg27
I00
sbsg35
g29
(S'\x07\xde\x06\x13\r/6\x0c\xb5\xe8'
tRp1986
sg37
I2
sg38
S'ldillon@cse.msu.edu'
p1987
sa(dp1988
g3
Nsg4
I00
sg5
S'Additional Sponsorship Opportunities'
p1989
sg7
S'Lilis'
p1990
sg9
S'Meetings and Events Manager'
p1991
sg11
S'Bumgardner'
p1992
sg13
S'Anita Borg Institute'
p1993
sg15
S'Confirmed'
p1994
sg17
S''
sg19
I214301
sg20
g21
(g22
g23
Vkathrynb1
tRp1995
(dp1996
g26
Nsg27
I00
sbsg28
g29
(S'\x07\xde\x07\x1f\x11\x0b9\x07\xef@'
tRp1997
sg31
I70422906
sg32
g21
(g22
g23
Vkathrynb1
tRp1998
(dp1999
g26
Nsg27
I00
sbsg35
g29
(S'\x07\xde\x06\x14\x0b\x1b\x10\x0e\t\xc0'
tRp2000
sg37
I2
sg38
S'lilisb@anitaborg.org'
p2001
sa(dp2002
g3
Nsg4
I00
sg5
S'GHC 2014 Gold Industry Sponsor'
p2003
sg7
S'Megan'
p2004
sg9
S'Recruiting Programs Specialist'
p2005
sg11
S'Carlisle'
p2006
sg13
S'Twitter'
p2007
sg15
S'Confirmed'
p2008
sg17
S'kshalk@twitter.com'
p2009
sg19
I214101
sg20
g21
(g22
g23
Vkathrynb1
tRp2010
(dp2011
g26
Nsg27
I00
sbsg28
g29
(S'\x07\xde\x06\x19\x111\x03\x07\xc80'
tRp2012
sg31
I70427038
sg32
g21
(g22
g23
VAttendee
tRp2013
(dp2014
g26
Nsg27
I00
sbsg35
g29
(S"\x07\xde\x06\x14\r\x15'\x04\x1e\xb0"
tRp2015
sg37
I2
sg38
S'megancarlisle@twitter.com'
p2016
sa(dp2017
g3
Nsg4
I00
sg5
S'GHC 2014 Bronze Industry Sponsor'
p2018
sg7
S'Jeunee'
p2019
sg9
S'Technical Sourcer'
p2020
sg11
S'Simon'
p2021
sg13
S'Lookout'
p2022
sg15
S'Confirmed'
p2023
sg17
S''
sg19
I214103
sg20
g21
(g22
g23
Vkathrynb1
tRp2024
(dp2025
g26
Nsg27
I00
sbsg28
g29
(S'\x07\xde\x06\x17\x103\x17\x0c\xaa0'
tRp2026
sg31
I70438112
sg32
g21
(g22
g23
VAttendee
tRp2027
(dp2028
g26
Nsg27
I00
sbsg35
g29
(S'\x07\xde\x06\x14\x13\x10\x15\x0bJ\xa0'
tRp2029
sg37
I2
sg38
S'jeunee.simon@lookout.com'
p2030
sa(dp2031
g3
Nsg4
I00
sg5
S'GHC 2014 Silver Industry Sponsor '
p2032
sg7
S'Jamie'
p2033
sg9
S'Senior Employment Branding Specialist'
p2034
sg11
S'Williams'
p2035
sg13
S'Red Hat'
p2036
sg15
S'Confirmed'
p2037
sg17
S'lmurray@redhat.com'
p2038
sg19
I214102
sg20
g21
(g22
g23
Vjohnsoja
tRp2039
(dp2040
g26
Nsg27
I00
sbsg28
g29
(S"\x07\xde\x07\x02\x12\x01'\x03@\x08"
tRp2041
sg31
I70502893
sg32
g21
(g22
g23
VAttendee
tRp2042
(dp2043
g26
Nsg27
I00
sbsg35
g29
(S'\x07\xde\x06\x17\x0b\x19\x03\x0e0\xd0'
tRp2044
sg37
I2
sg38
S'jamwilli@redhat.com'
p2045
sa(dp2046
g3
Nsg4
I00
sg5
S'GHC 2014 Bronze Industry Sponsor'
p2047
sg7
S'Nicolle'
p2048
sg9
S'Campus Recruiter'
p2049
sg11
S'Bugajski'
p2050
sg13
S'Deutsche Bank'
p2051
sg15
S'Confirmed'
p2052
sg17
S''
sg19
I214103
sg20
g21
(g22
g23
VSystem Process
tRp2053
(dp2054
g26
Nsg27
I00
sbsg28
g29
(S'\x07\xde\x06\x19\x0c#\x1a\x0b\x17\xd8'
tRp2055
sg31
I70511902
sg32
g21
(g22
g23
VAttendee
tRp2056
(dp2057
g26
Nsg27
I00
sbsg35
g29
(S'\x07\xde\x06\x17\x0e+\x04\x0c\xc5\x88'
tRp2058
sg37
I2
sg38
S'nicolle.bugajski@db.com'
p2059
sa(dp2060
g3
Nsg4
I00
sg5
S'GHC 2014 Bronze Industry Sponsor'
p2061
sg7
S'Ben'
p2062
sg9
S'CEO'
p2063
sg11
S'Congleton'
p2064
sg13
S'Olark'
p2065
sg15
S'Confirmed'
p2066
sg17
S'lindsay@olark.com'
p2067
sg19
I214103
sg20
g21
(g22
g23
Vkathrynb1
tRp2068
(dp2069
g26
Nsg27
I00
sbsg28
g29
(S'\x07\xde\x08\x04\x12\x15\x07\x08\xcd\xe8'
tRp2070
sg31
I70559863
sg32
g21
(g22
g23
Vkathrynb1
tRp2071
(dp2072
g26
Nsg27
I00
sbsg35
g29
(S'\x07\xde\x06\x18\x10,3\x0e\xe8h'
tRp2073
sg37
I2
sg38
S'ben@olark.com'
p2074
sa(dp2075
g3
Nsg4
I00
sg5
S'GHC 2014 Silver Industry Sponsor '
p2076
sg7
S'Lynne'
p2077
sg9
S'Sr. Software Staff'
p2078
sg11
S'Miller'
p2079
sg13
S'Raytheon'
p2080
sg15
S'Confirmed'
p2081
sg17
S''
sg19
I214102
sg20
g21
(g22
g23
Vjohnsoja
tRp2082
(dp2083
g26
Nsg27
I00
sbsg28
g29
(S'\x07\xde\x07\x02\x12\x18$\x06\xe9\x88'
tRp2084
sg31
I70560290
sg32
g21
(g22
g23
Vkathrynb1
tRp2085
(dp2086
g26
Nsg27
I00
sbsg35
g29
(S'\x07\xde\x06\x18\x11\x010\x0c5\x00'
tRp2087
sg37
I2
sg38
S'lynne_miller@raytheon.com'
p2088
sa(dp2089
g3
Nsg4
I00
sg5
S'GHC 2014 Silver Academic, National Lab & NonProfit Sponsor'
p2090
sg7
S'Alexandra M. '
p2091
sg9
S'Administrative Assistant'
p2092
sg11
S'Calcado'
p2093
sg13
S'Princeton University'
p2094
sg15
S'Confirmed'
p2095
sg17
S''
sg19
I214105
sg20
g21
(g22
g23
VSystem Process
tRp2096
(dp2097
g26
Nsg27
I00
sbsg28
g29
(S'\x07\xde\x07\x01\x0e\x04\x0c\x02\xdax'
tRp2098
sg31
I70615968
sg32
g21
(g22
g23
VAttendee
tRp2099
(dp2100
g26
Nsg27
I00
sbsg35
g29
(S'\x07\xde\x06\x1a\x08%\x10\t\xdfX'
tRp2101
sg37
I2
sg38
S'acalcado@princeton.edu'
p2102
sa(dp2103
g3
Nsg4
I00
sg5
S'GHC 2014 Silver Academic, National Lab & NonProfit Sponsor'
p2104
sg7
S'Janell'
p2105
sg9
S'Dr.'
p2106
sg11
S'Straach'
p2107
sg13
S'University of Texas  Dallas'
p2108
sg15
S'Confirmed'
p2109
sg17
S''
sg19
I214105
sg20
g21
(g22
g23
VSystem Process
tRp2110
(dp2111
g26
Nsg27
I00
sbsg28
g29
(S'\x07\xde\x08\x03\r\n\x1c\ra\xc8'
tRp2112
sg31
I70621246
sg32
g21
(g22
g23
VAttendee
tRp2113
(dp2114
g26
Nsg27
I00
sbsg35
g29
(S'\x07\xde\x06\x1a\n$\x15\x06h\xa0'
tRp2115
sg37
I2
sg38
S'jstraach@utdallas.edu'
p2116
sa(dp2117
g3
Nsg4
I00
sg5
S'GHC 2014 Silver Industry Sponsor '
p2118
sg7
S'Alexis'
p2119
sg9
S'Recruiting Coordinator'
p2120
sg11
S'Marriott'
p2121
sg13
S'J.P. Morgan'
p2122
sg15
S'Confirmed'
p2123
sg17
S'shannon.tracy@jpmorgan.com'
p2124
sg19
I214102
sg20
g21
(g22
g23
Vkathrynb1
tRp2125
(dp2126
g26
Nsg27
I00
sbsg28
g29
(S"\x07\xde\x07\x07\x0e%'\x08\xa6\xd8"
tRp2127
sg31
I70629022
sg32
g21
(g22
g23
VAttendee
tRp2128
(dp2129
g26
Nsg27
I00
sbsg35
g29
(S'\x07\xde\x06\x1a\x0e\x03\x10\x03@\x08'
tRp2130
sg37
I2
sg38
S'alexis.a.marriott@jpmchase.com'
p2131
sa(dp2132
g3
Nsg4
I00
sg5
S'GHC 2014 Silver Academic, National Lab & NonProfit Sponsor'
p2133
sg7
S'Diana'
p2134
sg9
S'Ms.'
p2135
sg11
S'Kim'
p2136
sg13
S'Columbia University'
p2137
sg15
S'Confirmed'
p2138
sg17
S'tms26@columbia.edu'
p2139
sg19
I214105
sg20
g21
(g22
g23
Vkathrynb1
tRp2140
(dp2141
g26
Nsg27
I00
sbsg28
g29
(S'\x07\xde\x07\n\n\x1d0\x06\x8f\xb0'
tRp2142
sg31
I70733170
sg32
g21
(g22
g23
VAttendee
tRp2143
(dp2144
g26
Nsg27
I00
sbsg35
g29
(S'\x07\xde\x06\x1e\x0b\x0e\t\x04\xe2\x00'
tRp2145
sg37
I2
sg38
S'dk2629@columbia.edu'
p2146
sa(dp2147
g3
Nsg4
I00
sg5
S'GHC 2014 Bronze Industry Sponsor'
p2148
sg7
S'Amanda'
p2149
sg9
S'Sr Consultant, Diversity & Inclusion'
p2150
sg11
S'Hashimoto'
p2151
sg13
S'Avanade'
p2152
sg15
S'Confirmed'
p2153
sg17
S''
sg19
I214103
sg20
g21
(g22
g23
Vkathrynb1
tRp2154
(dp2155
g26
Nsg27
I00
sbsg28
g29
(S'\x07\xde\x07\x15\x1718\x08I\x18'
tRp2156
sg31
I70749041
sg32
g21
(g22
g23
VAttendee
tRp2157
(dp2158
g26
Nsg27
I00
sbsg35
g29
(S'\x07\xde\x06\x1e\x11\x085\n90'
tRp2159
sg37
I2
sg38
S'amanda.hashimoto@avanade.com'
p2160
sa(dp2161
g3
Nsg4
I00
sg5
S'GHC 2014 Silver Academic, National Lab & NonProfit Sponsor'
p2162
sg7
S'Erica'
p2163
sg9
S'Senior Software Engineer'
p2164
sg11
S'Kwan'
p2165
sg13
S'Code for America'
p2166
sg15
S'Confirmed'
p2167
sg17
S''
sg19
I214105
sg20
g21
(g22
g23
VSystem Process
tRp2168
(dp2169
g26
Nsg27
I00
sbsg28
g29
(S'\x07\xde\x07\x07\x11\x06)\x081\xa8'
tRp2170
sg31
I70797415
sg32
g21
(g22
g23
VAttendee
tRp2171
(dp2172
g26
Nsg27
I00
sbsg35
g29
(S'\x07\xde\x07\x01\x12&\x1c\x0e~\xf0'
tRp2173
sg37
I2
sg38
S'erica@codeforamerica.org'
p2174
sa(dp2175
g3
Nsg4
I00
sg5
S'GHC 2014 Silver Academic, National Lab & NonProfit Sponsor'
p2176
sg7
S'Vicky'
p2177
sg9
S'Department Coordinator'
p2178
sg11
S'Roy'
p2179
sg13
S'Michigan Technological University'
p2180
sg15
S'Confirmed'
p2181
sg17
S'linda@mtu.edu'
p2182
sg19
I214105
sg20
g21
(g22
g23
VSystem Process
tRp2183
(dp2184
g26
Nsg27
I00
sbsg28
g29
(S'\x07\xde\x07\x15\x0b\x15\t\r\xeeh'
tRp2185
sg31
I70815213
sg32
g21
(g22
g23
VAttendee
tRp2186
(dp2187
g26
Nsg27
I00
sbsg35
g29
(S'\x07\xde\x07\x02\x08#1\n\xfc\x80'
tRp2188
sg37
I2
sg38
S'vlroy@mtu.edu'
p2189
sa(dp2190
g3
Nsg4
I00
sg5
S'GHC 2014 Silver Academic, National Lab & NonProfit Sponsor'
p2191
sg7
S'Anne'
p2192
sg9
S'title:Lecturer'
p2193
sg11
S'Bracy'
p2194
sg13
S'Washington University St. Louis'
p2195
sg15
S'Confirmed'
p2196
sg17
S'kelli.eckman@wustl.edu'
p2197
sg19
I214105
sg20
g21
(g22
g23
VSystem Process
tRp2198
(dp2199
g26
Nsg27
I00
sbsg28
g29
(S'\x07\xde\x07\x07\x1002\x0b\xcb\x88'
tRp2200
sg31
I70820144
sg32
g21
(g22
g23
VAttendee
tRp2201
(dp2202
g26
Nsg27
I00
sbsg35
g29
(S'\x07\xde\x07\x02\n\x1a\x19\x0bJ\xa0'
tRp2203
sg37
I2
sg38
S'bracy.wustl@gmail.com'
p2204
sa(dp2205
g3
Nsg4
I00
sg5
S'GHC 2014 Bronze Academic, National Lab & NonProfit Sponsor'
p2206
sg7
S'John'
p2207
sg9
S'Professor'
p2208
sg11
S'Paxton'
p2209
sg13
S'Montana State University'
p2210
sg15
S'Confirmed'
p2211
sg17
S''
sg19
I214106
sg20
g21
(g22
g23
VSystem Process
tRp2212
(dp2213
g26
Nsg27
I00
sbsg28
g29
(S'\x07\xde\x07\x07\x102\x02\r\xd6\xf8'
tRp2214
sg31
I70822412
sg32
g21
(g22
g23
VAttendee
tRp2215
(dp2216
g26
Nsg27
I00
sbsg35
g29
(S'\x07\xde\x07\x02\x0b\x10\x1c\x0c\x8e\xd8'
tRp2217
sg37
I2
sg38
S'paxton@cs.montana.edu'
p2218
sa(dp2219
g3
Nsg4
I00
sg5
S'GHC 2014 Bronze Industry Sponsor'
p2220
sg7
S'Vanessa'
p2221
sg9
S'Recruiter'
p2222
sg11
S'Camozzi'
p2223
sg13
S'Nutanix'
p2224
sg15
S'Confirmed'
p2225
sg17
S''
sg19
I214103
sg20
g21
(g22
g23
Vkathrynb1
tRp2226
(dp2227
g26
Nsg27
I00
sbsg28
g29
(S'\x07\xde\x07\x07\x0f:+\x034P'
tRp2228
sg31
I70830677
sg32
g21
(g22
g23
VAttendee
tRp2229
(dp2230
g26
Nsg27
I00
sbsg35
g29
(S'\x07\xde\x07\x02\x0e/\x1b\x04\x1e\xb0'
tRp2231
sg37
I2
sg38
S'vanessa@nutanix.com'
p2232
sa(dp2233
g3
Nsg4
I00
sg5
S'GHC 2014 Silver Industry Sponsor '
p2234
sg7
S'Marcia'
p2235
sg9
S'Manager'
p2236
sg11
S'Knowles'
p2237
sg13
S'HBO'
p2238
sg15
S'Confirmed'
p2239
sg17
S'jenn.gustin@hbo.com'
p2240
sg19
I214102
sg20
g21
(g22
g23
Vkathrynb1
tRp2241
(dp2242
g26
Nsg27
I00
sbsg28
g29
(S'\x07\xde\x07\x07\x0e$\r\x03\x82p'
tRp2243
sg31
I70847939
sg32
g21
(g22
g23
VAttendee
tRp2244
(dp2245
g26
Nsg27
I00
sbsg35
g29
(S'\x07\xde\x07\x03\t*8\x0e\xf4 '
tRp2246
sg37
I2
sg38
S'marcia.knowles@hbo.com'
p2247
sa(dp2248
g3
Nsg4
I00
sg5
S'GHC 2014 Gold  Academic, National Lab & NonProfit Sponsor'
p2249
sg7
S'Colleen'
p2250
sg9
S'Assistant Professor'
p2251
sg11
S'Lewis'
p2252
sg13
S'Harvey Mudd College'
p2253
sg15
S'Confirmed'
p2254
sg17
S''
sg19
I214104
sg20
g21
(g22
g23
VSystem Process
tRp2255
(dp2256
g26
Nsg27
I00
sbsg28
g29
(S'\x07\xde\x07\x08\n,\x0e\x06A\x90'
tRp2257
sg31
I70861883
sg32
g21
(g22
g23
VAttendee
tRp2258
(dp2259
g26
Nsg27
I00
sbsg35
g29
(S'\x07\xde\x07\x03\x0e\x0e\x15\x08\xb2\x90'
tRp2260
sg37
I2
sg38
S'lewis@cs.hmc.edu'
p2261
sa(dp2262
g3
Nsg4
I00
sg5
S'GHC 2014 Silver Academic, National Lab & NonProfit Sponsor'
p2263
sg7
S'Hal'
p2264
sg9
S'Dean, Donald Bren School of Information and Computer Sciences'
p2265
sg11
S'Stern'
p2266
sg13
S'University of California, Irvine'
p2267
sg15
S'Confirmed'
p2268
sg17
S'kris@ics.uci.edu'
p2269
sg19
I214105
sg20
g21
(g22
g23
Vkathrynb1
tRp2270
(dp2271
g26
Nsg27
I00
sbsg28
g29
(S'\x07\xde\x07\x07\x10$*\x01\x11p'
tRp2272
sg31
I70866813
sg32
g21
(g22
g23
VAttendee
tRp2273
(dp2274
g26
Nsg27
I00
sbsg35
g29
(S'\x07\xde\x07\x03\x12&+\x05\xf3p'
tRp2275
sg37
I2
sg38
S'sternh@uci.edu'
p2276
sa(dp2277
g3
Nsg4
I00
sg5
S'GHC 2014 Silver Industry Sponsor '
p2278
sg7
S'Allison'
p2279
sg9
S'Partner'
p2280
sg11
S'Munichiello'
p2281
sg13
S'Andreessen Horowitz'
p2282
sg15
S'Confirmed'
p2283
sg17
S''
sg19
I214102
sg20
g21
(g22
g23
Vkathrynb1
tRp2284
(dp2285
g26
Nsg27
I00
sbsg28
g29
(S'\x07\xde\x07\x07\x0e"\x07\x0b\x98\xc0'
tRp2286
sg31
I70904487
sg32
g21
(g22
g23
VAttendee
tRp2287
(dp2288
g26
Nsg27
I00
sbsg35
g29
(S"\x07\xde\x07\x06\x0c'6\x05b\xe8"
tRp2289
sg37
I2
sg38
S'allison@a16z.com'
p2290
sa(dp2291
g3
Nsg4
I00
sg5
S'GHC 2014 Silver Industry Sponsor '
p2292
sg7
S'Kate'
p2293
sg9
S'Recruiter'
p2294
sg11
S'Fiedelman'
p2295
sg13
S'Pinterest'
p2296
sg15
S'Confirmed'
p2297
sg17
S''
sg19
I214102
sg20
g21
(g22
g23
VSystem Process
tRp2298
(dp2299
g26
Nsg27
I00
sbsg28
g29
(S'\x07\xde\x07\x07\x0c1/\n\xfc\x80'
tRp2300
sg31
I70932564
sg32
g21
(g22
g23
VAttendee
tRp2301
(dp2302
g26
Nsg27
I00
sbsg35
g29
(S'\x07\xde\x07\x07\n/\t\x01\xb9h'
tRp2303
sg37
I2
sg38
S'Kate@pinterest.com'
p2304
sa(dp2305
g3
Nsg4
I00
sg5
S'GHC 2014 Gold Industry Sponsor'
p2306
sg7
S'Dee'
p2307
sg9
S'HR Staff Manager'
p2308
sg11
S'Brown'
p2309
sg13
S'Allstate'
p2310
sg15
S'Confirmed'
p2311
sg17
S'CARLA.ZUNIGA@allstate.com'
p2312
sg19
I214101
sg20
g21
(g22
g23
Vkathrynb1
tRp2313
(dp2314
g26
Nsg27
I00
sbsg28
g29
(S'\x07\xde\x07\x07\x0e\x19\x0c\x05\xff('
tRp2315
sg31
I70934816
sg32
g21
(g22
g23
VAttendee
tRp2316
(dp2317
g26
Nsg27
I00
sbsg35
g29
(S'\x07\xde\x07\x07\x0b+\x05\x03\x01\x88'
tRp2318
sg37
I2
sg38
S'sbarfiel@allstate.com'
p2319
sa(dp2320
g3
Nsg4
I00
sg5
S'Enterprise Packages, Partners Only'
p2321
sg7
S'Pamela'
p2322
sg9
S'Assistant'
p2323
sg11
S'Curlee'
p2324
sg13
S'Microsoft SharePoint'
p2325
sg15
S'Confirmed'
p2326
sg17
S''
sg19
I218908
sg20
g21
(g22
g23
Vkathrynb1
tRp2327
(dp2328
g26
Nsg27
I00
sbsg28
g29
(S'\x07\xde\x07\x07\x0e\x13%\x0e\x15x'
tRp2329
sg31
I70935876
sg32
g21
(g22
g23
Vkathrynb1
tRp2330
(dp2331
g26
Nsg27
I00
sbsg35
g29
(S'\x07\xde\x07\x07\x0c\x06%\x02q\x00'
tRp2332
sg37
I2
sg38
S'pamelac@exchange.microsoft.com'
p2333
sa(dp2334
g3
Nsg4
I00
sg5
S'Enterprise Packages, Partners Only'
p2335
sg7
S'Li'
p2336
sg9
S'Principal Dev Lead'
p2337
sg11
S'Chen'
p2338
sg13
S'Microsoft '
p2339
sg15
S'Confirmed'
p2340
sg17
S''
sg19
I218908
sg20
g21
(g22
g23
Vjohnsoja
tRp2341
(dp2342
g26
Nsg27
I00
sbsg28
g29
(S'\x07\xde\x08\x03\r\x019\x00Bh'
tRp2343
sg31
I70948783
sg32
g21
(g22
g23
Vkathrynb1
tRp2344
(dp2345
g26
Nsg27
I00
sbsg35
g29
(S'\x07\xde\x07\x07\x11*\x07\x08"\x08'
tRp2346
sg37
I2
sg38
S'lichen@microsoft.com'
p2347
sa(dp2348
g3
Nsg4
I01
sg5
S'GHC 2014 Bronze Industry Sponsor'
p2349
sg7
S'Amanda'
p2350
sg9
S''
sg11
S'Mulay'
p2351
sg13
S'Twilio'
p2352
sg15
S'Confirmed'
p2353
sg17
S''
sg19
I214103
sg20
g21
(g22
g23
Vkathrynb1
tRp2354
(dp2355
g26
Nsg27
I00
sbsg28
g29
(S'\x07\xde\x08\x04\x0c4-\x03\x18\xf8'
tRp2356
sg31
I70972496
sg32
g21
(g22
g23
VAttendee
tRp2357
(dp2358
g26
Nsg27
I00
sbsg35
g29
(S'\x07\xde\x07\x08\n)\x10\x02I\xf0'
tRp2359
sg37
I2
sg38
S'amulay@twilio.com'
p2360
sa(dp2361
g3
Nsg4
I00
sg5
S'GHC 2014 Platinum Sponsor (available to ABI Partners Only)'
p2362
sg7
S'Michelle'
p2363
sg9
S"Director, Women's Initiative Network"
p2364
sg11
S'Angier'
p2365
sg13
S'eBay Inc'
p2366
sg15
S'Confirmed'
p2367
sg17
S'adearking@ebay.com'
p2368
sg19
I214100
sg20
g21
(g22
g23
Vkathrynb1
tRp2369
(dp2370
g26
Nsg27
I00
sbsg28
g29
(S'\x07\xde\x08\x0b\n\x1d\x15\x01\xfb\xd0'
tRp2371
sg31
I70992463
sg32
g21
(g22
g23
VAttendee
tRp2372
(dp2373
g26
Nsg27
I00
sbsg35
g29
(S'\x07\xde\x07\x08\x14-6\t\x1c\x08'
tRp2374
sg37
I2
sg38
S'mangier@ebay.com'
p2375
sa(dp2376
g3
Nsg4
I01
sg5
S'GHC 2014 Silver Academic, National Lab & NonProfit Sponsor'
p2377
sg7
S'Sonya'
p2378
sg9
S'Director, Graduate Admissions & Student Life'
p2379
sg11
S'Gwak'
p2380
sg13
S'University of Pennsylvania'
p2381
sg15
S'Confirmed'
p2382
sg17
S''
sg19
I214105
sg20
g21
(g22
g23
Vtinapratt
tRp2383
(dp2384
g26
Nsg27
I00
sbsg28
g29
(S'\x07\xde\x08\x13\n1+\x0f\x1b0'
tRp2385
sg31
I71021127
sg32
g21
(g22
g23
VAttendee
tRp2386
(dp2387
g26
Nsg27
I00
sbsg35
g29
(S'\x07\xde\x07\t\r.\x00\x00\x90\x88'
tRp2388
sg37
I2
sg38
S'sgwak@seas.upenn.edu'
p2389
sa(dp2390
g3
Nsg4
I00
sg5
S'GHC 2014 Silver Academic, National Lab & NonProfit Sponsor'
p2391
sg7
S'Kathy'
p2392
sg9
S'Engineering Organizational Services Manager'
p2393
sg11
S'Waskom'
p2394
sg13
S'Texas A&M University'
p2395
sg15
S'Confirmed'
p2396
sg17
S'amato@cse.tamu.edu'
p2397
sg19
I214105
sg20
g21
(g22
g23
Vkathrynb1
tRp2398
(dp2399
g26
Nsg27
I00
sbsg28
g29
(S'\x07\xde\x07\x0e\n/\x07\x07+\xf0'
tRp2400
sg31
I71023847
sg32
g21
(g22
g23
VAttendee
tRp2401
(dp2402
g26
Nsg27
I00
sbsg35
g29
(S'\x07\xde\x07\t\x0e)7\n\xa2\xa8'
tRp2403
sg37
I2
sg38
S'k-waskom@tamu.edu'
p2404
sa(dp2405
g3
Nsg4
I00
sg5
S'GHC 2014 Bronze Academic, National Lab & NonProfit Sponsor'
p2406
sg7
S'Timothy'
p2407
sg9
S'Chair, Electrical, Computer, Software, and Systems Engineering'
p2408
sg11
S'Wilson'
p2409
sg13
S'Embry-Riddle Aeronautical University'
p2410
sg15
S'Confirmed'
p2411
sg17
S'jafers@erau.edu'
p2412
sg19
I214106
sg20
g21
(g22
g23
VSystem Process
tRp2413
(dp2414
g26
Nsg27
I00
sbsg28
g29
(S'\x07\xde\x08\x03\x0c9\x07\x0e\t\xc0'
tRp2415
sg31
I71026329
sg32
g21
(g22
g23
VAttendee
tRp2416
(dp2417
g26
Nsg27
I00
sbsg35
g29
(S'\x07\xde\x07\t\x0f)\x02\x05\x89\xf8'
tRp2418
sg37
I2
sg38
S'wilsonti@erau.edu'
p2419
sa(dp2420
g3
Nsg4
I00
sg5
S'GHC 2014 Bronze Industry Sponsor'
p2421
sg7
S'Nicole'
p2422
sg9
S'Recruiting'
p2423
sg11
S'Hilsenhoff'
p2424
sg13
S'Epic'
p2425
sg15
S'Confirmed'
p2426
sg17
S'profiles@epic.com'
p2427
sg19
I214103
sg20
g21
(g22
g23
Vkathrynb1
tRp2428
(dp2429
g26
Nsg27
I00
sbsg28
g29
(S'\x07\xde\x07\x0e\x0c\x05\t\x0b>\xe8'
tRp2430
sg31
I71063201
sg32
g21
(g22
g23
VAttendee
tRp2431
(dp2432
g26
Nsg27
I00
sbsg35
g29
(S'\x07\xde\x07\n\x0f\x1a\x18\x02I\xf0'
tRp2433
sg37
I2
sg38
S'profiles@epic.com'
p2434
sa(dp2435
g3
Nsg4
I00
sg5
S'GHC 2014 Silver Academic, National Lab & NonProfit Sponsor'
p2436
sg7
S'Ronald'
p2437
sg9
S'Director'
p2438
sg11
S'Askin'
p2439
sg13
S'Arizona State University Computer Science & Engineering'
p2440
sg15
S'Confirmed'
p2441
sg17
S''
sg19
I214105
sg20
g21
(g22
g23
VSystem Process
tRp2442
(dp2443
g26
Nsg27
I00
sbsg28
g29
(S'\x07\xde\x08\x03\r\x0c7\x06&8'
tRp2444
sg31
I71065575
sg32
g21
(g22
g23
VAttendee
tRp2445
(dp2446
g26
Nsg27
I00
sbsg35
g29
(S'\x07\xde\x07\n\x11\x01\x00\x05~@'
tRp2447
sg37
I2
sg38
S'ron.askin@asu.edu'
p2448
sa(dp2449
g3
Nsg4
I01
sg5
S'GHC 2014 Silver Industry Sponsor '
p2450
sg7
S'Tasha'
p2451
sg9
S'Senior Recruting Specialist'
p2452
sg11
S'Nicholas'
p2453
sg13
S'Johnson & Johnson'
p2454
sg15
S'Confirmed'
p2455
sg17
S'tbjorns1@its.jnj.com'
p2456
sg19
I214102
sg20
g21
(g22
g23
Vkathrynb1
tRp2457
(dp2458
g26
Nsg27
I00
sbsg28
g29
(S'\x07\xde\t\n\x00\x07\x19\t\xb8H'
tRp2459
sg31
I71078118
sg32
g21
(g22
g23
VAttendee
tRp2460
(dp2461
g26
Nsg27
I00
sbsg35
g29
(S'\x07\xde\x07\x0b\x07\x00/\x06\x9bh'
tRp2462
sg37
I2
sg38
S'NNichol6@its.jnj.com'
p2463
sa(dp2464
g3
Nsg4
I00
sg5
S'GHC 2014 Gold Industry Sponsor'
p2465
sg7
S'Aaron'
p2466
sg9
S'Experiential Marketing & Events Coordinatory'
p2467
sg11
S'Pagel'
p2468
sg13
S'Groupon'
p2469
sg15
S'Confirmed'
p2470
sg17
S''
sg19
I214101
sg20
g21
(g22
g23
Vkathrynb1
tRp2471
(dp2472
g26
Nsg27
I00
sbsg28
g29
(S'\x07\xde\x07\x1d\x12\x07*\x01\xfb\xd0'
tRp2473
sg31
I71089845
sg32
g21
(g22
g23
Vkathrynb1
tRp2474
(dp2475
g26
Nsg27
I00
sbsg35
g29
(S'\x07\xde\x07\x0b\x0b7(\x00\x0b\xb8'
tRp2476
sg37
I2
sg38
S'apagel@groupon.com'
p2477
sa(dp2478
g3
Nsg4
I00
sg5
S'GHC 2014 Gold  Academic, National Lab & NonProfit Sponsor'
p2479
sg7
S'Erik'
p2480
sg9
S'Director of Programs'
p2481
sg11
S'Russell'
p2482
sg13
S'CRA-W'
p2483
sg15
S'Confirmed'
p2484
sg17
S''
sg19
I214104
sg20
g21
(g22
g23
Vkathrynb1
tRp2485
(dp2486
g26
Nsg27
I00
sbsg28
g29
(S'\x07\xde\x07\x16\x0f\x125\n\xae`'
tRp2487
sg31
I71099296
sg32
g21
(g22
g23
Vkathrynb1
tRp2488
(dp2489
g26
Nsg27
I00
sbsg35
g29
(S'\x07\xde\x07\x0b\x0f:\x04\x08"\x08'
tRp2490
sg37
I2
sg38
S'erik@cra.org'
p2491
sa(dp2492
g3
Nsg4
I00
sg5
S'GHC 2014 Gold  Academic, National Lab & NonProfit Sponsor'
p2493
sg7
S'Pat'
p2494
sg9
S'COO'
p2495
sg11
S'Ryan'
p2496
sg13
S'ACM, ACM-W, CSTA, ACM-CCECC'
p2497
sg15
S'Confirmed'
p2498
sg17
S'wierzbicki@hq.acm.org'
p2499
sg19
I214104
sg20
g21
(g22
g23
Vkathrynb1
tRp2500
(dp2501
g26
Nsg27
I00
sbsg28
g29
(S'\x07\xde\x07\x16\x0f\x105\x07^\xb8'
tRp2502
sg31
I71100586
sg32
g21
(g22
g23
Vkathrynb1
tRp2503
(dp2504
g26
Nsg27
I00
sbsg35
g29
(S'\x07\xde\x07\x0b\x100\x0b\x04\x12\xf8'
tRp2505
sg37
I2
sg38
S'ryanp@hq.acm.org'
p2506
sa(dp2507
g3
Nsg4
I00
sg5
S'GHC 2014 Gold  Academic, National Lab & NonProfit Sponsor'
p2508
sg7
S'Deborah'
p2509
sg9
S'Dr.'
p2510
sg11
S'Lockhart'
p2511
sg13
S'National Science Foundation'
p2512
sg15
S'Confirmed'
p2513
sg17
S''
sg19
I214104
sg20
g21
(g22
g23
Vkathrynb1
tRp2514
(dp2515
g26
Nsg27
I00
sbsg28
g29
(S'\x07\xde\x07\x16\x0e0\x14\x0e<\x88'
tRp2516
sg31
I71100695
sg32
g21
(g22
g23
Vkathrynb1
tRp2517
(dp2518
g26
Nsg27
I00
sbsg35
g29
(S'\x07\xde\x07\x0b\x103\x0e\x08\n\x98'
tRp2519
sg37
I2
sg38
S'dlockhar@nsf.gov'
p2520
sa(dp2521
g3
Nsg4
I00
sg5
S'GHC 2014 Silver Industry Sponsor '
p2522
sg7
S'Victoria'
p2523
sg9
S'-'
sg11
S'Makras'
p2524
sg13
S'DoubleDutch'
p2525
sg15
S'Confirmed'
p2526
sg17
S''
sg19
I214102
sg20
g21
(g22
g23
Vkathrynb1
tRp2527
(dp2528
g26
Nsg27
I00
sbsg28
g29
(S'\x07\xde\x07\x0b\x11\x11\x1e\x08"\x08'
tRp2529
sg31
I71100730
sg32
g21
(g22
g23
Vkathrynb1
tRp2530
(dp2531
g26
Nsg27
I00
sbsg35
g29
(S'\x07\xde\x07\x0b\x105\x1e\x0c\xf8P'
tRp2532
sg37
I2
sg38
S'victoria@doubledutch.me'
p2533
sa(dp2534
g3
Nsg4
I00
sg5
S'GHC 2014 Silver Industry Sponsor '
p2535
sg7
S'Chris'
p2536
sg9
S'Director, Engineering'
p2537
sg11
S'Eager'
p2538
sg13
S'RelayRides'
p2539
sg15
S'Confirmed'
p2540
sg17
S''
sg19
I214102
sg20
g21
(g22
g23
Vkathrynb1
tRp2541
(dp2542
g26
Nsg27
I00
sbsg28
g29
(S'\x07\xde\x07\x0e\x10\x1c\x1d\x03\xf7\xa0'
tRp2543
sg31
I71101563
sg32
g21
(g22
g23
Vkathrynb1
tRp2544
(dp2545
g26
Nsg27
I00
sbsg35
g29
(S'\x07\xde\x07\x0b\x11;\n\x02\xb3h'
tRp2546
sg37
I2
sg38
S'Christian@relayrides.com'
p2547
sa(dp2548
g3
Nsg4
I00
sg5
S'GHC 2014 Bronze Academic, National Lab & NonProfit Sponsor'
p2549
sg7
S'Kayla'
p2550
sg9
S'-'
sg11
S'Bills'
p2551
sg13
S'Khan Academy'
p2552
sg15
S'Confirmed'
p2553
sg17
S''
sg19
I214106
sg20
g21
(g22
g23
Vkathrynb1
tRp2554
(dp2555
g26
Nsg27
I00
sbsg28
g29
(S'\x07\xde\x07\x0e\x10"\x12\x0e\xc1X'
tRp2556
sg31
I71101740
sg32
g21
(g22
g23
Vkathrynb1
tRp2557
(dp2558
g26
Nsg27
I00
sbsg35
g29
(S'\x07\xde\x07\x0b\x12\x0b9\t\xeb\x10'
tRp2559
sg37
I2
sg38
S'kayla@khanacademy.org'
p2560
sa(dp2561
g3
Nsg4
I00
sg5
S'GHC 2014 Bronze Academic, National Lab & NonProfit Sponsor'
p2562
sg7
S'Elizabeth'
p2563
sg9
S'Executive Associate'
p2564
sg11
S'Bernard'
p2565
sg13
S'George Washington University'
p2566
sg15
S'Confirmed'
p2567
sg17
S'sheller@gwu.edu'
p2568
sg19
I214106
sg20
g21
(g22
g23
VSystem Process
tRp2569
(dp2570
g26
Nsg27
I00
sbsg28
g29
(S'\x07\xde\x08\x1c\x11,\x1d\x07z\x10'
tRp2571
sg31
I71147537
sg32
g21
(g22
g23
VAttendee
tRp2572
(dp2573
g26
Nsg27
I00
sbsg35
g29
(S'\x07\xde\x07\x0e\t$\n\x0f&\xe8'
tRp2574
sg37
I2
sg38
S'engineering@gwu.edu'
p2575
sa(dp2576
g3
Nsg4
I00
sg5
S'GHC 2014 Bronze Industry Sponsor'
p2577
sg7
S'Megan'
p2578
sg9
S'University Relations Program Manager/Recruiter'
p2579
sg11
S'MacDonell'
p2580
sg13
S'FireEye'
p2581
sg15
S'Confirmed'
p2582
sg17
S''
sg19
I214103
sg20
g21
(g22
g23
Vkathrynb1
tRp2583
(dp2584
g26
Nsg27
I00
sbsg28
g29
(S'\x07\xde\x07\x0e\x0f9\x14\x01\xb9h'
tRp2585
sg31
I71164666
sg32
g21
(g22
g23
VAttendee
tRp2586
(dp2587
g26
Nsg27
I00
sbsg35
g29
(S'\x07\xde\x07\x0e\x0f\x03)\x0e\xe8h'
tRp2588
sg37
I2
sg38
S'megan.macdonell@fireeye.com'
p2589
sa(dp2590
g3
Nsg4
I00
sg5
S'GHC 2014 Silver Academic, National Lab & NonProfit Sponsor'
p2591
sg7
S'Kate'
p2592
sg9
S'Recruiter'
p2593
sg11
S'Carter'
p2594
sg13
S'Oak Ridge National Laboratory'
p2595
sg15
S'Confirmed'
p2596
sg17
S''
sg19
I214105
sg20
g21
(g22
g23
Vkathrynb1
tRp2597
(dp2598
g26
Nsg27
I00
sbsg28
g29
(S'\x07\xde\x07\x10\x15\n\x16\x05\xc0\xa8'
tRp2599
sg31
I71195537
sg32
g21
(g22
g23
VAttendee
tRp2600
(dp2601
g26
Nsg27
I00
sbsg35
g29
(S'\x07\xde\x07\x0f\x0b0\x12\x05\x14\xc8'
tRp2602
sg37
I2
sg38
S'carterka@ornl.gov'
p2603
sa(dp2604
g3
Nsg4
I00
sg5
S'GHC 2014 Silver Academic, National Lab & NonProfit Sponsor'
p2605
sg7
S'Danielle'
p2606
sg9
S'Program Director'
p2607
sg11
S'Strachman'
p2608
sg13
S'Thiel Fellowship'
p2609
sg15
S'Confirmed'
p2610
sg17
S''
sg19
I214105
sg20
g21
(g22
g23
VSystem Process
tRp2611
(dp2612
g26
Nsg27
I00
sbsg28
g29
(S'\x07\xde\x07\x10\x15"\x05\x04\xc6\xa8'
tRp2613
sg31
I71208456
sg32
g21
(g22
g23
VAttendee
tRp2614
(dp2615
g26
Nsg27
I00
sbsg35
g29
(S'\x07\xde\x07\x0f\x10;\x18\x0e\xe8h'
tRp2616
sg37
I2
sg38
S'dstrachman@thielfoundation.org'
p2617
sa(dp2618
g3
Nsg4
I00
sg5
S'GHC 2014 Silver Industry Sponsor '
p2619
sg7
S'Tiffany'
p2620
sg9
S'Director of Public Affairs'
p2621
sg11
S'Apczynski'
p2622
sg13
S'Zendesk'
p2623
sg15
S'Confirmed'
p2624
sg17
S''
sg19
I214102
sg20
g21
(g22
g23
Vkathrynb1
tRp2625
(dp2626
g26
Nsg27
I00
sbsg28
g29
(S'\x07\xde\x07\x10\x15$;\r\xc7X'
tRp2627
sg31
I71210161
sg32
g21
(g22
g23
VAttendee
tRp2628
(dp2629
g26
Nsg27
I00
sbsg35
g29
(S'\x07\xde\x07\x0f\x12\x15\x08\x03\xc4\xd8'
tRp2630
sg37
I2
sg38
S'tiffany@zendesk.com'
p2631
sa(dp2632
g3
Nsg4
I00
sg5
S'GHC 2014 Bronze Academic, National Lab & NonProfit Sponsor'
p2633
sg7
S'Cynthia'
p2634
sg9
S'Director, LERNet'
p2635
sg11
S'Brossman'
p2636
sg13
S'Boston University'
p2637
sg15
S'Confirmed'
p2638
sg17
S'betke@bu.edu'
p2639
sg19
I214106
sg20
g21
(g22
g23
VSystem Process
tRp2640
(dp2641
g26
Nsg27
I00
sbsg28
g29
(S'\x07\xde\x07\x10\x15-.\r:\xb8'
tRp2642
sg31
I71225264
sg32
g21
(g22
g23
VAttendee
tRp2643
(dp2644
g26
Nsg27
I00
sbsg35
g29
(S'\x07\xde\x07\x10\x08\x16\x1a\x0b\xbf\xd0'
tRp2645
sg37
I2
sg38
S'cab@bu.edu'
p2646
sa(dp2647
g3
Nsg4
I00
sg5
S'GHC 2014 Silver Industry Sponsor '
p2648
sg7
S'Rebecca'
p2649
sg9
S'Program Manager, Global Talent Acquisition'
p2650
sg11
S'Dockery'
p2651
sg13
S'MasterCard'
p2652
sg15
S'Confirmed'
p2653
sg17
S''
sg19
I214102
sg20
g21
(g22
g23
VSystem Process
tRp2654
(dp2655
g26
Nsg27
I00
sbsg28
g29
(S'\x07\xde\x07\x11\x0e\x1a:\x01\x11p'
tRp2656
sg31
I71240129
sg32
g21
(g22
g23
VAttendee
tRp2657
(dp2658
g26
Nsg27
I00
sbsg35
g29
(S'\x07\xde\x07\x10\r;\x03\x0b\xbf\xd0'
tRp2659
sg37
I2
sg38
S'rebecca_dockery@mastercard.com'
p2660
sa(dp2661
g3
Nsg4
I00
sg5
S'GHC 2014 Bronze Industry Sponsor'
p2662
sg7
S'Amy'
p2663
sg9
S'Corporate Recruiter'
p2664
sg11
S'Benjamin'
p2665
sg13
S'Rally Software Development'
p2666
sg15
S'Confirmed'
p2667
sg17
S''
sg19
I214103
sg20
g21
(g22
g23
Vkathrynb1
tRp2668
(dp2669
g26
Nsg27
I00
sbsg28
g29
(S'\x07\xde\x07\x10\x16\x18\x08\x0b\x17\xd8'
tRp2670
sg31
I71244117
sg32
g21
(g22
g23
VAttendee
tRp2671
(dp2672
g26
Nsg27
I00
sbsg35
g29
(S'\x07\xde\x07\x10\x10\x15\x0b\x0bJ\xa0'
tRp2673
sg37
I2
sg38
S'abenjamin@rallydev.com'
p2674
sa(dp2675
g3
Nsg4
I00
sg5
S'GHC 2014 Silver Academic, National Lab & NonProfit Sponsor'
p2676
sg7
S'Alison'
p2677
sg9
S'Director of Student Affairs'
p2678
sg11
S'Essary'
p2679
sg13
S'Arizon State University College of Health Solutions'
p2680
sg15
S'Confirmed'
p2681
sg17
S''
sg19
I214105
sg20
g21
(g22
g23
VSystem Process
tRp2682
(dp2683
g26
Nsg27
I00
sbsg28
g29
(S'\x07\xde\x08\x03\r\x0c\x13\x02\x07\x88'
tRp2684
sg31
I71247156
sg32
g21
(g22
g23
VAttendee
tRp2685
(dp2686
g26
Nsg27
I00
sbsg35
g29
(S"\x07\xde\x07\x10\x12\x06'\x0c\\\x10"
tRp2687
sg37
I2
sg38
S'alison.essary@asu.edu'
p2688
sa(dp2689
g3
Nsg4
I00
sg5
S'GHC 2014 Platinum Sponsor (available to ABI Partners Only)'
p2690
sg7
S'Jennifer'
p2691
sg9
S'Program Manager'
p2692
sg11
S'Bouchard'
p2693
sg13
S'Facebook'
p2694
sg15
S'Confirmed'
p2695
sg17
S''
sg19
I214100
sg20
g21
(g22
g23
Vkathrynb1
tRp2696
(dp2697
g26
Nsg27
I00
sbsg28
g29
(S'\x07\xde\t\x0e\n\x070\x0c)H'
tRp2698
sg31
I71251385
sg32
g21
(g22
g23
Vkathrynb1
tRp2699
(dp2700
g26
Nsg27
I00
sbsg35
g29
(S"\x07\xde\x07\x10\x16\x0c\x12\x00'\x10"
tRp2701
sg37
I2
sg38
S'jbouchard@fb.com'
p2702
sa(dp2703
g3
Nsg4
I00
sg5
S'GHC 2014 Silver Industry Sponsor '
p2704
sg7
S'Bruce'
p2705
sg9
S'Manager - University Relations & National Diversity Partners'
p2706
sg11
S'Soltys'
p2707
sg13
S'Verizon'
p2708
sg15
S'Confirmed'
p2709
sg17
S''
sg19
I214102
sg20
g21
(g22
g23
Vkathrynb1
tRp2710
(dp2711
g26
Nsg27
I00
sbsg28
g29
(S'\x07\xde\x07\x11\x0b\x16\x00\x08I\x18'
tRp2712
sg31
I71260279
sg32
g21
(g22
g23
VAttendee
tRp2713
(dp2714
g26
Nsg27
I00
sbsg35
g29
(S'\x07\xde\x07\x11\x07\x10*\x00\xea`'
tRp2715
sg37
I2
sg38
S'bruce.soltys@verizon.com'
p2716
sa(dp2717
g3
Nsg4
I00
sg5
S'GHC 2014 Silver Industry Sponsor '
p2718
sg7
S'Sarah'
p2719
sg9
S'Events Marketing Manager'
p2720
sg11
S'Freedman'
p2721
sg13
S'Mediaocean'
p2722
sg15
S'Confirmed'
p2723
sg17
S''
sg19
I214102
sg20
g21
(g22
g23
Vkathrynb1
tRp2724
(dp2725
g26
Nsg27
I00
sbsg28
g29
(S'\x07\xde\x07\x15\x17(\x14\n\xfc\x80'
tRp2726
sg31
I71267254
sg32
g21
(g22
g23
VAttendee
tRp2727
(dp2728
g26
Nsg27
I00
sbsg35
g29
(S'\x07\xde\x07\x11\n\x07$\x06\\\xe8'
tRp2729
sg37
I2
sg38
S'sfreedman@mediaocean.com'
p2730
sa(dp2731
g3
Nsg4
I00
sg5
S'GHC 2014 Platinum Sponsor (available to ABI Partners Only)'
p2732
sg7
S'Rane'
p2733
sg9
S'Principal Research Director'
p2734
sg11
S'Johnson-Stempson'
p2735
sg13
S'Microsoft'
p2736
sg15
S'Confirmed'
p2737
sg17
S''
sg19
I214100
sg20
g21
(g22
g23
Vkathrynb1
tRp2738
(dp2739
g26
Nsg27
I00
sbsg28
g29
(S'\x07\xde\t\x03\x0f\x102\x01\x11p'
tRp2740
sg31
I71269158
sg32
g21
(g22
g23
Vkathrynb1
tRp2741
(dp2742
g26
Nsg27
I00
sbsg35
g29
(S'\x07\xde\x07\x11\n2!\x0c\xec\x98'
tRp2743
sg37
I2
sg38
S'ranej@microsoft.com'
p2744
sa(dp2745
g3
Nsg4
I00
sg5
S'GHC 2014 Silver Academic, National Lab & NonProfit Sponsor'
p2746
sg7
S'Nikki'
p2747
sg9
S'Office Manager'
p2748
sg11
S'Lewis'
p2749
sg13
S'Diversity/Careers'
p2750
sg15
S'Confirmed'
p2751
sg17
S'editor@diversitycareers.com'
p2752
sg19
I214105
sg20
g21
(g22
g23
Vkathrynb1
tRp2753
(dp2754
g26
Nsg27
I00
sbsg28
g29
(S'\x07\xde\x07\x18\x124\x06\x0b\xdb('
tRp2755
sg31
I71269628
sg32
g21
(g22
g23
Vkathrynb1
tRp2756
(dp2757
g26
Nsg27
I00
sbsg35
g29
(S'\x07\xde\x07\x11\x0b\x06/\x002\xc8'
tRp2758
sg37
I2
sg38
S'nekeyia@diversitycareers.com'
p2759
sa(dp2760
g3
Nsg4
I00
sg5
S'GHC 2014 Gold  Academic, National Lab & NonProfit Sponsor'
p2761
sg7
S'Tiffany'
p2762
sg9
S'Associate Director of Diversity Achievement'
p2763
sg11
S'Reardon'
p2764
sg13
S'University of California,  Berkeley'
p2765
sg15
S'Confirmed'
p2766
sg17
S'atabor@berkeley.edu'
p2767
sg19
I214104
sg20
g21
(g22
g23
Vjohnsoja
tRp2768
(dp2769
g26
Nsg27
I00
sbsg28
g29
(S'\x07\xde\x08\x03\r\t#\x0b\x17\xd8'
tRp2770
sg31
I71274950
sg32
g21
(g22
g23
VAttendee
tRp2771
(dp2772
g26
Nsg27
I00
sbsg35
g29
(S'\x07\xde\x07\x11\r\x1d\x12\x0b\x8d\x08'
tRp2773
sg37
I2
sg38
S'treardon@berkeley.edu'
p2774
sa(dp2775
g3
Nsg4
I00
sg5
S'GHC 2014 Silver Academic, National Lab & NonProfit Sponsor'
p2776
sg7
S'Ruth'
p2777
sg9
S'Community Leadership Team member'
p2778
sg11
S'Cheesley'
p2779
sg13
S'Joomla!'
p2780
sg15
S'Confirmed'
p2781
sg17
S''
sg19
I214105
sg20
g21
(g22
g23
Vkathrynb1
tRp2782
(dp2783
g26
Nsg27
I00
sbsg28
g29
(S'\x07\xde\x07\x18\x12\x13\x1f\x05\xcc`'
tRp2784
sg31
I71290810
sg32
g21
(g22
g23
VAttendee
tRp2785
(dp2786
g26
Nsg27
I00
sbsg35
g29
(S'\x07\xde\x07\x12\x04\x04\x19\x0bq\xb0'
tRp2787
sg37
I2
sg38
S'ruth.cheesley@community.joomla.org'
p2788
sa(dp2789
g3
Nsg4
I00
sg5
S'GHC 2014 Silver Academic, National Lab & NonProfit Sponsor'
p2790
sg7
S'Vyria'
p2791
sg9
S'Director Internet Leadership Programmes'
p2792
sg11
S'Paselk'
p2793
sg13
S'Internet Society'
p2794
sg15
S'Confirmed'
p2795
sg17
S'cowieson@isoc.org'
p2796
sg19
I214105
sg20
g21
(g22
g23
Vkathrynb1
tRp2797
(dp2798
g26
Nsg27
I00
sbsg28
g29
(S'\x07\xde\x07\x16\x0f7\x01\x04Qx'
tRp2799
sg31
I71301264
sg32
g21
(g22
g23
VAttendee
tRp2800
(dp2801
g26
Nsg27
I00
sbsg35
g29
(S'\x07\xde\x07\x12\n6)\x06\xd2\x18'
tRp2802
sg37
I2
sg38
S'paselk@isoc.org'
p2803
sa(dp2804
g3
Nsg4
I00
sg5
S'GHC 2014 Silver Academic, National Lab & NonProfit Sponsor'
p2805
sg7
S'Christine'
p2806
sg9
S'Lecturer SOE'
p2807
sg11
S'Alvarado'
p2808
sg13
S'University of California, San Diego'
p2809
sg15
S'Confirmed'
p2810
sg17
S''
sg19
I214105
sg20
g21
(g22
g23
Vjohnsoja
tRp2811
(dp2812
g26
Nsg27
I00
sbsg28
g29
(S'\x07\xde\x08\x03\r\t\x0f\rFp'
tRp2813
sg31
I71302837
sg32
g21
(g22
g23
Vtinapratt
tRp2814
(dp2815
g26
Nsg27
I00
sbsg35
g29
(S"\x07\xde\x07\x12\x0b \x12\x00'\x10"
tRp2816
sg37
I2
sg38
S'alvarado@cs.ucsd.edu'
p2817
sa(dp2818
g3
Nsg4
I00
sg5
S'GHC 2014 Silver Industry Sponsor '
p2819
sg7
S'Cathleen'
p2820
sg9
S'Director, IT'
p2821
sg11
S'Cook'
p2822
sg13
S'Capital One'
p2823
sg15
S'Confirmed'
p2824
sg17
S''
sg19
I214102
sg20
g21
(g22
g23
Vkathrynb1
tRp2825
(dp2826
g26
Nsg27
I00
sbsg28
g29
(S'\x07\xde\x08\x0f\n\x07\x18\x04Qx'
tRp2827
sg31
I71303236
sg32
g21
(g22
g23
VAttendee
tRp2828
(dp2829
g26
Nsg27
I00
sbsg35
g29
(S'\x07\xde\x07\x12\x0b8\x0e\x04\xc6\xa8'
tRp2830
sg37
I2
sg38
S'caty.cook@capitalone.com'
p2831
sa(dp2832
g3
Nsg4
I00
sg5
S'GHC 2014 Silver Academic, National Lab & NonProfit Sponsor'
p2833
sg7
S'Shane'
p2834
sg9
S'Director of Admissions'
p2835
sg11
S'Topping'
p2836
sg13
S'Stevens Institute of Technology'
p2837
sg15
S'Confirmed'
p2838
sg17
S'Adriana.Compagnoni@stevens.edu'
p2839
sg19
I214105
sg20
g21
(g22
g23
VSystem Process
tRp2840
(dp2841
g26
Nsg27
I00
sbsg28
g29
(S'\x07\xde\x07\x16\n\x1c\x18\x00\xc3P'
tRp2842
sg31
I71304608
sg32
g21
(g22
g23
VAttendee
tRp2843
(dp2844
g26
Nsg27
I00
sbsg35
g29
(S'\x07\xde\x07\x12\x0c\x18\x1b\tC\x18'
tRp2845
sg37
I2
sg38
S'stopping@stevens.edu'
p2846
sa(dp2847
g3
Nsg4
I00
sg5
S'GHC 2014 Silver Industry Sponsor '
p2848
sg7
S'Joanne'
p2849
sg9
S'Executive Assistant'
p2850
sg11
S'Dill'
p2851
sg13
S'Pivotal Software'
p2852
sg15
S'Confirmed'
p2853
sg17
S'bkempanowski@gopivotal.com'
p2854
sg19
I214102
sg20
g21
(g22
g23
Vjohnsoja
tRp2855
(dp2856
g26
Nsg27
I00
sbsg28
g29
(S'\x07\xde\x08\x03\r\x034\x07GH'
tRp2857
sg31
I71304935
sg32
g21
(g22
g23
VAttendee
tRp2858
(dp2859
g26
Nsg27
I00
sbsg35
g29
(S'\x07\xde\x07\x12\x0c%\x1b\x03\xeb\xe8'
tRp2860
sg37
I2
sg38
S'jdill@gopivotal.com'
p2861
sa(dp2862
g3
Nsg4
I00
sg5
S'GHC 2014 Silver Industry Sponsor '
p2863
sg7
S'Lee'
p2864
sg9
S'-'
sg11
S'Wills-Irvine'
p2865
sg13
S'Qualcomm'
p2866
sg15
S'Confirmed'
p2867
sg17
S''
sg19
I214102
sg20
g21
(g22
g23
Vkathrynb1
tRp2868
(dp2869
g26
Nsg27
I00
sbsg28
g29
(S'\x07\xde\x08\x1d\x116\x17\t3x'
tRp2870
sg31
I71306087
sg32
g21
(g22
g23
Vkathrynb1
tRp2871
(dp2872
g26
Nsg27
I00
sbsg35
g29
(S'\x07\xde\x07\x12\r\x08\x16\x03\xa9\x80'
tRp2873
sg37
I2
sg38
S'lwirvine@qualcomm.com'
p2874
sa(dp2875
g3
Nsg4
I00
sg5
S'GHC 2014 Platinum Sponsor (available to ABI Partners Only)'
p2876
sg7
S'Dawn'
p2877
sg9
S'Marketplace Event Coordinator'
p2878
sg11
S'Fredericy'
p2879
sg13
S'Dell, Inc.'
p2880
sg15
S'Confirmed'
p2881
sg17
S''
sg19
I214100
sg20
g21
(g22
g23
Vkathrynb1
tRp2882
(dp2883
g26
Nsg27
I00
sbsg28
g29
(S'\x07\xde\x08\x0b\n\x1d&\n\xa2\xa8'
tRp2884
sg31
I71306211
sg32
g21
(g22
g23
Vkathrynb1
tRp2885
(dp2886
g26
Nsg27
I00
sbsg35
g29
(S'\x07\xde\x07\x12\r\r\x1a\x04E\xc0'
tRp2887
sg37
I2
sg38
S'Dawn_Fredericy@DellTeam.com'
p2888
sa(dp2889
g3
Nsg4
I00
sg5
S'GHC 2014 Silver Academic, National Lab & NonProfit Sponsor'
p2890
sg7
S'Elizabeth'
p2891
sg9
S'Graduate Program Coordinator'
p2892
sg11
S'Bunge'
p2893
sg13
S'IUPUI Informatics and Computing'
p2894
sg15
S'Confirmed'
p2895
sg17
S''
sg19
I214105
sg20
g21
(g22
g23
Vkathrynb1
tRp2896
(dp2897
g26
Nsg27
I00
sbsg28
g29
(S"\x07\xde\x08\x16\x0c!'\x05;\xd8"
tRp2898
sg31
I71309655
sg32
g21
(g22
g23
VAttendee
tRp2899
(dp2900
g26
Nsg27
I00
sbsg35
g29
(S'\x07\xde\x07\x12\x0f\x03+\x0c5\x00'
tRp2901
sg37
I2
sg38
S'ebunge@iupui.edu'
p2902
sa(dp2903
g3
Nsg4
I00
sg5
S'GHC 2014 Platinum Sponsor (available to ABI Partners Only)'
p2904
sg7
S'Irene'
p2905
sg9
S'Sr. Manager, Diversity'
p2906
sg11
S'Kendall'
p2907
sg13
S'Apple'
p2908
sg15
S'Confirmed'
p2909
sg17
S''
sg19
I214100
sg20
g21
(g22
g23
VmichaelI2
tRp2910
(dp2911
g26
Nsg27
I00
sbsg28
g29
(S'\x07\xde\x08\x07\x11;\x13\x0b\x98\xc0'
tRp2912
sg31
I71356623
sg32
g21
(g22
g23
Vkathrynb1
tRp2913
(dp2914
g26
Nsg27
I00
sbsg35
g29
(S"\x07\xde\x07\x15\n'\x1d\n\xd5p"
tRp2915
sg37
I2
sg38
S'ikendall@apple.com'
p2916
sa(dp2917
g3
Nsg4
I00
sg5
S'GHC 2014 Bronze Industry Sponsor'
p2918
sg7
S'Caroline'
p2919
sg9
S'Business I/S Manager'
p2920
sg11
S'Cronin'
p2921
sg13
S'Dow'
p2922
sg15
S'Confirmed'
p2923
sg17
S'llabraham@dow.com'
p2924
sg19
I214103
sg20
g21
(g22
g23
VSystem Process
tRp2925
(dp2926
g26
Nsg27
I00
sbsg28
g29
(S'\x07\xde\x07\x15\x0f3\x00\x05~@'
tRp2927
sg31
I71368122
sg32
g21
(g22
g23
VAttendee
tRp2928
(dp2929
g26
Nsg27
I00
sbsg35
g29
(S'\x07\xde\x07\x15\x0f\x14\r\x03\x01\x88'
tRp2930
sg37
I2
sg38
S'carolinecronin@dow.com'
p2931
sa(dp2932
g3
Nsg4
I00
sg5
S'GHC 2014 Silver Industry Sponsor '
p2933
sg7
S'Kenzie'
p2934
sg9
S'Software Engineer IV'
p2935
sg11
S'Harper'
p2936
sg13
S'Ericsson'
p2937
sg15
S'Confirmed'
p2938
sg17
S''
sg19
I214102
sg20
g21
(g22
g23
Vkathrynb1
tRp2939
(dp2940
g26
Nsg27
I00
sbsg28
g29
(S'\x07\xde\x07\x15\x11\x19\x1c\tC\x18'
tRp2941
sg31
I71371977
sg32
g21
(g22
g23
VAttendee
tRp2942
(dp2943
g26
Nsg27
I00
sbsg35
g29
(S'\x07\xde\x07\x15\x11\x0b8\x06A\x90'
tRp2944
sg37
I2
sg38
S'flicka.enloe@ericsson.com'
p2945
sa(dp2946
g3
Nsg4
I00
sg5
S'GHC 2014 Bronze Academic, National Lab & NonProfit Sponsor'
p2947
sg7
S'Sandy'
p2948
sg9
S'Instructor'
p2949
sg11
S'Vlasnik'
p2950
sg13
S'University of Nebraska, Omaha'
p2951
sg15
S'Confirmed'
p2952
sg17
S''
sg19
I214106
sg20
g21
(g22
g23
Vjohnsoja
tRp2953
(dp2954
g26
Nsg27
I00
sbsg28
g29
(S'\x07\xde\x08\x03\r\t4\x08"\x08'
tRp2955
sg31
I71375076
sg32
g21
(g22
g23
Vtinapratt
tRp2956
(dp2957
g26
Nsg27
I00
sbsg35
g29
(S'\x07\xde\x07\x15\x14\x08)\x08\xd9\xa0'
tRp2958
sg37
I2
sg38
S'svlasnik@unomaha.edu'
p2959
sa(dp2960
g3
Nsg4
I00
sg5
S'GHC 2014 Silver Academic, National Lab & NonProfit Sponsor'
p2961
sg7
S'Janet'
p2962
sg9
S'Associate Professor'
p2963
sg11
S'Davis'
p2964
sg13
S'LACAFI'
p2965
sg15
S'Confirmed'
p2966
sg17
S''
sg19
I214105
sg20
g21
(g22
g23
Vkathrynb1
tRp2967
(dp2968
g26
Nsg27
I00
sbsg28
g29
(S'\x07\xde\x07\x15\x15\x0c\x02\nT\x88'
tRp2969
sg31
I71375191
sg32
g21
(g22
g23
Vtinapratt
tRp2970
(dp2971
g26
Nsg27
I00
sbsg35
g29
(S'\x07\xde\x07\x15\x14\x0e\x00\x01\x92X'
tRp2972
sg37
I2
sg38
S'davisjan@cs.grinnell.edu'
p2973
sa(dp2974
g3
Nsg4
I00
sg5
S'GHC 2014 Silver Industry Sponsor '
p2975
sg7
S'Ryan'
p2976
sg9
S'Technical Recruiter'
p2977
sg11
S'Sapper'
p2978
sg13
S'Optimizely'
p2979
sg15
S'Confirmed'
p2980
sg17
S''
sg19
I214102
sg20
g21
(g22
g23
Vkathrynb1
tRp2981
(dp2982
g26
Nsg27
I00
sbsg28
g29
(S'\x07\xde\x07\x16\x0b\x04"\x02\xdax'
tRp2983
sg31
I71394302
sg32
g21
(g22
g23
VAttendee
tRp2984
(dp2985
g26
Nsg27
I00
sbsg35
g29
(S'\x07\xde\x07\x16\t6\x15\x03\xc4\xd8'
tRp2986
sg37
I2
sg38
S'ryan.sapper@optimizely.com'
p2987
sa(dp2988
g3
Nsg4
I00
sg5
S'GHC 2014 Bronze Academic, National Lab & NonProfit Sponsor'
p2989
sg7
S'Sharon'
p2990
sg9
S'Department Head'
p2991
sg11
S'Simmons'
p2992
sg13
S'James Madison University'
p2993
sg15
S'Confirmed'
p2994
sg17
S'laycockr@jmu.edu'
p2995
sg19
I214106
sg20
g21
(g22
g23
Vkathrynb1
tRp2996
(dp2997
g26
Nsg27
I00
sbsg28
g29
(S'\x07\xde\x07\x17\r\x0b$\r\xd6\xf8'
tRp2998
sg31
I71437430
sg32
g21
(g22
g23
Vtinapratt
tRp2999
(dp3000
g26
Nsg27
I00
sbsg35
g29
(S'\x07\xde\x07\x17\x0b\x05\x1b\x06\xf9('
tRp3001
sg37
I2
sg38
S'simmonsj@jmu.edu'
p3002
sa(dp3003
g3
Nsg4
I00
sg5
S'GHC 2014 Platinum Sponsor (available to ABI Partners Only)'
p3004
sg7
S'Karen'
p3005
sg9
S'Recruiting Team Lead'
p3006
sg11
S'Sperling'
p3007
sg13
S'Dropbox'
p3008
sg15
S'Confirmed'
p3009
sg17
S'casey@dropbox.com'
p3010
sg19
I214100
sg20
g21
(g22
g23
Vkathrynb1
tRp3011
(dp3012
g26
Nsg27
I00
sbsg28
g29
(S'\x07\xde\x07\x18\x12:\x00\x03@\x08'
tRp3013
sg31
I71492463
sg32
g21
(g22
g23
Vkathrynb1
tRp3014
(dp3015
g26
Nsg27
I00
sbsg35
g29
(S'\x07\xde\x07\x18\x127\x10\x07+\xf0'
tRp3016
sg37
I2
sg38
S'Karen@dropbox.com'
p3017
sa(dp3018
g3
Nsg4
I00
sg5
S'GHC 2014 Silver Academic, National Lab & NonProfit Sponsor'
p3019
sg7
S'Linda'
p3020
sg9
S'Accounting Specialist II'
p3021
sg11
S'Robinson'
p3022
sg13
S'University of Tennessee'
p3023
sg15
S'Confirmed'
p3024
sg17
S'mkelle16@utk.edu'
p3025
sg19
I214105
sg20
g21
(g22
g23
Vkathrynb1
tRp3026
(dp3027
g26
Nsg27
I00
sbsg28
g29
(S"\x07\xde\x07\x19\x0c'&\x018\x80"
tRp3028
sg31
I71514310
sg32
g21
(g22
g23
Vtinapratt
tRp3029
(dp3030
g26
Nsg27
I00
sbsg35
g29
(S'\x07\xde\x07\x19\x0b6\x1f\rm\x80'
tRp3031
sg37
I2
sg38
S'lindar@utk.edu'
p3032
sa(dp3033
g3
Nsg4
I00
sg5
S'Additional Sponsorship Opportunities'
p3034
sg7
S'Alison'
p3035
sg9
S'Vice President, Oracle Academy'
p3036
sg11
S'Derbenwick Miller'
p3037
sg13
S'Oracle Academy'
p3038
sg15
S'Confirmed'
p3039
sg17
S'tzel.ramos@oracle.com'
p3040
sg19
I214301
sg20
g21
(g22
g23
Vkathrynb1
tRp3041
(dp3042
g26
Nsg27
I00
sbsg28
g29
(S'\x07\xde\x07\x19\x10\x04+\x08I\x18'
tRp3043
sg31
I71521721
sg32
g21
(g22
g23
VAttendee
tRp3044
(dp3045
g26
Nsg27
I00
sbsg35
g29
(S'\x07\xde\x07\x19\x0f\x1e\x02\x01D8'
tRp3046
sg37
I2
sg38
S'alison.derbenwick@oracle.com'
p3047
sa(dp3048
g3
Nsg4
I00
sg5
S'GHC 2014 Bronze Academic, National Lab & NonProfit Sponsor'
p3049
sg7
S'Emanuela'
p3050
sg9
S'-'
sg11
S'Neagu'
p3051
sg13
S'Wikimedia Foundation'
p3052
sg15
S'Confirmed'
p3053
sg17
S''
sg19
I214106
sg20
g21
(g22
g23
Vkathrynb1
tRp3054
(dp3055
g26
Nsg27
I00
sbsg28
g29
(S'\x07\xde\x07\x1c\n\x1d\x1a\x01,\xc8'
tRp3056
sg31
I71525610
sg32
g21
(g22
g23
Vkathrynb1
tRp3057
(dp3058
g26
Nsg27
I00
sbsg35
g29
(S'\x07\xde\x07\x19\x13\x0f2\x0e\xa6\x00'
tRp3059
sg37
I2
sg38
S'eneagu@wikimedia.org'
p3060
sa(dp3061
g3
Nsg4
I00
sg5
S'Additional Sponsorship Opportunities'
p3062
sg7
S'Rodney'
p3063
sg9
S'Manager, Talent Acquisition'
p3064
sg11
S'Nathan'
p3065
sg13
S'PROS'
p3066
sg15
S'Confirmed'
p3067
sg17
S''
sg19
I214301
sg20
g21
(g22
g23
VSystem Process
tRp3068
(dp3069
g26
Nsg27
I00
sbsg28
g29
(S'\x07\xde\x08\x03\r\x04\x0c\r:\xb8'
tRp3070
sg31
I71543473
sg32
g21
(g22
g23
VAttendee
tRp3071
(dp3072
g26
Nsg27
I00
sbsg35
g29
(S'\x07\xde\x07\x1b\x0c)\x19\x06\xb6\xc0'
tRp3073
sg37
I2
sg38
S'rnathan@pros.com'
p3074
sa(dp3075
g3
Nsg4
I00
sg5
S'GHC 2014 Bronze Industry Sponsor'
p3076
sg7
S'Laura'
p3077
sg9
S'-'
sg11
S'Grantham'
p3078
sg13
S'Flipboard'
p3079
sg15
S'Confirmed'
p3080
sg17
S''
sg19
I214103
sg20
g21
(g22
g23
Vkathrynb1
tRp3081
(dp3082
g26
Nsg27
I00
sbsg28
g29
(S'\x07\xde\x07\x1e\x10\x16\t\x03\r@'
tRp3083
sg31
I71665626
sg32
g21
(g22
g23
Vkathrynb1
tRp3084
(dp3085
g26
Nsg27
I00
sbsg35
g29
(S'\x07\xde\x07\x1e\x10\x134\x05\x14\xc8'
tRp3086
sg37
I2
sg38
S'lgrantham@flipboard.com'
p3087
sa(dp3088
g3
Nsg4
I00
sg5
S'GHC 2014 Silver Industry Sponsor '
p3089
sg7
S'Kirsten'
p3090
sg9
S'-'
sg11
S'Davidson'
p3091
sg13
S'Visa'
p3092
sg15
S'Confirmed'
p3093
sg17
S'pvogt@visa.com'
p3094
sg19
I214102
sg20
g21
(g22
g23
Vkathrynb1
tRp3095
(dp3096
g26
Nsg27
I00
sbsg28
g29
(S'\x07\xde\x07\x1e\x10\x1c4\nT\x88'
tRp3097
sg31
I71665836
sg32
g21
(g22
g23
Vkathrynb1
tRp3098
(dp3099
g26
Nsg27
I00
sbsg35
g29
(S'\x07\xde\x07\x1e\x10\x1c\x02\x03\x8e('
tRp3100
sg37
I2
sg38
S'kdavidso@visa.com'
p3101
sa(dp3102
g3
Nsg4
I00
sg5
S'GHC 2014 Bronze Industry Sponsor'
p3103
sg7
S'Betsy'
p3104
sg9
S'-'
sg11
S'Waliszewski'
p3105
sg13
S"O'Reilly Media"
p3106
sg15
S'Confirmed'
p3107
sg17
S''
sg19
I214103
sg20
g21
(g22
g23
Vkathrynb1
tRp3108
(dp3109
g26
Nsg27
I00
sbsg28
g29
(S'\x07\xde\x08\x0b\x11\x0b\x11\x02\x17('
tRp3110
sg31
I72037306
sg32
g21
(g22
g23
Vkathrynb1
tRp3111
(dp3112
g26
Nsg27
I00
sbsg35
g29
(S'\x07\xde\x08\x0b\x11\n\x04\r\xbb\xa0'
tRp3113
sg37
I2
sg38
S'betsy@oreilly.com'
p3114
sa(dp3115
g3
Nsg4
I00
sg5
S'Additional Sponsorship Opportunities'
p3116
sg7
S'Jane '
p3117
sg9
S'-'
sg11
S'Galli'
p3118
sg13
S'Oracle'
p3119
sg15
S'Confirmed'
p3120
sg17
S''
sg19
I214301
sg20
g21
(g22
g23
Vkathrynb1
tRp3121
(dp3122
g26
Nsg27
I00
sbsg28
g29
(S'\x07\xde\x08\x0c\x13\x03\x0b\x07\x04\xe0'
tRp3123
sg31
I72080352
sg32
g21
(g22
g23
Vkathrynb1
tRp3124
(dp3125
g26
Nsg27
I00
sbsg35
g29
(S'\x07\xde\x08\x0c\x13\x01#\x0c\\\x10'
tRp3126
sg37
I2
sg38
S'jane.galli@oracle.com'
p3127
sa(dp3128
g3
Nsg4
I00
sg5
S'GHC 2014 Bronze Industry Sponsor'
p3129
sg7
S'Robin'
p3130
sg9
S'-'
sg11
S'Kusnick'
p3131
sg13
S'SAP'
p3132
sg15
S'Confirmed'
p3133
sg17
S''
sg19
I214103
sg20
g21
(g22
g23
Vkathrynb1
tRp3134
(dp3135
g26
Nsg27
I00
sbsg28
g29
(S'\x07\xde\x08\r\x0f45\x0b\xf2\x98'
tRp3136
sg31
I72148497
sg32
g21
(g22
g23
Vkathrynb1
tRp3137
(dp3138
g26
Nsg27
I00
sbsg35
g29
(S'\x07\xde\x08\r\x0b-6\x01\xad\xb0'
tRp3139
sg37
I2
sg38
S'robin.kusnick@sap.com'
p3140
sa(dp3141
g3
Nsg4
I00
sg5
S'GHC 2014 Silver Academic, National Lab & NonProfit Sponsor'
p3142
sg7
S'Jennifer'
p3143
sg9
S'Associate Chair for Undergraduate Studies and Outreach Activities, Associate Professor'
p3144
sg11
S'Leopold'
p3145
sg13
S'Missouri University of S&T'
p3146
sg15
S'Confirmed'
p3147
sg17
S''
sg19
I214105
sg20
g21
(g22
g23
Vkathrynb1
tRp3148
(dp3149
g26
Nsg27
I00
sbsg28
g29
(S'\x07\xde\x08\r\x0f#\x18\x05\xf3p'
tRp3150
sg31
I72148960
sg32
g21
(g22
g23
Vtinapratt
tRp3151
(dp3152
g26
Nsg27
I00
sbsg35
g29
(S'\x07\xde\x08\r\x0b74\x01\xf0\x18'
tRp3153
sg37
I2
sg38
S'leopoldj@mst.edu'
p3154
sa(dp3155
g3
Nsg4
I00
sg5
S'GHC 2014 Silver Industry Sponsor '
p3156
sg7
S'Lisa'
p3157
sg9
S'-'
sg11
S'Rebarchek-Wodtke'
p3158
sg13
S'Target Corporation'
p3159
sg15
S'Confirmed'
p3160
sg17
S''
sg19
I214102
sg20
g21
(g22
g23
Vkathrynb1
tRp3161
(dp3162
g26
Nsg27
I00
sbsg28
g29
(S'\x07\xde\x08\r\x0f\x1c"\x00Bh'
tRp3163
sg31
I72158747
sg32
g21
(g22
g23
Vkathrynb1
tRp3164
(dp3165
g26
Nsg27
I00
sbsg35
g29
(S'\x07\xde\x08\r\x0f\x1a(\x04:\x08'
tRp3166
sg37
I2
sg38
S'Lisa.Rebarchek-Wodtke@target.com'
p3167
sa(dp3168
g3
Nsg4
I00
sg5
S'Additional Sponsorship Opportunities'
p3169
sg7
S'Christy'
p3170
sg9
S'-'
sg11
S'Albright'
p3171
sg13
S'Tagged'
p3172
sg15
S'Confirmed'
p3173
sg17
S''
sg19
I214301
sg20
g21
(g22
g23
Vkathrynb1
tRp3174
(dp3175
g26
Nsg27
I00
sbsg28
g29
(S'\x07\xde\x08\r\x17\x1b)\x0e0\xd0'
tRp3176
sg31
I72167808
sg32
g21
(g22
g23
Vkathrynb1
tRp3177
(dp3178
g26
Nsg27
I00
sbsg35
g29
(S'\x07\xde\x08\r\x17\x18$\r+\x18'
tRp3179
sg37
I2
sg38
S'calbright@tagged.com'
p3180
sa(dp3181
g3
Nsg4
I00
sg5
S'GHC 2014 Bronze Academic, National Lab & NonProfit Sponsor'
p3182
sg7
S'Melanie'
p3183
sg9
S'Outreach Manager'
p3184
sg11
S'Larsen'
p3185
sg13
S'Harvard SPH, CCDD'
p3186
sg15
S'Confirmed'
p3187
sg17
S''
sg19
I214106
sg20
g21
(g22
g23
Vkathrynb1
tRp3188
(dp3189
g26
Nsg27
I00
sbsg28
g29
(S'\x07\xde\x08\x16\n)!\x08\xd9\xa0'
tRp3190
sg31
I72188628
sg32
g21
(g22
g23
Vtinapratt
tRp3191
(dp3192
g26
Nsg27
I00
sbsg35
g29
(S'\x07\xde\x08\x0e\x0c\x16\x1b\t\x00\xb0'
tRp3193
sg37
I2
sg38
S'malarsen@hsph.harvard.edu'
p3194
sa(dp3195
g3
Nsg4
I00
sg5
S'GHC 2014 Bronze Academic, National Lab & NonProfit Sponsor'
p3196
sg7
S'Eleni'
p3197
sg9
S'Professor'
p3198
sg11
S'Stroulia'
p3199
sg13
S'University of Alberta - Canada'
p3200
sg15
S'Confirmed'
p3201
sg17
S'mario.nascimento@ualberta.ca'
p3202
sg19
I214106
sg20
g21
(g22
g23
Vkathrynb1
tRp3203
(dp3204
g26
Nsg27
I00
sbsg28
g29
(S'\x07\xde\x08\x15\x0e\x03\x18\x07\xbcx'
tRp3205
sg31
I72201397
sg32
g21
(g22
g23
Vtinapratt
tRp3206
(dp3207
g26
Nsg27
I00
sbsg35
g29
(S'\x07\xde\x08\x0e\x12\x0b\x05\x02\xbf '
tRp3208
sg37
I2
sg38
S'stroulia@cs.ualberta.ca'
p3209
sa(dp3210
g3
Nsg4
I00
sg5
S'Enterprise Packages, Partners Only'
p3211
sg7
S'Brian'
p3212
sg9
S'Sr. VP & CTO'
p3213
sg11
S'Pawlowski'
p3214
sg13
S'NetApp, Inc.'
p3215
sg15
S'Confirmed'
p3216
sg17
S''
sg19
I218908
sg20
g21
(g22
g23
Vkathrynb1
tRp3217
(dp3218
g26
Nsg27
I00
sbsg28
g29
(S'\x07\xde\x08\x0f\x12\r\x14\x04\xaf8'
tRp3219
sg31
I72241962
sg32
g21
(g22
g23
Vkathrynb1
tRp3220
(dp3221
g26
Nsg27
I00
sbsg35
g29
(S'\x07\xde\x08\x0f\x12\x0b0\x01\x86\xa0'
tRp3222
sg37
I2
sg38
S'Brian.Pawlowski@netapp.com'
p3223
sa(dp3224
g3
Nsg4
I00
sg5
S'Additional Sponsorship Opportunities'
p3225
sg7
S'Melanie'
p3226
sg9
S'-'
sg11
S'Lahti'
p3227
sg13
S'D. E. Shaw Research'
p3228
sg15
S'Confirmed'
p3229
sg17
S''
sg19
I214301
sg20
g21
(g22
g23
Vkathrynb1
tRp3230
(dp3231
g26
Nsg27
I00
sbsg28
g29
(S'\x07\xde\x08\x13\x14.\x1b\x06h\xa0'
tRp3232
sg31
I72420322
sg32
g21
(g22
g23
Vkathrynb1
tRp3233
(dp3234
g26
Nsg27
I00
sbsg35
g29
(S'\x07\xde\x08\x13\x14.\x1b\x03[`'
tRp3235
sg37
I2
sg38
S'Melanie.Lahti@DEShawResearch.com'
p3236
sa(dp3237
g3
Nsg4
I00
sg5
S'Additional Sponsorship Opportunities'
p3238
sg7
S'John'
p3239
sg9
S'-'
sg11
S'Hardy'
p3240
sg13
S'Best Buy'
p3241
sg15
S'Confirmed'
p3242
sg17
S''
sg19
I214301
sg20
g21
(g22
g23
Vkathrynb1
tRp3243
(dp3244
g26
Nsg27
I00
sbsg28
g29
(S'\x07\xde\x08\x1d\x11&0\x06\xd2\x18'
tRp3245
sg31
I72824595
sg32
g21
(g22
g23
Vkathrynb1
tRp3246
(dp3247
g26
Nsg27
I00
sbsg35
g29
(S'\x07\xde\x08\x1d\x11$\x15\x04\xe2\x00'
tRp3248
sg37
I2
sg38
S'John.Hardy@bestbuy.com'
p3249
sa(dp3250
g3
Nsg4
I00
sg5
S'Additional Sponsorship Opportunities'
p3251
sg7
S'Muna'
p3252
sg9
S'Sr Mgr, Diversity & Inclusion'
p3253
sg11
S'Hussaini'
p3254
sg13
S'PayPal'
p3255
sg15
S'Confirmed'
p3256
sg17
S''
sg19
I214301
sg20
g21
(g22
g23
Vkathrynb1
tRp3257
(dp3258
g26
Nsg27
I00
sbsg28
g29
(S'\x07\xde\x08\x1d\x11((\x0c\x8e\xd8'
tRp3259
sg31
I72824644
sg32
g21
(g22
g23
Vkathrynb1
tRp3260
(dp3261
g26
Nsg27
I00
sbsg35
g29
(S'\x07\xde\x08\x1d\x11&\x15\x0b\xcb\x88'
tRp3262
sg37
I2
sg38
S'mhussaini@paypal.com'
p3263
sa(dp3264
g3
Nsg4
I00
sg5
S'Additional Sponsorship Opportunities'
p3265
sg7
S'Keri'
p3266
sg9
S'Recruiting Operations'
p3267
sg11
S'Smith'
p3268
sg13
S'NetSuite'
p3269
sg15
S'Confirmed'
p3270
sg17
S''
sg19
I214301
sg20
g21
(g22
g23
Vkathrynb1
tRp3271
(dp3272
g26
Nsg27
I00
sbsg28
g29
(S'\x07\xde\x08\x1d\x113\x02\n\xc9\xb8'
tRp3273
sg31
I72824733
sg32
g21
(g22
g23
Vkathrynb1
tRp3274
(dp3275
g26
Nsg27
I00
sbsg35
g29
(S'\x07\xde\x08\x1d\x11-\x1a\ra\xc8'
tRp3276
sg37
I2
sg38
S'kerismith@netsuite.com'
p3277
sa(dp3278
g3
Nsg4
I00
sg5
S'Additional Sponsorship Opportunities'
p3279
sg7
S'Kimberly'
p3280
sg9
S'Senior Program Director'
p3281
sg11
S'Mathern'
p3282
sg13
S'Qatar Computing Research Institute'
p3283
sg15
S'Confirmed'
p3284
sg17
S''
sg19
I214301
sg20
g21
(g22
g23
Vkathrynb1
tRp3285
(dp3286
g26
Nsg27
I00
sbsg28
g29
(S'\x07\xde\t\x03\x0f\x192\x04\x93\xe0'
tRp3287
sg31
I72995894
sg32
g21
(g22
g23
Vkathrynb1
tRp3288
(dp3289
g26
Nsg27
I00
sbsg35
g29
(S'\x07\xde\t\x03\x0f\x15/\x02\xf1\xe8'
tRp3290
sg37
I2
sg38
S'kmathern@qf.org.qa'
p3291
sa(dp3292
g3
Nsg4
I00
sg5
S'GHC 2014 Bronze Industry Sponsor'
p3293
sg7
S'Penny'
p3294
sg9
S'-'
sg11
S'Destache'
p3295
sg13
S'3M'
p3296
sg15
S'Confirmed'
p3297
sg17
S''
sg19
I214103
sg20
g21
(g22
g23
Vkathrynb1
tRp3298
(dp3299
g26
Nsg27
I00
sbsg28
g29
(S'\x07\xde\t\x08\t\x18"\x05W0'
tRp3300
sg31
I73163074
sg32
g21
(g22
g23
Vkathrynb1
tRp3301
(dp3302
g26
Nsg27
I00
sbsg35
g29
(S'\x07\xde\t\x08\t\x17\x15\x08\x7f\xc8'
tRp3303
sg37
I2
sg38
S'pldestache@mmm.com'
p3304
sa(dp3305
g3
Nsg4
I00
sg5
S'Additional Sponsorship Opportunities'
p3306
sg7
S'Sabrina'
p3307
sg9
S'-'
sg11
S'Bektesevic'
p3308
sg13
S'Google'
p3309
sg15
S'Confirmed'
p3310
sg17
S'rhundley@google.com'
p3311
sg19
I214301
sg20
g21
(g22
g23
Vkathrynb1
tRp3312
(dp3313
g26
Nsg27
I00
sbsg28
g29
(S'\x07\xde\t\n\x0f+\x1e\nk\xf8'
tRp3314
sg31
I73294093
sg32
g21
(g22
g23
Vkathrynb1
tRp3315
(dp3316
g26
Nsg27
I00
sbsg35
g29
(S'\x07\xde\t\n\x0f)\x17\x0bq\xb0'
tRp3317
sg37
I2
sg38
S'bektesevic@google.com'
p3318
sa(dp3319
g3
Nsg4
I00
sg5
S'Additional Sponsorship Opportunities'
p3320
sg7
S'Vu'
p3321
sg9
S'-'
sg11
S'Nguyen'
p3322
sg13
S'Samsung'
p3323
sg15
S'Confirmed'
p3324
sg17
S''
sg19
I214301
sg20
g21
(g22
g23
Vkathrynb1
tRp3325
(dp3326
g26
Nsg27
I00
sbsg28
g29
(S'\x07\xde\t\x0c\n\x1a\x16\x04E\xc0'
tRp3327
sg31
I73379139
sg32
g21
(g22
g23
Vkathrynb1
tRp3328
(dp3329
g26
Nsg27
I00
sbsg35
g29
(S'\x07\xde\t\x0c\n\x06:\x02\x8cX'
tRp3330
sg37
I2
sg38
S'vu.nguyen1@partner.samsung.com'
p3331
sa(dp3332
g3
Nsg4
I00
sg5
S'Additional Sponsorship Opportunities'
p3333
sg7
S'Vanessa'
p3334
sg9
S'Sr Manager, Product Development'
p3335
sg11
S'Harris'
p3336
sg13
S'Viacom'
p3337
sg15
S'Confirmed'
p3338
sg17
S''
sg19
I214301
sg20
g21
(g22
g23
Vkathrynb1
tRp3339
(dp3340
g26
Nsg27
I00
sbsg28
g29
(S'\x07\xde\t\x0c\x0e\x1d$\x0e\x15x'
tRp3341
sg31
I73393588
sg32
g21
(g22
g23
Vkathrynb1
tRp3342
(dp3343
g26
Nsg27
I00
sbsg35
g29
(S'\x07\xde\t\x0c\x0e\x02\x16\x0e\xe8h'
tRp3344
sg37
I2
sg38
S''
sa(dp3345
g3
Nsg4
I00
sg5
S'Additional Sponsorship Opportunities'
p3346
sg7
S'Jay'
p3347
sg9
S'-'
sg11
S'Sharma'
p3348
sg13
S'Facebook'
p3349
sg15
S'Confirmed'
p3350
sg17
S''
sg19
I214301
sg20
g21
(g22
g23
Vkathrynb1
tRp3351
(dp3352
g26
Nsg27
I00
sbsg28
g29
(S'\x07\xde\t\x1d\x0b\t\x1d\x050 '
tRp3353
sg31
I74066793
sg32
g21
(g22
g23
Vkathrynb1
tRp3354
(dp3355
g26
Nsg27
I00
sbsg35
g29
(S'\x07\xde\t\x1d\x0b\x08\x0c\x0f6\x88'
tRp3356
sg37
I2
sg38
S'jaysharma@fb.com'
p3357
sa.