(lp1
(dp2
S'CancelDate'
p3
NsS'IsSubstitute'
p4
I00
sS'RegistrationType'
p5
S'GHC 2014 Silver Industry Sponsor '
p6
sS'FirstName'
p7
S'Christina'
p8
sS'Title'
p9
S'Recruiting Director'
p10
sS'LastName'
p11
S'Guilbault'
p12
sS'Company'
p13
S'EMC'
p14
sS'ModDate'
p15
cdatetime
datetime
p16
(S'\x07\xde\x06\x17\x12\x13\x02\x00\x1bX'
tRp17
sS'StatusID'
p18
I2
sS'StatusDescription'
p19
S'Confirmed'
p20
sS'RegTypeID'
p21
I214102
sS'CCEmail'
p22
S'katie.swank@emc.com'
p23
sS'ID'
p24
I64544505
sS'AddBy'
p25
ccopy_reg
_reconstructor
p26
(csuds.sax.text
Text
p27
c__builtin__
unicode
p28
VAttendee
tRp29
(dp30
S'lang'
p31
NsS'escaped'
p32
I00
sbsS'AddDate'
p33
g16
(S'\x07\xde\x01\x1b\x0c7 \x06\xab\x08'
tRp34
sS'Email'
p35
S'emc@nc3.com'
p36
sS'ModBy'
p37
g26
(g27
g28
Vkathrynb1
tRp38
(dp39
g31
Nsg32
I00
sbsa(dp40
g3
Nsg4
I00
sg5
S'GHC 2014 Silver Industry Sponsor '
p41
sg7
S'Mia'
p42
sg9
S'Inclusion & Diversity Recruitment Channel Expert'
p43
sg11
S'Ferolito'
p44
sg13
S'Accenture'
p45
sg15
g16
(S"\x07\xde\x06\t\x0e('\x07\x10\x98"
tRp46
sg18
I2
sg19
S'Confirmed'
p47
sg21
I214102
sg22
S'casey.christensen@accenture.com'
p48
sg24
I64588849
sg25
g26
(g27
g28
VAttendee
tRp49
(dp50
g31
Nsg32
I00
sbsg33
g16
(S'\x07\xde\x01\x1c\x0b $\x07 8'
tRp51
sg35
S'mia.ferolito@accenture.com'
p52
sg37
g26
(g27
g28
Vjohnsoja
tRp53
(dp54
g31
Nsg32
I00
sbsa(dp55
g3
Nsg4
I00
sg5
S'GHC 2014 Bronze Industry Sponsor'
p56
sg7
S'Caitlin'
p57
sg9
S'Recruiter'
p58
sg11
S'Maynard'
p59
sg13
S'Jane Street'
p60
sg15
g16
(S'\x07\xde\x06\x07\x0f/\x11\n\xe1('
tRp61
sg18
I2
sg19
S'Confirmed'
p62
sg21
I214103
sg22
S'hr@janestreet.com'
p63
sg24
I64589097
sg25
g26
(g27
g28
VAttendee
tRp64
(dp65
g31
Nsg32
I00
sbsg33
g16
(S'\x07\xde\x01\x1c\x0b\x1c/\nD\xe8'
tRp66
sg35
S'cmaynard@janestreet.com'
p67
sg37
g26
(g27
g28
VSystem Process
tRp68
(dp69
g31
Nsg32
I00
sbsa(dp70
g3
Nsg4
I00
sg5
S'GHC 2014 Gold Industry Sponsor'
p71
sg7
S'Katie'
p72
sg9
S'Recruiting Events Specialist'
p73
sg11
S"O'Rourke"
p74
sg13
S'Palantir Technologies'
p75
sg15
g16
(S'\x07\xde\x06\x12\x0e\x13*\x077\xa8'
tRp76
sg18
I2
sg19
S'Confirmed'
p77
sg21
I214101
sg22
S'bjensen@palantir.com'
p78
sg24
I64747828
sg25
g26
(g27
g28
VAttendee
tRp79
(dp80
g31
Nsg32
I00
sbsg33
g16
(S'\x07\xde\x01\x1f\x10%7\x02\xf1\xe8'
tRp81
sg35
S'katieo@palantir.com'
p82
sg37
g26
(g27
g28
Vkathrynb1
tRp83
(dp84
g31
Nsg32
I00
sbsa(dp85
g3
Nsg4
I01
sg5
S'GHC 2014 Silver Industry Sponsor '
p86
sg7
S'Kathryn'
p87
sg9
S'R&D Recruiting Coordinator'
p88
sg11
S'Flores'
p89
sg13
S'Bloomberg'
p90
sg15
g16
(S'\x07\xde\t\x05\x11)\x02\x0c\r\xf0'
tRp91
sg18
I2
sg19
S'Confirmed'
p92
sg21
I214102
sg22
S''
sg24
I64752006
sg25
g26
(g27
g28
VAttendee
tRp93
(dp94
g31
Nsg32
I00
sbsg33
g16
(S'\x07\xde\x01\x1f\x11\x17-\n\xba\x18'
tRp95
sg35
S'kflores6@bloomberg.net'
p96
sg37
g26
(g27
g28
Vkathrynb1
tRp97
(dp98
g31
Nsg32
I00
sbsa(dp99
g3
Nsg4
I00
sg5
S'GHC 2014 Platinum Sponsor (available to ABI Partners Only)'
p100
sg7
S'Nicole'
p101
sg9
S'Sr. Project Manager'
p102
sg11
S'Hansen'
p103
sg13
S'Thomson Reuters '
p104
sg15
g16
(S'\x07\xde\x07\x07\x12\x0e\x13\x03\x01\x88'
tRp105
sg18
I2
sg19
S'Confirmed'
p106
sg21
I214100
sg22
S''
sg24
I64761478
sg25
g26
(g27
g28
Vjohnsoja
tRp107
(dp108
g31
Nsg32
I00
sbsg33
g16
(S'\x07\xde\x02\x01\x06;6\r\xaf\xe8'
tRp109
sg35
S'nicole.m.hansen@thomsonreuters.com'
p110
sg37
g26
(g27
g28
Vkathrynb1
tRp111
(dp112
g31
Nsg32
I00
sbsa(dp113
g3
Nsg4
I00
sg5
S'GHC 2014 Platinum Sponsor (available to ABI Partners Only)'
p114
sg7
S'Cindy'
p115
sg9
S'Contact'
p116
sg11
S'Stanphill'
p117
sg13
S'Hewlett Packard'
p118
sg15
g16
(S'\x07\xde\x08\x0b\x0e0\x15\x07\x85\xc8'
tRp119
sg18
I2
sg19
S'Confirmed'
p120
sg21
I214100
sg22
S'loren.arrieta@hp.com'
p121
sg24
I64761796
sg25
g26
(g27
g28
Vjohnsoja
tRp122
(dp123
g31
Nsg32
I00
sbsg33
g16
(S'\x07\xde\x02\x01\x07()\x01\x1d('
tRp124
sg35
S'cindy.stanphill@hp.com '
p125
sg37
g26
(g27
g28
Vkathrynb1
tRp126
(dp127
g31
Nsg32
I00
sbsa(dp128
g3
Nsg4
I01
sg5
S'GHC 2014 Silver Industry Sponsor '
p129
sg7
S'Jennifer'
p130
sg9
S'Manager-Recruiting Operations'
p131
sg11
S'Ross'
p132
sg13
S'GE'
p133
sg15
g16
(S'\x07\xde\x06\t\x0e.,\x04\x88('
tRp134
sg18
I2
sg19
S'Confirmed'
p135
sg21
I214102
sg22
S''
sg24
I64762340
sg25
g26
(g27
g28
Vjohnsoja
tRp136
(dp137
g31
Nsg32
I00
sbsg33
g16
(S'\x07\xde\x02\x01\x08\x01 \x00Y\xd8'
tRp138
sg35
S'Jennifer.L.Ross@ge.com'
p139
sg37
g26
(g27
g28
Vjohnsoja
tRp140
(dp141
g31
Nsg32
I00
sbsa(dp142
g3
Nsg4
I00
sg5
S'GHC 2014 Silver Industry Sponsor '
p143
sg7
S'Elizabeth'
p144
sg9
S'Project Manager, Workforce Diversity & Inclusion'
p145
sg11
S'Maggio'
p146
sg13
S'Comcast'
p147
sg15
g16
(S'\x07\xde\x06\t\x0e+\x07\n\xa2\xa8'
tRp148
sg18
I2
sg19
S'Confirmed'
p149
sg21
I214102
sg22
S''
sg24
I64762477
sg25
g26
(g27
g28
Vjohnsoja
tRp150
(dp151
g31
Nsg32
I00
sbsg33
g16
(S'\x07\xde\x02\x01\x08\t\x1b\x04*h'
tRp152
sg35
S'elizabeth.maggio@cable.comcast.com'
p153
sg37
g26
(g27
g28
Vjohnsoja
tRp154
(dp155
g31
Nsg32
I00
sbsa(dp156
g3
Nsg4
I00
sg5
S'GHC 2014 Platinum Sponsor (available to ABI Partners Only)'
p157
sg7
S'Jeannie'
p158
sg9
S'Talend Acquisition Diversity Program Manager'
p159
sg11
S'LaDriere'
p160
sg13
S'Cisco Systems'
p161
sg15
g16
(S'\x07\xde\x08\x08\r$%\x00u0'
tRp162
sg18
I2
sg19
S'Confirmed'
p163
sg21
I214100
sg22
S''
sg24
I64762664
sg25
g26
(g27
g28
Vjohnsoja
tRp164
(dp165
g31
Nsg32
I00
sbsg33
g16
(S'\x07\xde\x02\x01\x08 \x0e\x02\x98\x10'
tRp166
sg35
S'jladrier@cisco.com'
p167
sg37
g26
(g27
g28
Vkathrynb1
tRp168
(dp169
g31
Nsg32
I00
sbsa(dp170
g3
Nsg4
I00
sg5
S'Additional Sponsorship Opportunities'
p171
sg7
S'Michele'
p172
sg9
S'contact'
p173
sg11
S'Ellis'
p174
sg13
S'ESPN'
p175
sg15
g16
(S'\x07\xde\x08\x14\x0b\x1a\x18\x08\xb2\x90'
tRp176
sg18
I2
sg19
S'Confirmed'
p177
sg21
I214301
sg22
S'jill.brahm@espn.com'
p178
sg24
I64762913
sg25
g26
(g27
g28
Vjohnsoja
tRp179
(dp180
g31
Nsg32
I00
sbsg33
g16
(S'\x07\xde\x02\x01\x08*\x18\x05\xb1\x08'
tRp181
sg35
S'michele.ellis@espn.com'
p182
sg37
g26
(g27
g28
Vkathrynb1
tRp183
(dp184
g31
Nsg32
I00
sbsa(dp185
g3
Nsg4
I00
sg5
S'GHC 2014 Platinum Sponsor (available to ABI Partners Only)'
p186
sg7
S'Felicia'
p187
sg9
S'Contact'
p188
sg11
S'Mayo'
p189
sg13
S'Juniper Networks'
p190
sg15
g16
(S"\x07\xde\x07\x11\x0e'5\x0b/H"
tRp191
sg18
I2
sg19
S'Confirmed'
p192
sg21
I214100
sg22
S'bcureton@juniper.net'
p193
sg24
I64763043
sg25
g26
(g27
g28
Vjohnsoja
tRp194
(dp195
g31
Nsg32
I00
sbsg33
g16
(S'\x07\xde\x02\x01\x0884\x07\xc80'
tRp196
sg35
S'fmayo@juniper.net'
p197
sg37
g26
(g27
g28
Vkathrynb1
tRp198
(dp199
g31
Nsg32
I00
sbsa(dp200
g3
Nsg4
I00
sg5
S'GHC 2014 Bronze Industry Sponsor'
p201
sg7
S'Angeline'
p202
sg9
S'Human Resources'
p203
sg11
S'Mozer'
p204
sg13
S'Gemalto'
p205
sg15
g16
(S'\x07\xde\x06\x07\x0f03\x01,\xc8'
tRp206
sg18
I2
sg19
S'Confirmed'
p207
sg21
I214103
sg22
S''
sg24
I64843515
sg25
g26
(g27
g28
VAttendee
tRp208
(dp209
g31
Nsg32
I00
sbsg33
g16
(S'\x07\xde\x02\x03\x10\x0e6\x02|\xb8'
tRp210
sg35
S'angeline.mozer@gemalto.com'
p211
sg37
g26
(g27
g28
VSystem Process
tRp212
(dp213
g31
Nsg32
I00
sbsa(dp214
g3
Nsg4
I00
sg5
S'GHC 2014 Bronze Industry Sponsor'
p215
sg7
S'Daniela'
p216
sg9
S'Recruiting'
p217
sg11
S'Amodei'
p218
sg13
S'Stripe'
p219
sg15
g16
(S'\x07\xde\x06\x11\x12\x1e(\x06\x83\xf8'
tRp220
sg18
I2
sg19
S'Confirmed'
p221
sg21
I214103
sg22
S'daniela@stripe.com, kat@stripe.com'
p222
sg24
I64891878
sg25
g26
(g27
g28
VAttendee
tRp223
(dp224
g31
Nsg32
I00
sbsg33
g16
(S'\x07\xde\x02\x04\x0f\x1a8\x0c\xec\x98'
tRp225
sg35
S'recruiting-bots@stripe.com'
p226
sg37
g26
(g27
g28
VSystem Process
tRp227
(dp228
g31
Nsg32
I00
sbsa(dp229
g3
Nsg4
I00
sg5
S'GHC 2014 Bronze Industry Sponsor'
p230
sg7
S'Grace'
p231
sg9
S'Lead Technical Recruiter'
p232
sg11
S"O'Loan"
p233
sg13
S'Spiceworks'
p234
sg15
g16
(S'\x07\xde\x06\x1a\x0e8/\x07z\x10'
tRp235
sg18
I2
sg19
S'Confirmed'
p236
sg21
I214103
sg22
S'elisal@spiceworks.com'
p237
sg24
I64979810
sg25
g26
(g27
g28
VAttendee
tRp238
(dp239
g31
Nsg32
I00
sbsg33
g16
(S'\x07\xde\x02\x06\n 3\x04l\xd0'
tRp240
sg35
S'graceo@spiceworks.com'
p241
sg37
g26
(g27
g28
VSystem Process
tRp242
(dp243
g31
Nsg32
I00
sbsa(dp244
g3
Nsg4
I00
sg5
S'GHC 2014 Bronze Industry Sponsor'
p245
sg7
S'James'
p246
sg9
S'Associate'
p247
sg11
S'LaVigne'
p248
sg13
S'The D. E. Shaw Group'
p249
sg15
g16
(S'\x07\xde\x08\x0b\n\x085\x06\xd2\x18'
tRp250
sg18
I2
sg19
S'Confirmed'
p251
sg21
I214103
sg22
S''
sg24
I64985683
sg25
g26
(g27
g28
VAttendee
tRp252
(dp253
g31
Nsg32
I00
sbsg33
g16
(S'\x07\xde\x02\x06\x0c\x1b\r\ra\xc8'
tRp254
sg35
S'lavigne@deshaw.com'
p255
sg37
g26
(g27
g28
VSystem Process
tRp256
(dp257
g31
Nsg32
I00
sbsa(dp258
g3
Nsg4
I00
sg5
S'GHC 2014 Bronze Industry Sponsor'
p259
sg7
S'Kym'
p260
sg9
S'Human Capital Analyst'
p261
sg11
S'Lee'
p262
sg13
S'Sequoia Capital'
p263
sg15
g16
(S'\x07\xde\x07\x03\n\x0e$\x081\xa8'
tRp264
sg18
I2
sg19
S'Confirmed'
p265
sg21
I214103
sg22
S'kymyclee@gmail.com'
p266
sg24
I65131160
sg25
g26
(g27
g28
VAttendee
tRp267
(dp268
g31
Nsg32
I00
sbsg33
g16
(S'\x07\xde\x02\n\n\x12\r\x08I\x18'
tRp269
sg35
S'kym@sequoiacap.com'
p270
sg37
g26
(g27
g28
VSystem Process
tRp271
(dp272
g31
Nsg32
I00
sbsa(dp273
g3
Nsg4
I00
sg5
S'GHC 2014 Silver Industry Sponsor '
p274
sg7
S'Erin'
p275
sg9
S'Ms.'
p276
sg11
S'Fox'
p277
sg13
S'Goldman, Sachs & Co'
p278
sg15
g16
(S'\x07\xde\x06\x19\x11\t\x1a\x05\xcc`'
tRp279
sg18
I2
sg19
S'Confirmed'
p280
sg21
I214102
sg22
S''
sg24
I65226380
sg25
g26
(g27
g28
VAttendee
tRp281
(dp282
g31
Nsg32
I00
sbsg33
g16
(S'\x07\xde\x02\x0b\r5\x01\x0b#\x90'
tRp283
sg35
S'erin.fox@gs.com'
p284
sg37
g26
(g27
g28
VSystem Process
tRp285
(dp286
g31
Nsg32
I00
sbsa(dp287
g3
Nsg4
I00
sg5
S'GHC 2014 Bronze Industry Sponsor'
p288
sg7
S'Courtenay'
p289
sg9
S'Marketing and Event Coordinator'
p290
sg11
S'Pope'
p291
sg13
S'The Linux Foundation'
p292
sg15
g16
(S'\x07\xde\x08\x16\n\x0f\x0b\x02\x98\x10'
tRp293
sg18
I2
sg19
S'Confirmed'
p294
sg21
I214103
sg22
S'angela@linuxfoundation.org'
p295
sg24
I65230012
sg25
g26
(g27
g28
VAttendee
tRp296
(dp297
g31
Nsg32
I00
sbsg33
g16
(S'\x07\xde\x02\x0b\x0e"\x1c\x03@\x08'
tRp298
sg35
S'cpope@linuxfoundation.org'
p299
sg37
g26
(g27
g28
Vkathrynb1
tRp300
(dp301
g31
Nsg32
I00
sbsa(dp302
g3
Nsg4
I00
sg5
S'GHC 2014 Platinum Sponsor (available to ABI Partners Only)'
p303
sg7
S'Teresa'
p304
sg9
S'Recruiting Coordinator'
p305
sg11
S'Leija'
p306
sg13
S'LinkedIn'
p307
sg15
g16
(S"\x07\xde\x07\x1c\x0b\x0f'\x03\xa9\x80"
tRp308
sg18
I2
sg19
S'Confirmed'
p309
sg21
I214100
sg22
S''
sg24
I65291098
sg25
g26
(g27
g28
VAttendee
tRp310
(dp311
g31
Nsg32
I00
sbsg33
g16
(S'\x07\xde\x02\x0c\r\x0c\x11\x04*h'
tRp312
sg35
S'tleija@linkedin.com'
p313
sg37
g26
(g27
g28
Vkathrynb1
tRp314
(dp315
g31
Nsg32
I00
sbsa(dp316
g3
Nsg4
I00
sg5
S'GHC 2014 Silver Industry Sponsor '
p317
sg7
S'Molly'
p318
sg9
S'Associate Events Manager'
p319
sg11
S'MacKenzie'
p320
sg13
S'Box'
p321
sg15
g16
(S'\x07\xde\x06\t\x0e)\x1e\x07\xef@'
tRp322
sg18
I2
sg19
S'Confirmed'
p323
sg21
I214102
sg22
S''
sg24
I65352893
sg25
g26
(g27
g28
VAttendee
tRp324
(dp325
g31
Nsg32
I00
sbsg33
g16
(S'\x07\xde\x02\r\x0e6\x03\x02.\x98'
tRp326
sg35
S'mmackenzie@box.com'
p327
sg37
g26
(g27
g28
Vjohnsoja
tRp328
(dp329
g31
Nsg32
I00
sbsa(dp330
g3
Nsg4
I00
sg5
S'GHC 2014 Platinum Sponsor (available to ABI Partners Only)'
p331
sg7
S'Michelle'
p332
sg9
S'contact'
p333
sg11
S'Barrett'
p334
sg13
S'CA Technologies'
p335
sg15
g16
(S"\x07\xde\x06\x10\x0c-'\n`@"
tRp336
sg18
I2
sg19
S'Confirmed'
p337
sg21
I214100
sg22
S''
sg24
I65601449
sg25
g26
(g27
g28
Vjohnsoja
tRp338
(dp339
g31
Nsg32
I00
sbsg33
g16
(S'\x07\xde\x02\x12\r\x0c\x11\x04\xba\xf0'
tRp340
sg35
S'michelle.barrett@ca.com'
p341
sg37
g26
(g27
g28
Vkathrynb1
tRp342
(dp343
g31
Nsg32
I00
sbsa(dp344
g3
Nsg4
I01
sg5
S'GHC 2014 Platinum Sponsor (available to ABI Partners Only)'
p345
sg7
S'LaShanti'
p346
sg9
S'Senior Manager, Talent Acquisition'
p347
sg11
S'Jenkins'
p348
sg13
S'Yahoo!'
p349
sg15
g16
(S'\x07\xde\x07\x12\x12\x0b\x17\n\xe1('
tRp350
sg18
I2
sg19
S'Confirmed'
p351
sg21
I214100
sg22
S'lbailey@yahoo-inc.com'
p352
sg24
I65607626
sg25
g26
(g27
g28
Vjohnsoja
tRp353
(dp354
g31
Nsg32
I00
sbsg33
g16
(S'\x07\xde\x02\x12\x0e3;\n\xfc\x80'
tRp355
sg35
S'ljenkins@yahoo-inc.com'
p356
sg37
g26
(g27
g28
Vkathrynb1
tRp357
(dp358
g31
Nsg32
I00
sbsa(dp359
g3
Nsg4
I00
sg5
S'GHC 2014 Bronze Industry Sponsor'
p360
sg7
S'Melisa'
p361
sg9
S'Campus Recruiter'
p362
sg11
S'Sanchez'
p363
sg13
S'BlackRock'
p364
sg15
g16
(S'\x07\xde\x06\x12\x0e\x0f.\x081\xa8'
tRp365
sg18
I2
sg19
S'Confirmed'
p366
sg21
I214103
sg22
S''
sg24
I65623237
sg25
g26
(g27
g28
VAttendee
tRp367
(dp368
g31
Nsg32
I00
sbsg33
g16
(S'\x07\xde\x02\x12\x16\t \x00\x0b\xb8'
tRp369
sg35
S'melisa.sanchez@blackrock.com'
p370
sg37
g26
(g27
g28
Vkathrynb1
tRp371
(dp372
g31
Nsg32
I00
sbsa(dp373
g3
Nsg4
I00
sg5
S'GHC 2014 Silver Industry Sponsor '
p374
sg7
S'Kathleen'
p375
sg9
S'Project Director, Engineering'
p376
sg11
S'Lincoln'
p377
sg13
S'Via Sat'
p378
sg15
g16
(S'\x07\xde\x08\x03\r\n-\x034P'
tRp379
sg18
I2
sg19
S'Confirmed'
p380
sg21
I214102
sg22
S'Nik.devereaux@viasat.com'
p381
sg24
I65710241
sg25
g26
(g27
g28
VAttendee
tRp382
(dp383
g31
Nsg32
I00
sbsg33
g16
(S'\x07\xde\x02\x14\x0c\x03\x10\x03\x01\x88'
tRp384
sg35
S'kathleen.lincoln@viasat.com'
p385
sg37
g26
(g27
g28
Vjohnsoja
tRp386
(dp387
g31
Nsg32
I00
sbsa(dp388
g3
Nsg4
I01
sg5
S'GHC 2014 Silver Industry Sponsor '
p389
sg7
S'Ashley'
p390
sg9
S'University Relations'
p391
sg11
S'Moniz'
p392
sg13
S'Akamai Technologies'
p393
sg15
g16
(S'\x07\xde\x06\n\x12)\x19\n\xa2\xa8'
tRp394
sg18
I2
sg19
S'Confirmed'
p395
sg21
I214102
sg22
S''
sg24
I65917633
sg25
g26
(g27
g28
VAttendee
tRp396
(dp397
g31
Nsg32
I00
sbsg33
g16
(S'\x07\xde\x02\x19\x10\x10\x18\x00\x0b\xb8'
tRp398
sg35
S'amacri@akamai.com'
p399
sg37
g26
(g27
g28
Vkathrynb1
tRp400
(dp401
g31
Nsg32
I00
sbsa(dp402
g3
Nsg4
I00
sg5
S'GHC 2014 Silver Industry Sponsor '
p403
sg7
S'Rachelli'
p404
sg9
S'Director of Talent Acquisition'
p405
sg11
S'Materum'
p406
sg13
S'Macys.com'
p407
sg15
g16
(S'\x07\xde\x06\x12\x0e"1\x06A\x90'
tRp408
sg18
I2
sg19
S'Confirmed'
p409
sg21
I214102
sg22
S'aileen.burckhardt@macys.com'
p410
sg24
I65975308
sg25
g26
(g27
g28
VAttendee
tRp411
(dp412
g31
Nsg32
I00
sbsg33
g16
(S'\x07\xde\x02\x1a\x10.1\x01\xfb\xd0'
tRp413
sg35
S'rachelli.g.materum@macys.com'
p414
sg37
g26
(g27
g28
Vkathrynb1
tRp415
(dp416
g31
Nsg32
I00
sbsa(dp417
g3
Nsg4
I00
sg5
S'GHC 2014 Gold  Academic, National Lab & NonProfit Sponsor'
p418
sg7
S'Anna'
p419
sg9
S'Human Resources Dept'
p420
sg11
S'Wilbanks'
p421
sg13
S'MIT Lincoln Laboratory'
p422
sg15
g16
(S'\x07\xde\x06\x17\x12\x19)\x07\x10\x98'
tRp423
sg18
I2
sg19
S'Confirmed'
p424
sg21
I214104
sg22
S''
sg24
I66231934
sg25
g26
(g27
g28
VAttendee
tRp425
(dp426
g31
Nsg32
I00
sbsg33
g16
(S'\x07\xde\x03\x04\x0e\x0e\t\x02\xe60'
tRp427
sg35
S'Anna.Wilbanks@ll.mit.edu'
p428
sg37
g26
(g27
g28
Vkathrynb1
tRp429
(dp430
g31
Nsg32
I00
sbsa(dp431
g3
Nsg4
I00
sg5
S'GHC 2014 Bronze Industry Sponsor'
p432
sg7
S'Heidi'
p433
sg9
S'University and Internship Programs'
p434
sg11
S'Newiger'
p435
sg13
S'AppDynamics'
p436
sg15
g16
(S'\x07\xde\x06\x07\x0f1\x1c\x08\x8b\x80'
tRp437
sg18
I2
sg19
S'Confirmed'
p438
sg21
I214103
sg22
S''
sg24
I66350907
sg25
g26
(g27
g28
VAttendee
tRp439
(dp440
g31
Nsg32
I00
sbsg33
g16
(S'\x07\xde\x03\x06\x12\x1e#\rm\x80'
tRp441
sg35
S'heidi@appdynamics.com'
p442
sg37
g26
(g27
g28
VSystem Process
tRp443
(dp444
g31
Nsg32
I00
sbsa(dp445
g3
Nsg4
I01
sg5
S'GHC 2014 Bronze Academic, National Lab & NonProfit Sponsor'
p446
sg7
S'Viveka'
p447
sg9
S'Coordinator of CS Graduate Programs'
p448
sg11
S'Kudaligama'
p449
sg13
S'University of Illinois Urbana-Champaign'
p450
sg15
g16
(S'\x07\xde\x08\x03\x0c6\x1a\x04\x1e\xb0'
tRp451
sg18
I2
sg19
S'Confirmed'
p452
sg21
I214106
sg22
S'krunck@illinois.edu'
p453
sg24
I66519165
sg25
g26
(g27
g28
VAttendee
tRp454
(dp455
g31
Nsg32
I00
sbsg33
g16
(S'\x07\xde\x03\x0b\x07\x152\x0b>\xe8'
tRp456
sg35
S'kudaliga@illinois.edu'
p457
sg37
g26
(g27
g28
VSystem Process
tRp458
(dp459
g31
Nsg32
I00
sbsa(dp460
g3
Nsg4
I00
sg5
S'GHC 2014 Gold Industry Sponsor'
p461
sg7
S'Julie'
p462
sg9
S'Director Assistant'
p463
sg11
S'Golvach'
p464
sg13
S'American Express'
p465
sg15
g16
(S'\x07\xde\x08\x0b\x11\x15 \x04\xe2\x00'
tRp466
sg18
I2
sg19
S'Confirmed'
p467
sg21
I214101
sg22
S'Michiko.Katsuren@aexp.com'
p468
sg24
I66521779
sg25
g26
(g27
g28
VAttendee
tRp469
(dp470
g31
Nsg32
I00
sbsg33
g16
(S'\x07\xde\x03\x0b\x08\t\x01\nk\xf8'
tRp471
sg35
S'Julie.Golvach@aexp.com'
p472
sg37
g26
(g27
g28
VSystem Process
tRp473
(dp474
g31
Nsg32
I00
sbsa(dp475
g3
Nsg4
I00
sg5
S'GHC 2014 Gold  Academic, National Lab & NonProfit Sponsor'
p476
sg7
S'Raymond'
p477
sg9
S"Ass't Director; Graduate Recruitment"
p478
sg11
S'Fujioka'
p479
sg13
S'University of Southern California'
p480
sg15
g16
(S'\x07\xde\x08\x03\x0c7\x1a\x0c)H'
tRp481
sg18
I2
sg19
S'Confirmed'
p482
sg21
I214104
sg22
S'vgrads@usc.edu'
p483
sg24
I66552124
sg25
g26
(g27
g28
VAttendee
tRp484
(dp485
g31
Nsg32
I00
sbsg33
g16
(S'\x07\xde\x03\x0b\x0f1\x00\x0b/H'
tRp486
sg35
S'fujioka@usc.edu'
p487
sg37
g26
(g27
g28
Vjohnsoja
tRp488
(dp489
g31
Nsg32
I00
sbsa(dp490
g3
Nsg4
I00
sg5
S'GHC 2014 Silver Industry Sponsor '
p491
sg7
S'Vanessa'
p492
sg9
S'Talent Programs'
p493
sg11
S'Slavich'
p494
sg13
S'Square'
p495
sg15
g16
(S'\x07\xde\x06\x07\x0f7\x1e\x07 8'
tRp496
sg18
I2
sg19
S'Confirmed'
p497
sg21
I214102
sg22
S''
sg24
I66607960
sg25
g26
(g27
g28
VAttendee
tRp498
(dp499
g31
Nsg32
I00
sbsg33
g16
(S'\x07\xde\x03\x0c\x0f\x12-\x04\x1e\xb0'
tRp500
sg35
S'vanessa@squareup.com'
p501
sg37
g26
(g27
g28
Vjohnsoja
tRp502
(dp503
g31
Nsg32
I00
sbsa(dp504
g3
Nsg4
I00
sg5
S'GHC 2014 Silver Industry Sponsor '
p505
sg7
S'Mark'
p506
sg9
S'Chief Technology Officer'
p507
sg11
S'Bregman'
p508
sg13
S'Neustar'
p509
sg15
g16
(S'\x07\xde\x08\x05\t\x02\x16\x01\x11p'
tRp510
sg18
I2
sg19
S'Confirmed'
p511
sg21
I214102
sg22
S'kristin.swanson@neustar.biz'
p512
sg24
I66615810
sg25
g26
(g27
g28
Vkathrynb1
tRp513
(dp514
g31
Nsg32
I00
sbsg33
g16
(S'\x07\xde\x03\x0c\x13#0\x07\x10\x98'
tRp515
sg35
S'mark.bregman@neustar.biz'
p516
sg37
g26
(g27
g28
Vkathrynb1
tRp517
(dp518
g31
Nsg32
I00
sbsa(dp519
g3
Nsg4
I01
sg5
S'GHC 2014 Silver Industry Sponsor '
p520
sg7
S'Antoine'
p521
sg9
S'Manager, Diversity & Inclusion'
p522
sg11
S'Andrews'
p523
sg13
S'Symantec '
p524
sg15
g16
(S'\x07\xde\x08\x03\r\x05\x1e\x05\xa5P'
tRp525
sg18
I2
sg19
S'Confirmed'
p526
sg21
I214102
sg22
S''
sg24
I66615900
sg25
g26
(g27
g28
Vkathrynb1
tRp527
(dp528
g31
Nsg32
I00
sbsg33
g16
(S'\x07\xde\x03\x0c\x13(\x08\x03[`'
tRp529
sg35
S'Antoine_Andrews@symantec.com'
p530
sg37
g26
(g27
g28
Vjohnsoja
tRp531
(dp532
g31
Nsg32
I00
sbsa(dp533
g3
Nsg4
I00
sg5
S'GHC 2014 Platinum Sponsor (available to ABI Partners Only)'
p534
sg7
S'Dana'
p535
sg9
S"Women's InitiativeProgram Manager"
p536
sg11
S'Vandecoevering'
p537
sg13
S'Intel '
p538
sg15
g16
(S'\x07\xde\t\x0c\x08\x06\x1c\x0b\xbf\xd0'
tRp539
sg18
I2
sg19
S'Confirmed'
p540
sg21
I214100
sg22
S'cristinax.i.serrano@intel.com '
p541
sg24
I66616024
sg25
g26
(g27
g28
Vkathrynb1
tRp542
(dp543
g31
Nsg32
I00
sbsg33
g16
(S'\x07\xde\x03\x0c\x13-2\r:\xb8'
tRp544
sg35
S'dana.vandecoevering@intel.com'
p545
sg37
g26
(g27
g28
Vkathrynb1
tRp546
(dp547
g31
Nsg32
I00
sbsa(dp548
g3
Nsg4
I00
sg5
S'GHC 2014 Bronze Academic, National Lab & NonProfit Sponsor'
p549
sg7
S'Donna'
p550
sg9
S'Project Coordinator'
p551
sg11
S'Cirelli'
p552
sg13
S'Tufts University'
p553
sg15
g16
(S'\x07\xde\x06\x0f\x14\x1c\x15\r\xaf\xe8'
tRp554
sg18
I2
sg19
S'Confirmed'
p555
sg21
I214106
sg22
S''
sg24
I66646485
sg25
g26
(g27
g28
VAttendee
tRp556
(dp557
g31
Nsg32
I00
sbsg33
g16
(S'\x07\xde\x03\r\x0b39\x01\xa1\xf8'
tRp558
sg35
S'dcirelli@cs.tufts.edu'
p559
sg37
g26
(g27
g28
VSystem Process
tRp560
(dp561
g31
Nsg32
I00
sbsa(dp562
g3
Nsg4
I00
sg5
S'GHC 2014 Gold  Academic, National Lab & NonProfit Sponsor'
p563
sg7
S'Peche'
p564
sg9
S'Manager'
p565
sg11
S'Turner'
p566
sg13
S'Stanford Computer Science Department'
p567
sg15
g16
(S'\x07\xde\x08\t\x0f\x17\x1e\x0c\xec\x98'
tRp568
sg18
I2
sg19
S'Confirmed'
p569
sg21
I214104
sg22
S'cmarquez@cs.stanford.edu'
p570
sg24
I66693740
sg25
g26
(g27
g28
VAttendee
tRp571
(dp572
g31
Nsg32
I00
sbsg33
g16
(S'\x07\xde\x03\x0e\n;7\x00\xea`'
tRp573
sg35
S'pturner@stanford.edu'
p574
sg37
g26
(g27
g28
Vtinapratt
tRp575
(dp576
g31
Nsg32
I00
sbsa(dp577
g3
Nsg4
I01
sg5
S'GHC 2014 Silver Academic, National Lab & NonProfit Sponsor'
p578
sg7
S'Olivia'
p579
sg9
S'Director'
p580
sg11
S'Lewis'
p581
sg13
S'Pennsylvania  State University College of IST'
p582
sg15
g16
(S"\x07\xde\x08\x03\r\x03'\x08p("
tRp583
sg18
I2
sg19
S'Confirmed'
p584
sg21
I214105
sg22
S'cbierly@ist.psu.edu'
p585
sg24
I66762209
sg25
g26
(g27
g28
VAttendee
tRp586
(dp587
g31
Nsg32
I00
sbsg33
g16
(S'\x07\xde\x03\x11\x06"\x19\x03\xb58'
tRp588
sg35
S'okl1@psu.edu'
p589
sg37
g26
(g27
g28
Vjohnsoja
tRp590
(dp591
g31
Nsg32
I00
sbsa(dp592
g3
Nsg4
I00
sg5
S'GHC 2014 Silver Academic, National Lab & NonProfit Sponsor'
p593
sg7
S'Rick'
p594
sg9
S'Project Manager'
p595
sg11
S'Horten'
p596
sg13
S'Johns Hopkins University Applied Physics Laboratory'
p597
sg15
g16
(S'\x07\xde\x08\x03\r\x00\x16\x08\x978'
tRp598
sg18
I2
sg19
S'Confirmed'
p599
sg21
I214105
sg22
S'Stacy.Murphy@jhuapl.edu'
p600
sg24
I66786110
sg25
g26
(g27
g28
VAttendee
tRp601
(dp602
g31
Nsg32
I00
sbsg33
g16
(S'\x07\xde\x03\x11\r\x1c \x05\xa5P'
tRp603
sg35
S'richard.horten@tmp.com'
p604
sg37
g26
(g27
g28
Vjohnsoja
tRp605
(dp606
g31
Nsg32
I00
sbsa(dp607
g3
Nsg4
I01
sg5
S'GHC 2014 Bronze Academic, National Lab & NonProfit Sponsor'
p608
sg7
S'Camelia '
p609
sg9
S'Undergraduate Program Coordinator'
p610
sg11
S'Pierson Eaves'
p611
sg13
S'Duke University'
p612
sg15
g16
(S'\x07\xde\x08\x07\x0f\x0e\n\x05$h'
tRp613
sg18
I2
sg19
S'Confirmed'
p614
sg21
I214106
sg22
S'mkbutler@cs.duke.edu'
p615
sg24
I66897773
sg25
g26
(g27
g28
VAttendee
tRp616
(dp617
g31
Nsg32
I00
sbsg33
g16
(S'\x07\xde\x03\x13\r\x1f\x1c\x01\x05\xb8'
tRp618
sg35
S'revp@cs.duke.edu'
p619
sg37
g26
(g27
g28
VSystem Process
tRp620
(dp621
g31
Nsg32
I00
sbsa(dp622
g3
Nsg4
I00
sg5
S'GHC 2014 Silver Industry Sponsor '
p623
sg7
S'Jennifer'
p624
sg9
S'Vice President'
p625
sg11
S'Moorehouse'
p626
sg13
S'Morgan Stanley'
p627
sg15
g16
(S'\x07\xde\x06\x11\x12$\x05\x0c\xf8P'
tRp628
sg18
I2
sg19
S'Confirmed'
p629
sg21
I214102
sg22
S'itcolrec@morganstanley.com'
p630
sg24
I66932350
sg25
g26
(g27
g28
VAttendee
tRp631
(dp632
g31
Nsg32
I00
sbsg33
g16
(S'\x07\xde\x03\x14\t\x004\x0b\xb4\x18'
tRp633
sg35
S'itcolrec@morganstanley.com'
p634
sg37
g26
(g27
g28
Vkathrynb1
tRp635
(dp636
g31
Nsg32
I00
sbsa(dp637
g3
Nsg4
I00
sg5
S'GHC 2014 Bronze Industry Sponsor'
p638
sg7
S'Danielle'
p639
sg9
S'Recruiting Coordinator'
p640
sg11
S'Rego'
p641
sg13
S'SurveyMonkey'
p642
sg15
g16
(S'\x07\xde\x06\x07\x0f3;\x0b\xe6\xe0'
tRp643
sg18
I2
sg19
S'Confirmed'
p644
sg21
I214103
sg22
S'adams@surveymonkey.com'
p645
sg24
I66991708
sg25
g26
(g27
g28
VAttendee
tRp646
(dp647
g31
Nsg32
I00
sbsg33
g16
(S'\x07\xde\x03\x15\x0c,\x13\x07\xe3\x88'
tRp648
sg35
S'danieller@surveymonkey.com'
p649
sg37
g26
(g27
g28
VSystem Process
tRp650
(dp651
g31
Nsg32
I00
sbsa(dp652
g3
Nsg4
I00
sg5
S'GHC 2014 Bronze Industry Sponsor'
p653
sg7
S'Fiorella'
p654
sg9
S'Recruiter'
p655
sg11
S'Bariani'
p656
sg13
S'Knewton'
p657
sg15
g16
(S'\x07\xde\x06\x18\x07\x1d$\x06MH'
tRp658
sg18
I2
sg19
S'Confirmed'
p659
sg21
I214103
sg22
S''
sg24
I66998528
sg25
g26
(g27
g28
VAttendee
tRp660
(dp661
g31
Nsg32
I00
sbsg33
g16
(S'\x07\xde\x03\x15\x0f\r2\x06&8'
tRp662
sg35
S'fiorella@knewton.com'
p663
sg37
g26
(g27
g28
VSystem Process
tRp664
(dp665
g31
Nsg32
I00
sbsa(dp666
g3
Nsg4
I00
sg5
S'GHC 2014 Gold  Academic, National Lab & NonProfit Sponsor'
p667
sg7
S'Libby'
p668
sg9
S'Director - External Relations and Undergraduate Studies'
p669
sg11
S'Bradford'
p670
sg13
S'Virginia Tech - Computer Science'
p671
sg15
g16
(S'\x07\xde\x06\x14\x0e+\x1b\x018\x80'
tRp672
sg18
I2
sg19
S'Confirmed'
p673
sg21
I214104
sg22
S''
sg24
I67058631
sg25
g26
(g27
g28
VAttendee
tRp674
(dp675
g31
Nsg32
I00
sbsg33
g16
(S'\x07\xde\x03\x18\t\x0f\x02\x04\x1e\xb0'
tRp676
sg35
S'bradfolg@cs.vt.edu'
p677
sg37
g26
(g27
g28
Vtinapratt
tRp678
(dp679
g31
Nsg32
I00
sbsa(dp680
g3
Nsg4
I00
sg5
S'GHC 2014 Silver Industry Sponsor '
p681
sg7
S'Kimberly'
p682
sg9
S'VP, Office of the CIO'
p683
sg11
S'Saxton'
p684
sg13
S'Mylan'
p685
sg15
g16
(S'\x07\xde\x06\t\x0f+\x14\x06\xab\x08'
tRp686
sg18
I2
sg19
S'Confirmed'
p687
sg21
I214102
sg22
S'Michael.Smith@mylan.com'
p688
sg24
I67065547
sg25
g26
(g27
g28
VAttendee
tRp689
(dp690
g31
Nsg32
I00
sbsg33
g16
(S'\x07\xde\x03\x18\n8/\x04\xc6\xa8'
tRp691
sg35
S'Kimberly.Saxton@mylan.com'
p692
sg37
g26
(g27
g28
Vjohnsoja
tRp693
(dp694
g31
Nsg32
I00
sbsa(dp695
g3
Nsg4
I00
sg5
S'GHC 2014 Silver Industry Sponsor '
p696
sg7
S'Tracy'
p697
sg9
S'HR Program Manager'
p698
sg11
S'Hawkins'
p699
sg13
S'Aruba Networks'
p700
sg15
g16
(S'\x07\xde\x07\x04\x08$\x04\x07nX'
tRp701
sg18
I2
sg19
S'Confirmed'
p702
sg21
I214102
sg22
S'danderl@arubanetworks.com'
p703
sg24
I67072939
sg25
g26
(g27
g28
VAttendee
tRp704
(dp705
g31
Nsg32
I00
sbsg33
g16
(S'\x07\xde\x03\x18\r57\x05\t\x10'
tRp706
sg35
S'thawkins@arubanetworks.com'
p707
sg37
g26
(g27
g28
Vjohnsoja
tRp708
(dp709
g31
Nsg32
I00
sbsa(dp710
g3
Nsg4
I00
sg5
S'GHC 2014 Silver Industry Sponsor '
p711
sg7
S'Megan'
p712
sg9
S'Senior Diversity Specialist'
p713
sg11
S'Pierouchakos'
p714
sg13
S'Freddie Mac'
p715
sg15
g16
(S'\x07\xde\x06\t\x0e,/\x0b\xcb\x88'
tRp716
sg18
I2
sg19
S'Confirmed'
p717
sg21
I214102
sg22
S''
sg24
I67081936
sg25
g26
(g27
g28
VAttendee
tRp718
(dp719
g31
Nsg32
I00
sbsg33
g16
(S'\x07\xde\x03\x18\x0e8$\x04l\xd0'
tRp720
sg35
S'meganpierouchakos@freddiemac.com'
p721
sg37
g26
(g27
g28
Vjohnsoja
tRp722
(dp723
g31
Nsg32
I00
sbsa(dp724
g3
Nsg4
I00
sg5
S'GHC 2014 Silver Industry Sponsor '
p725
sg7
S'Maureen'
p726
sg9
S'Recruiter'
p727
sg11
S'Guadagno'
p728
sg13
S'Barclays'
p729
sg15
g16
(S'\x07\xde\x06\t\x0e(\x02\x08"\x08'
tRp730
sg18
I2
sg19
S'Confirmed'
p731
sg21
I214102
sg22
S''
sg24
I67164274
sg25
g26
(g27
g28
VAttendee
tRp732
(dp733
g31
Nsg32
I00
sbsg33
g16
(S'\x07\xde\x03\x1a\t*\x15\x02\xbf '
tRp734
sg35
S'maureen.guadagno@barclays.com'
p735
sg37
g26
(g27
g28
VSystem Process
tRp736
(dp737
g31
Nsg32
I00
sbsa(dp738
g3
Nsg4
I00
sg5
S'GHC 2014 Silver Industry Sponsor '
p739
sg7
S'Julia'
p740
sg9
S'Tech Recruiting Coordinator'
p741
sg11
S'Nguyen'
p742
sg13
S'Yelp, Inc.'
p743
sg15
g16
(S'\x07\xde\x08\x16\n\x0f\x1e\x0b}h'
tRp744
sg18
I2
sg19
S'Confirmed'
p745
sg21
I214102
sg22
S''
sg24
I67237140
sg25
g26
(g27
g28
Vkathrynb1
tRp746
(dp747
g31
Nsg32
I00
sbsg33
g16
(S'\x07\xde\x03\x1b\x10&\x19\x04\xe2\x00'
tRp748
sg35
S'Julia@yelp.com'
p749
sg37
g26
(g27
g28
Vkathrynb1
tRp750
(dp751
g31
Nsg32
I00
sbsa(dp752
g3
Nsg4
I00
sg5
S'GHC 2014 Platinum Sponsor (available to ABI Partners Only)'
p753
sg7
S'Stacy'
p754
sg9
S'Community Outreach Specialist'
p755
sg11
S'Bennett'
p756
sg13
S'GoDaddy'
p757
sg15
g16
(S'\x07\xde\x08\x08\t/2\x05\x14\xc8'
tRp758
sg18
I2
sg19
S'Confirmed'
p759
sg21
I214100
sg22
S'tbutler@godaddy.com'
p760
sg24
I67268325
sg25
g26
(g27
g28
VAttendee
tRp761
(dp762
g31
Nsg32
I00
sbsg33
g16
(S'\x07\xde\x03\x1c\x0b2:\x01D8'
tRp763
sg35
S'sbennett@godaddy.com'
p764
sg37
g26
(g27
g28
Vkathrynb1
tRp765
(dp766
g31
Nsg32
I00
sbsa(dp767
g3
Nsg4
I00
sg5
S'GHC 2014 Silver Academic, National Lab & NonProfit Sponsor'
p768
sg7
S'Barbara'
p769
sg9
S'Assistant Business Manager'
p770
sg11
S'Kline'
p771
sg13
S'Oakland University'
p772
sg15
g16
(S'\x07\xde\x06\x11\x12\x10\x1e\x00\x0b\xb8'
tRp773
sg18
I2
sg19
S'Confirmed'
p774
sg21
I214105
sg22
S'wzhou@oakland.edu'
p775
sg24
I67370183
sg25
g26
(g27
g28
VAttendee
tRp776
(dp777
g31
Nsg32
I00
sbsg33
g16
(S'\x07\xde\x03\x1f\r\x03:\x018\x80'
tRp778
sg35
S'kline@oakland.edu'
p779
sg37
g26
(g27
g28
Vkathrynb1
tRp780
(dp781
g31
Nsg32
I00
sbsa(dp782
g3
Nsg4
I00
sg5
S'GHC 2014 Bronze Industry Sponsor'
p783
sg7
S'Stevie'
p784
sg9
S'Sr. Specialist, University Recruitment'
p785
sg11
S'Sprague'
p786
sg13
S'Union Pacific Railroad'
p787
sg15
g16
(S'\x07\xde\x06\x07\x0f5\x11\r\xeeh'
tRp788
sg18
I2
sg19
S'Confirmed'
p789
sg21
I214103
sg22
S'upcampus@up.com'
p790
sg24
I67413545
sg25
g26
(g27
g28
VAttendee
tRp791
(dp792
g31
Nsg32
I00
sbsg33
g16
(S'\x07\xde\x04\x01\x08:\r\x04\x88('
tRp793
sg35
S'steviesprague@up.com'
p794
sg37
g26
(g27
g28
VSystem Process
tRp795
(dp796
g31
Nsg32
I00
sbsa(dp797
g3
Nsg4
I00
sg5
S'GHC 2014 Silver Industry Sponsor '
p798
sg7
S'Jovanna'
p799
sg9
S'Talent Attraction Manager'
p800
sg11
S'Owusu'
p801
sg13
S'AT&T'
p802
sg15
g16
(S"\x07\xde\x06\t\x0e' \x0f&\xe8"
tRp803
sg18
I2
sg19
S'Confirmed'
p804
sg21
I214102
sg22
S''
sg24
I67474569
sg25
g26
(g27
g28
VAttendee
tRp805
(dp806
g31
Nsg32
I00
sbsg33
g16
(S'\x07\xde\x04\x02\t6\x06\x04\x1e\xb0'
tRp807
sg35
S'malaysia.thomas@tmp.com'
p808
sg37
g26
(g27
g28
Vjohnsoja
tRp809
(dp810
g31
Nsg32
I00
sbsa(dp811
g3
Nsg4
I00
sg5
S'GHC 2014 Silver Industry Sponsor '
p812
sg7
S'Patricia'
p813
sg9
S'Recruiting Coordinator'
p814
sg11
S'Jarombek'
p815
sg13
S'FactSet Research Systems'
p816
sg15
g16
(S'\x07\xde\x06\t\x0e,\x04\x034P'
tRp817
sg18
I2
sg19
S'Confirmed'
p818
sg21
I214102
sg22
S''
sg24
I67581351
sg25
g26
(g27
g28
VAttendee
tRp819
(dp820
g31
Nsg32
I00
sbsg33
g16
(S'\x07\xde\x04\x04\n\x14:\t\xc4\x00'
tRp821
sg35
S'pjarombek@factset.com'
p822
sg37
g26
(g27
g28
VSystem Process
tRp823
(dp824
g31
Nsg32
I00
sbsa(dp825
g3
Nsg4
I00
sg5
S'GHC 2014 Silver Academic, National Lab & NonProfit Sponsor'
p826
sg7
S'Erin'
p827
sg9
S'Gender Diversity Specialist'
p828
sg11
S'Thomas'
p829
sg13
S"Argonne Nat'l Lab/UChicago CI"
p830
sg15
g16
(S'\x07\xde\x08\x04\x0c(!\x07z\x10'
tRp831
sg18
I2
sg19
S'Confirmed'
p832
sg21
I214105
sg22
S'jwulf@ci.uchicago.edu'
p833
sg24
I67585742
sg25
g26
(g27
g28
VAttendee
tRp834
(dp835
g31
Nsg32
I00
sbsg33
g16
(S'\x07\xde\x04\x04\n5%\x07\xc80'
tRp836
sg35
S'ethomas@anl.gov'
p837
sg37
g26
(g27
g28
VSystem Process
tRp838
(dp839
g31
Nsg32
I00
sbsa(dp840
g3
Nsg4
I00
sg5
S'GHC 2014 Silver Industry Sponsor '
p841
sg7
S'Alyssa'
p842
sg9
S'Tech Marketing Project Manager'
p843
sg11
S'Arvin'
p844
sg13
S'Salesforce.com'
p845
sg15
g16
(S'\x07\xde\x08\x03\r\x04,\x04\x9f\x98'
tRp846
sg18
I2
sg19
S'Confirmed'
p847
sg21
I214102
sg22
S'rburkebile@salesforce.com'
p848
sg24
I67665414
sg25
g26
(g27
g28
VAttendee
tRp849
(dp850
g31
Nsg32
I00
sbsg33
g16
(S"\x07\xde\x04\x07\x0b'\x12\x07S\x00"
tRp851
sg35
S'aarvin@salesforce.com'
p852
sg37
g26
(g27
g28
Vjohnsoja
tRp853
(dp854
g31
Nsg32
I00
sbsa(dp855
g3
Nsg4
I01
sg5
S'GHC 2014 Silver Industry Sponsor '
p856
sg7
S'Lisa'
p857
sg9
S'Relationship Manager, Diversity'
p858
sg11
S'Labarbera'
p859
sg13
S'Prudential'
p860
sg15
g16
(S'\x07\xde\t\x08\x0c!\x1f\x02\xe60'
tRp861
sg18
I2
sg19
S'Confirmed'
p862
sg21
I214102
sg22
S'Jessica.Cruz@Prudential.com'
p863
sg24
I67676314
sg25
g26
(g27
g28
VAttendee
tRp864
(dp865
g31
Nsg32
I00
sbsg33
g16
(S'\x07\xde\x04\x07\x0e*\x01\x03g\x18'
tRp866
sg35
S'lisa.labarbera@prudential.com'
p867
sg37
g26
(g27
g28
Vkathrynb1
tRp868
(dp869
g31
Nsg32
I00
sbsa(dp870
g3
Nsg4
I00
sg5
S'GHC 2014 Silver Industry Sponsor '
p871
sg7
S'Marvin'
p872
sg9
S'Global University Relations Manager'
p873
sg11
S'Lopez'
p874
sg13
S'AMD'
p875
sg15
g16
(S'\x07\xde\x07\x03\x0c\x0f.\x00\x90\x88'
tRp876
sg18
I2
sg19
S'Confirmed'
p877
sg21
I214102
sg22
S''
sg24
I67785345
sg25
g26
(g27
g28
VAttendee
tRp878
(dp879
g31
Nsg32
I00
sbsg33
g16
(S'\x07\xde\x04\t\x11-\x06\x04E\xc0'
tRp880
sg35
S'marvin.lopez@amd.com'
p881
sg37
g26
(g27
g28
Vjohnsoja
tRp882
(dp883
g31
Nsg32
I00
sbsa(dp884
g3
Nsg4
I00
sg5
S'GHC 2014 Silver Academic, National Lab & NonProfit Sponsor'
p885
sg7
S'Kristi'
p886
sg9
S'CSE Undergraduate Program Coordinator'
p887
sg11
S'MacKenzie'
p888
sg13
S'University of Michigan, CSE'
p889
sg15
g16
(S'\x07\xde\x06\x18\x06\r!\rFp'
tRp890
sg18
I2
sg19
S'Confirmed'
p891
sg21
I214105
sg22
S'kcormier@umich.edu'
p892
sg24
I67805197
sg25
g26
(g27
g28
VAttendee
tRp893
(dp894
g31
Nsg32
I00
sbsg33
g16
(S'\x07\xde\x04\n\x08\x02\x01\n\x93\x08'
tRp895
sg35
S'kmacken@umich.edu'
p896
sg37
g26
(g27
g28
VSystem Process
tRp897
(dp898
g31
Nsg32
I00
sbsa(dp899
g3
Nsg4
I00
sg5
S'GHC 2014 Gold  Academic, National Lab & NonProfit Sponsor'
p900
sg7
S'Kari'
p901
sg9
S'Director of Admissions'
p902
sg11
S'Gazdich'
p903
sg13
S'Carnegie Mellon University'
p904
sg15
g16
(S'\x07\xde\t\x08\x12"6\x0b}h'
tRp905
sg18
I2
sg19
S'Confirmed'
p906
sg21
I214104
sg22
S'jonesc@ece.cmu.edu'
p907
sg24
I67937960
sg25
g26
(g27
g28
VAttendee
tRp908
(dp909
g31
Nsg32
I00
sbsg33
g16
(S'\x07\xde\x04\x0e\x0c\x1a4\x02U\xa8'
tRp910
sg35
S'kgaz@cmu.edu'
p911
sg37
g26
(g27
g28
Vkathrynb1
tRp912
(dp913
g31
Nsg32
I00
sbsa(dp914
g3
Nsg4
I00
sg5
S'GHC 2014 Platinum Sponsor (available to ABI Partners Only)'
p915
sg7
S'Paul'
p916
sg9
S'Sr HR Consultant, Nationwide'
p917
sg11
S'Szlosek'
p918
sg13
S'Nationwide Insurance'
p919
sg15
g16
(S'\x07\xde\x07\x1d\x12%\x15\x0b\xbf\xd0'
tRp920
sg18
I2
sg19
S'Confirmed'
p921
sg21
I214100
sg22
S''
sg24
I67993708
sg25
g26
(g27
g28
VAttendee
tRp922
(dp923
g31
Nsg32
I00
sbsg33
g16
(S'\x07\xde\x04\x0f\x0e\x18\x12\x002\xc8'
tRp924
sg35
S'szlosep@nationwide.com'
p925
sg37
g26
(g27
g28
Vkathrynb1
tRp926
(dp927
g31
Nsg32
I00
sbsa(dp928
g3
Nsg4
I00
sg5
S'GHC 2014 Silver Academic, National Lab & NonProfit Sponsor'
p929
sg7
S'Barry'
p930
sg9
S'Marketing Associate'
p931
sg11
S'Williams'
p932
sg13
S'AAAS S & T Policy Fellowships'
p933
sg15
g16
(S'\x07\xde\x06\x14\x0f!\x0e\x02>8'
tRp934
sg18
I2
sg19
S'Confirmed'
p935
sg21
I214105
sg22
S''
sg24
I67999561
sg25
g26
(g27
g28
VAttendee
tRp936
(dp937
g31
Nsg32
I00
sbsg33
g16
(S'\x07\xde\x04\x0f\x0f\x161\t\x1c\x08'
tRp938
sg35
S'bwilliam@aaas.org'
p939
sg37
g26
(g27
g28
Vtinapratt
tRp940
(dp941
g31
Nsg32
I00
sbsa(dp942
g3
Nsg4
I00
sg5
S'GHC 2014 Gold Industry Sponsor'
p943
sg7
S'Sanam'
p944
sg9
S'Recruiter'
p945
sg11
S'Shetty'
p946
sg13
S'Two Sigma'
p947
sg15
g16
(S'\x07\xde\x06\x12\x0e\x15\x01\x0e\x15x'
tRp948
sg18
I2
sg19
S'Confirmed'
p949
sg21
I214101
sg22
S'leighton.symons@twosigma.com'
p950
sg24
I68043118
sg25
g26
(g27
g28
VAttendee
tRp951
(dp952
g31
Nsg32
I00
sbsg33
g16
(S'\x07\xde\x04\x10\x0e\x18 \x081\xa8'
tRp953
sg35
S'sanam.shetty@twosigma.com'
p954
sg37
g26
(g27
g28
Vkathrynb1
tRp955
(dp956
g31
Nsg32
I00
sbsa(dp957
g3
Nsg4
I00
sg5
S'GHC 2014 Silver Academic, National Lab & NonProfit Sponsor'
p958
sg7
S'Jeff'
p959
sg9
S'Senior Recruiter'
p960
sg11
S'Todd'
p961
sg13
S'Lawrence Berkeley National Lab'
p962
sg15
g16
(S'\x07\xde\x07\x0b\n0+\x06\xd2\x18'
tRp963
sg18
I2
sg19
S'Confirmed'
p964
sg21
I214105
sg22
S'ejbautista@lbl.gov'
p965
sg24
I68477633
sg25
g26
(g27
g28
VAttendee
tRp966
(dp967
g31
Nsg32
I00
sbsg33
g16
(S'\x07\xde\x04\x1c\x10(\x16\x07S\x00'
tRp968
sg35
S'jltodd@lbl.gov'
p969
sg37
g26
(g27
g28
Vkathrynb1
tRp970
(dp971
g31
Nsg32
I00
sbsa(dp972
g3
Nsg4
I00
sg5
S'GHC 2014 Bronze Industry Sponsor'
p973
sg7
S'Mike'
p974
sg9
S'Recruiting Associate'
p975
sg11
S'Stenman'
p976
sg13
S'Bridgewater Associates'
p977
sg15
g16
(S'\x07\xde\x06\x11\x12!\x1f\x05\xd8\x18'
tRp978
sg18
I2
sg19
S'Confirmed'
p979
sg21
I214103
sg22
S'nicole.bamford@bwater.com'
p980
sg24
I68502868
sg25
g26
(g27
g28
VAttendee
tRp981
(dp982
g31
Nsg32
I00
sbsg33
g16
(S'\x07\xde\x04\x1d\x08\x15\x12\x00\x0b\xb8'
tRp983
sg35
S'mike.stenman@bwater.com'
p984
sg37
g26
(g27
g28
VSystem Process
tRp985
(dp986
g31
Nsg32
I00
sbsa(dp987
g3
Nsg4
I00
sg5
S'GHC 2014 Silver Academic, National Lab & NonProfit Sponsor'
p988
sg7
S'Deb'
p989
sg9
S'Executive Director'
p990
sg11
S'Goodkin'
p991
sg13
S'FreeBSD Foundation'
p992
sg15
g16
(S'\x07\xde\x08\x03\r\x06\n\x00\xb7\x98'
tRp993
sg18
I2
sg19
S'Confirmed'
p994
sg21
I214105
sg22
S'dru.lavigne@att.net'
p995
sg24
I68740690
sg25
g26
(g27
g28
VAttendee
tRp996
(dp997
g31
Nsg32
I00
sbsg33
g16
(S'\x07\xde\x05\x05\t\x07\x19\x06\xd2\x18'
tRp998
sg35
S'deb@freebsd.org'
p999
sg37
g26
(g27
g28
VSystem Process
tRp1000
(dp1001
g31
Nsg32
I00
sbsa(dp1002
g3
Nsg4
I00
sg5
S'GHC 2014 Silver Industry Sponsor '
p1003
sg7
S'Michelle'
p1004
sg9
S'Recruiting Team'
p1005
sg11
S'Morton'
p1006
sg13
S'Addepar'
p1007
sg15
g16
(S'\x07\xde\x06\t\x0e*\t\t\x81\x98'
tRp1008
sg18
I2
sg19
S'Confirmed'
p1009
sg21
I214102
sg22
S''
sg24
I68745440
sg25
g26
(g27
g28
VAttendee
tRp1010
(dp1011
g31
Nsg32
I00
sbsg33
g16
(S'\x07\xde\x05\x05\n\x196\tN\xd0'
tRp1012
sg35
S'michelle@addepar.com'
p1013
sg37
g26
(g27
g28
Vjohnsoja
tRp1014
(dp1015
g31
Nsg32
I00
sbsa(dp1016
g3
Nsg4
I00
sg5
S'GHC 2014 Gold  Academic, National Lab & NonProfit Sponsor'
p1017
sg7
S'Marielle'
p1018
sg9
S'Program Coordinator of Employer Relations'
p1019
sg11
S'Thomas'
p1020
sg13
S'Georgia Institute of Technology'
p1021
sg15
g16
(S'\x07\xde\x06\x14\n\x1e$\x01\xad\xb0'
tRp1022
sg18
I2
sg19
S'Confirmed'
p1023
sg21
I214104
sg22
S''
sg24
I68754280
sg25
g26
(g27
g28
VAttendee
tRp1024
(dp1025
g31
Nsg32
I00
sbsg33
g16
(S'\x07\xde\x05\x05\x0c0)\x01,\xc8'
tRp1026
sg35
S'mcthomas@cc.gatech.edu'
p1027
sg37
g26
(g27
g28
Vjohnsoja
tRp1028
(dp1029
g31
Nsg32
I00
sbsa(dp1030
g3
Nsg4
I00
sg5
S'GHC 2014 Silver Academic, National Lab & NonProfit Sponsor'
p1031
sg7
S'Jill'
p1032
sg9
S'Sr. Technical Recruiter'
p1033
sg11
S'Schroeder'
p1034
sg13
S'Pacific Northwest National Laboratory'
p1035
sg15
g16
(S"\x07\xde\x08\x03\r\x03\x08\x00'\x10"
tRp1036
sg18
I2
sg19
S'Confirmed'
p1037
sg21
I214105
sg22
S'anna.mitson@pnnl.gov'
p1038
sg24
I68802079
sg25
g26
(g27
g28
VAttendee
tRp1039
(dp1040
g31
Nsg32
I00
sbsg33
g16
(S'\x07\xde\x05\x06\x0b*;\x05\xcc`'
tRp1041
sg35
S'jill.schroeder@pnnl.gov'
p1042
sg37
g26
(g27
g28
VSystem Process
tRp1043
(dp1044
g31
Nsg32
I00
sbsa(dp1045
g3
Nsg4
I01
sg5
S'GHC 2014 Bronze Academic, National Lab & NonProfit Sponsor'
p1046
sg7
S'Michele'
p1047
sg9
S'Admin Intelligent Systems Program'
p1048
sg11
S'Thomas'
p1049
sg13
S'University of Pittsburgh CS&ISP '
p1050
sg15
g16
(S'\x07\xde\x08\n\x10/2\x03\xa9\x80'
tRp1051
sg18
I2
sg19
S'Confirmed'
p1052
sg21
I214106
sg22
S''
sg24
I68856525
sg25
g26
(g27
g28
VAttendee
tRp1053
(dp1054
g31
Nsg32
I00
sbsg33
g16
(S'\x07\xde\x05\x07\x0c5\x11\x04\x1e\xb0'
tRp1055
sg35
S'paum4b@pitt.edu'
p1056
sg37
g26
(g27
g28
Vkathrynb1
tRp1057
(dp1058
g31
Nsg32
I00
sbsa(dp1059
g3
Nsg4
I00
sg5
S'GHC 2014 Silver Industry Sponsor '
p1060
sg7
S'Lisa'
p1061
sg9
S'Systems Analyst'
p1062
sg11
S'Clawson'
p1063
sg13
S'State Farm'
p1064
sg15
g16
(S'\x07\xde\x08\x12\n\t\x1e\x05\xff('
tRp1065
sg18
I2
sg19
S'Confirmed'
p1066
sg21
I214102
sg22
S''
sg24
I68891039
sg25
g26
(g27
g28
VAttendee
tRp1067
(dp1068
g31
Nsg32
I00
sbsg33
g16
(S'\x07\xde\x05\x08\x08#,\x04\xe2\x00'
tRp1069
sg35
S'lisa.clawson.ghjd@statefarm.com'
p1070
sg37
g26
(g27
g28
Vkathrynb1
tRp1071
(dp1072
g31
Nsg32
I00
sbsa(dp1073
g3
Nsg4
I00
sg5
S'GHC 2014 Silver Industry Sponsor '
p1074
sg7
S'Anna'
p1075
sg9
S'Manager, Technology Talent Acquisition'
p1076
sg11
S'Karapogosyan'
p1077
sg13
S'The Walt Disney Company'
p1078
sg15
g16
(S'\x07\xde\x08\x14\x11%\x11\x03[`'
tRp1079
sg18
I2
sg19
S'Confirmed'
p1080
sg21
I214102
sg22
S''
sg24
I69036079
sg25
g26
(g27
g28
VAttendee
tRp1081
(dp1082
g31
Nsg32
I00
sbsg33
g16
(S'\x07\xde\x05\x0c\x11\x00\x12\x0bq\xb0'
tRp1083
sg35
S'anna.karapogosyan@disney.com'
p1084
sg37
g26
(g27
g28
Vkathrynb1
tRp1085
(dp1086
g31
Nsg32
I00
sbsa(dp1087
g3
Nsg4
I00
sg5
S'GHC 2014 Silver Academic, National Lab & NonProfit Sponsor'
p1088
sg7
S'Sheila'
p1089
sg9
S'Administrator'
p1090
sg11
S'Shull'
p1091
sg13
S'CALTECH'
p1092
sg15
g16
(S'\x07\xde\x06\x14\x0e\r\r\x0e\x9aH'
tRp1093
sg18
I2
sg19
S'Confirmed'
p1094
sg21
I214105
sg22
S's.k.shull@gmail.com'
p1095
sg24
I69082192
sg25
g26
(g27
g28
VAttendee
tRp1096
(dp1097
g31
Nsg32
I00
sbsg33
g16
(S'\x07\xde\x05\r\x0f;\x19\x00Y\xd8'
tRp1098
sg35
S'sheila@caltech.edu'
p1099
sg37
g26
(g27
g28
VSystem Process
tRp1100
(dp1101
g31
Nsg32
I00
sbsa(dp1102
g3
Nsg4
I00
sg5
S'GHC 2014 Platinum Sponsor (available to ABI Partners Only)'
p1103
sg7
S'Amber'
p1104
sg9
S'Manager- University Relations'
p1105
sg11
S'Daniels'
p1106
sg13
S'VMware'
p1107
sg15
g16
(S'\x07\xde\x07\x17\x11\t%\n\xba\x18'
tRp1108
sg18
I2
sg19
S'Confirmed'
p1109
sg21
I214100
sg22
S'schmidta@vmware.com'
p1110
sg24
I69110911
sg25
g26
(g27
g28
VAttendee
tRp1111
(dp1112
g31
Nsg32
I00
sbsg33
g16
(S'\x07\xde\x05\x0e\t#\x0f\x0b\x17\xd8'
tRp1113
sg35
S'danielsa@vmware.com'
p1114
sg37
g26
(g27
g28
Vjohnsoja
tRp1115
(dp1116
g31
Nsg32
I00
sbsa(dp1117
g3
Nsg4
I00
sg5
S'GHC 2014 Platinum Sponsor (available to ABI Partners Only)'
p1118
sg7
S'Luis'
p1119
sg9
S'Senior Vice President'
p1120
sg11
S'Villadiego'
p1121
sg13
S'Bank of America'
p1122
sg15
g16
(S'\x07\xde\x08\x1a\x13 \x16\x03\xc4\xd8'
tRp1123
sg18
I2
sg19
S'Confirmed'
p1124
sg21
I214100
sg22
S'angela.Morris@bankofamerica.com '
p1125
sg24
I69118751
sg25
g26
(g27
g28
VAttendee
tRp1126
(dp1127
g31
Nsg32
I00
sbsg33
g16
(S'\x07\xde\x05\x0e\x0b\x1c\x1b\x08I\x18'
tRp1128
sg35
S'luis.villadiego@bankofamerica.com'
p1129
sg37
g26
(g27
g28
Vkathrynb1
tRp1130
(dp1131
g31
Nsg32
I00
sbsa(dp1132
g3
Nsg4
I00
sg5
S'GHC 2014 Platinum Sponsor (available to ABI Partners Only)'
p1133
sg7
S'Desiree'
p1134
sg9
S'Specialist, Student Development'
p1135
sg11
S'Caballero'
p1136
sg13
S'Google'
p1137
sg15
g16
(S'\x07\xde\x08\x01\x0b%.\x02|\xb8'
tRp1138
sg18
I2
sg19
S'Confirmed'
p1139
sg21
I214100
sg22
S'matthoward@google.com'
p1140
sg24
I69165376
sg25
g26
(g27
g28
Vkathrynb1
tRp1141
(dp1142
g31
Nsg32
I00
sbsg33
g16
(S'\x07\xde\x05\x0f\x0c\x03\x1f\x07\xd3\xe8'
tRp1143
sg35
S'desireec@google.com'
p1144
sg37
g26
(g27
g28
Vkathrynb1
tRp1145
(dp1146
g31
Nsg32
I00
sbsa(dp1147
g3
Nsg4
I00
sg5
S'GHC 2014 Platinum Sponsor (available to ABI Partners Only)'
p1148
sg7
S'Kesha'
p1149
sg9
S'National Events Manager'
p1150
sg11
S'Hill'
p1151
sg13
S'Lockheed Martin '
p1152
sg15
g16
(S'\x07\xde\x08\x03\r\x01\x06\r\xe2\xb0'
tRp1153
sg18
I2
sg19
S'Confirmed'
p1154
sg21
I214100
sg22
S''
sg24
I69174870
sg25
g26
(g27
g28
Vkathrynb1
tRp1155
(dp1156
g31
Nsg32
I00
sbsg33
g16
(S'\x07\xde\x05\x0f\r:\x04\x0c\x8e\xd8'
tRp1157
sg35
S'kesha.harris@lmco.com'
p1158
sg37
g26
(g27
g28
Vjohnsoja
tRp1159
(dp1160
g31
Nsg32
I00
sbsa(dp1161
g3
Nsg4
I00
sg5
S'GHC 2014 Bronze Industry Sponsor'
p1162
sg7
S'Louis'
p1163
sg9
S'Technology Recruiter'
p1164
sg11
S'Deli'
p1165
sg13
S'Sears Holding '
p1166
sg15
g16
(S'\x07\xde\x08\x03\r\x05\x08\x04a\x18'
tRp1167
sg18
I2
sg19
S'Confirmed'
p1168
sg21
I214103
sg22
S'stacy.greenfield@searshc.com'
p1169
sg24
I69175309
sg25
g26
(g27
g28
Vkathrynb1
tRp1170
(dp1171
g31
Nsg32
I00
sbsg33
g16
(S'\x07\xde\x05\x0f\x0e\x04%\r\xc7X'
tRp1172
sg35
S'Louis.Deli@searshc.com'
p1173
sg37
g26
(g27
g28
Vjohnsoja
tRp1174
(dp1175
g31
Nsg32
I00
sbsa(dp1176
g3
Nsg4
I00
sg5
S'GHC 2014 Silver Industry Sponsor '
p1177
sg7
S'Doug'
p1178
sg9
S'.'
sg11
S'Tetzner'
p1179
sg13
S'Shopify'
p1180
sg15
g16
(S'\x07\xde\x06\t\x0f,(\r\xd6\xf8'
tRp1181
sg18
I2
sg19
S'Confirmed'
p1182
sg21
I214102
sg22
S''
sg24
I69175480
sg25
g26
(g27
g28
Vkathrynb1
tRp1183
(dp1184
g31
Nsg32
I00
sbsg33
g16
(S'\x07\xde\x05\x0f\x0e\x06\x1f\x0e%\x18'
tRp1185
sg35
S'doug@shopify.com'
p1186
sg37
g26
(g27
g28
Vjohnsoja
tRp1187
(dp1188
g31
Nsg32
I00
sbsa(dp1189
g3
Nsg4
I01
sg5
S'GHC 2014 Bronze Industry Sponsor'
p1190
sg7
S'Mark'
p1191
sg9
S'Director HR Global Categories & Global Geography IT'
p1192
sg11
S'Bachmann'
p1193
sg13
S'Unilever'
p1194
sg15
g16
(S'\x07\xde\x08\x0f\r*\x0f\x01\xa1\xf8'
tRp1195
sg18
I2
sg19
S'Confirmed'
p1196
sg21
I214103
sg22
S'Jackie.Jacobson@unilever.com'
p1197
sg24
I69175585
sg25
g26
(g27
g28
Vkathrynb1
tRp1198
(dp1199
g31
Nsg32
I00
sbsg33
g16
(S'\x07\xde\x05\x0f\x0e\x085\x0b\xf2\x98'
tRp1200
sg35
S'Mark.Bachmann@unilever.com'
p1201
sg37
g26
(g27
g28
Vkathrynb1
tRp1202
(dp1203
g31
Nsg32
I00
sbsa(dp1204
g3
Nsg4
I00
sg5
S'GHC 2014 Platinum Sponsor (available to ABI Partners Only)'
p1205
sg7
S'Jacqueline'
p1206
sg9
S'Diversity Program Manager'
p1207
sg11
S"O'Sullivan"
p1208
sg13
S'IBM'
p1209
sg15
g16
(S'\x07\xde\x06\x1a\x0e\x1d5\x07GH'
tRp1210
sg18
I2
sg19
S'Confirmed'
p1211
sg21
I214100
sg22
S''
sg24
I69179013
sg25
g26
(g27
g28
Vkathrynb1
tRp1212
(dp1213
g31
Nsg32
I00
sbsg33
g16
(S'\x07\xde\x05\x0f\x0f\x126\x07\x85\xc8'
tRp1214
sg35
S'josulliv@us.ibm.com'
p1215
sg37
g26
(g27
g28
Vjohnsoja
tRp1216
(dp1217
g31
Nsg32
I00
sbsa(dp1218
g3
Nsg4
I00
sg5
S'GHC 2014 Gold Industry Sponsor'
p1219
sg7
S'Dana'
p1220
sg9
S'Sr. Manager, University Relations'
p1221
sg11
S'Gharda'
p1222
sg13
S'@WalmartLabs'
p1223
sg15
g16
(S'\x07\xde\x08\x1b\x0f,\x0f\x00\x80\xe8'
tRp1224
sg18
I2
sg19
S'Confirmed'
p1225
sg21
I214101
sg22
S'Keri.Reynolds@walmart.com'
p1226
sg24
I69180507
sg25
g26
(g27
g28
Vkathrynb1
tRp1227
(dp1228
g31
Nsg32
I00
sbsg33
g16
(S'\x07\xde\x05\x0f\x0f87\x02\xf1\xe8'
tRp1229
sg35
S'DGharda@walmart.com'
p1230
sg37
g26
(g27
g28
Vkathrynb1
tRp1231
(dp1232
g31
Nsg32
I00
sbsa(dp1233
g3
Nsg4
I00
sg5
S'GHC 2014 Silver Academic, National Lab & NonProfit Sponsor'
p1234
sg7
S'Michele'
p1235
sg9
S'Event Producer'
p1236
sg11
S'Leonard'
p1237
sg13
S'NCWIT'
p1238
sg15
g16
(S'\x07\xde\t\x15\x16\x10-\n{\x98'
tRp1239
sg18
I2
sg19
S'Confirmed'
p1240
sg21
I214105
sg22
S'michele.leonard@Colorado.EDU'
p1241
sg24
I69180889
sg25
g26
(g27
g28
Vkathrynb1
tRp1242
(dp1243
g31
Nsg32
I00
sbsg33
g16
(S'\x07\xde\x05\x0f\x10\t#\x03\xf7\xa0'
tRp1244
sg35
S'ruthe.farmer@ncwit.org'
p1245
sg37
g26
(g27
g28
Vkathrynb1
tRp1246
(dp1247
g31
Nsg32
I00
sbsa(dp1248
g3
Nsg4
I00
sg5
S'GHC 2014 Silver Industry Sponsor '
p1249
sg7
S'Dana'
p1250
sg9
S'Staffing Manager, Technical Consulting & Services'
p1251
sg11
S'Muckerheide'
p1252
sg13
S'Teradata'
p1253
sg15
g16
(S'\x07\xde\x06\x0c\x11\x05\x1e\x0e\xc1X'
tRp1254
sg18
I2
sg19
S'Confirmed'
p1255
sg21
I214102
sg22
S''
sg24
I69220694
sg25
g26
(g27
g28
VAttendee
tRp1256
(dp1257
g31
Nsg32
I00
sbsg33
g16
(S'\x07\xde\x05\x10\x0e\x1c!\x06\x8f\xb0'
tRp1258
sg35
S'dana.muckerheide2@teradata.com'
p1259
sg37
g26
(g27
g28
VSystem Process
tRp1260
(dp1261
g31
Nsg32
I00
sbsa(dp1262
g3
Nsg4
I00
sg5
S'GHC 2014 Gold  Academic, National Lab & NonProfit Sponsor'
p1263
sg7
S'Sharon'
p1264
sg9
S'Assistant Dean'
p1265
sg11
S'Hill'
p1266
sg13
S'Bentley University'
p1267
sg15
g16
(S'\x07\xde\x06\x11\x12\x1c\x0e\x0b\xe6\xe0'
tRp1268
sg18
I2
sg19
S'Confirmed'
p1269
sg21
I214104
sg22
S'sshorr@bentley.edu'
p1270
sg24
I69273177
sg25
g26
(g27
g28
VAttendee
tRp1271
(dp1272
g31
Nsg32
I00
sbsg33
g16
(S'\x07\xde\x05\x13\x08\x1b\x14\n\x12 '
tRp1273
sg35
S'shill@bentley.edu'
p1274
sg37
g26
(g27
g28
Vkathrynb1
tRp1275
(dp1276
g31
Nsg32
I00
sbsa(dp1277
g3
Nsg4
I00
sg5
S'GHC 2014 Bronze Industry Sponsor'
p1278
sg7
S'Lisa'
p1279
sg9
S'Diversity Program Manager'
p1280
sg11
S'Lee'
p1281
sg13
S'Pandora'
p1282
sg15
g16
(S'\x07\xde\x06\x07\x0f.,\x03\x82p'
tRp1283
sg18
I2
sg19
S'Confirmed'
p1284
sg21
I214103
sg22
S''
sg24
I69297554
sg25
g26
(g27
g28
VAttendee
tRp1285
(dp1286
g31
Nsg32
I00
sbsg33
g16
(S'\x07\xde\x05\x13\x10\x1d\x03\n\x87P'
tRp1287
sg35
S'llee@pandora.com'
p1288
sg37
g26
(g27
g28
Vjohnsoja
tRp1289
(dp1290
g31
Nsg32
I00
sbsa(dp1291
g3
Nsg4
I00
sg5
S'GHC 2014 Bronze Industry Sponsor'
p1292
sg7
S'Jennifer'
p1293
sg9
S'Sr. Event Manager'
p1294
sg11
S'Burke'
p1295
sg13
S'Chef'
p1296
sg15
g16
(S'\x07\xde\x06\x07\x0f"8\x07\xfa\xf8'
tRp1297
sg18
I2
sg19
S'Confirmed'
p1298
sg21
I214103
sg22
S''
sg24
I69375025
sg25
g26
(g27
g28
VAttendee
tRp1299
(dp1300
g31
Nsg32
I00
sbsg33
g16
(S'\x07\xde\x05\x15\n89\x07\x04\xe0'
tRp1301
sg35
S'jennifer@getchef.com'
p1302
sg37
g26
(g27
g28
Vjohnsoja
tRp1303
(dp1304
g31
Nsg32
I00
sbsa(dp1305
g3
Nsg4
I00
sg5
S'GHC 2014 Bronze Industry Sponsor'
p1306
sg7
S'Emily'
p1307
sg9
S'Communications'
p1308
sg11
S'Chin'
p1309
sg13
S'Sift Science'
p1310
sg15
g16
(S'\x07\xde\x06\x11\x12\x1f1\x06tX'
tRp1311
sg18
I2
sg19
S'Confirmed'
p1312
sg21
I214103
sg22
S'liz@siftscience.com'
p1313
sg24
I69432412
sg25
g26
(g27
g28
VAttendee
tRp1314
(dp1315
g31
Nsg32
I00
sbsg33
g16
(S'\x07\xde\x05\x16\x0f,\x0f\x06\x8f\xb0'
tRp1316
sg35
S'emily@siftscience.com'
p1317
sg37
g26
(g27
g28
VSystem Process
tRp1318
(dp1319
g31
Nsg32
I00
sbsa(dp1320
g3
Nsg4
I00
sg5
S'Additional Sponsorship Opportunities'
p1321
sg7
S'Alex'
p1322
sg9
S'Nestling Lead'
p1323
sg11
S'Wrigley'
p1324
sg13
S'Nest'
p1325
sg15
g16
(S'\x07\xde\x05\x1d\x10\x08\x0f\x02q\x00'
tRp1326
sg18
I2
sg19
S'Confirmed'
p1327
sg21
I214301
sg22
S''
sg24
I69581846
sg25
g26
(g27
g28
Vkathrynb1
tRp1328
(dp1329
g31
Nsg32
I00
sbsg33
g16
(S'\x07\xde\x05\x1c\x08!\x12\x08=`'
tRp1330
sg35
S'awrigley@nestlabs.com'
p1331
sg37
g26
(g27
g28
Vkathrynb1
tRp1332
(dp1333
g31
Nsg32
I00
sbsa(dp1334
g3
Nsg4
I00
sg5
S'GHC 2014 Silver Industry Sponsor '
p1335
sg7
S'Elizabeth'
p1336
sg9
S'Event Handler'
p1337
sg11
S'Naramore'
p1338
sg13
S'GitHub'
p1339
sg15
g16
(S'\x07\xde\x06\x11\x12%\r\n\xe1('
tRp1340
sg18
I2
sg19
S'Confirmed'
p1341
sg21
I214102
sg22
S'sponsorships@github.com, jroll@github.com'
p1342
sg24
I69595543
sg25
g26
(g27
g28
VAttendee
tRp1343
(dp1344
g31
Nsg32
I00
sbsg33
g16
(S'\x07\xde\x05\x1c\x0c&"\x07\xa1 '
tRp1345
sg35
S'elizabeth@github.com'
p1346
sg37
g26
(g27
g28
Vkathrynb1
tRp1347
(dp1348
g31
Nsg32
I00
sbsa(dp1349
g3
Nsg4
I00
sg5
S'GHC 2014 Gold  Academic, National Lab & NonProfit Sponsor'
p1350
sg7
S'Angela'
p1351
sg9
S'Advisor'
p1352
sg11
S'Murphy'
p1353
sg13
S'Purdue University'
p1354
sg15
g16
(S'\x07\xde\x06\x11\x12\x1b\x1f\n\xa2\xa8'
tRp1355
sg18
I2
sg19
S'Confirmed'
p1356
sg21
I214104
sg22
S'mallus@purdue.edu'
p1357
sg24
I69599056
sg25
g26
(g27
g28
VAttendee
tRp1358
(dp1359
g31
Nsg32
I00
sbsg33
g16
(S'\x07\xde\x05\x1c\x0e\r8\x04\xc6\xa8'
tRp1360
sg35
S'armurphy@purdue.edu'
p1361
sg37
g26
(g27
g28
VSystem Process
tRp1362
(dp1363
g31
Nsg32
I00
sbsa(dp1364
g3
Nsg4
I00
sg5
S'GHC 2014 Silver Industry Sponsor '
p1365
sg7
S'Janet'
p1366
sg9
S'Technical Recruiter'
p1367
sg11
S'Frishberg'
p1368
sg13
S'Airbnb'
p1369
sg15
g16
(S'\x07\xde\x06\t\x0f)\x02\x04\x88('
tRp1370
sg18
I2
sg19
S'Confirmed'
p1371
sg21
I214102
sg22
S''
sg24
I69608015
sg25
g26
(g27
g28
VAttendee
tRp1372
(dp1373
g31
Nsg32
I00
sbsg33
g16
(S'\x07\xde\x05\x1c\x11*\x08\x06\xd2\x18'
tRp1374
sg35
S'janet.frishberg@airbnb.com'
p1375
sg37
g26
(g27
g28
Vjohnsoja
tRp1376
(dp1377
g31
Nsg32
I00
sbsa(dp1378
g3
Nsg4
I00
sg5
S'GHC 2014 Silver Industry Sponsor '
p1379
sg7
S'Vivian'
p1380
sg9
S'Vice President, Human Resources'
p1381
sg11
S'Chow'
p1382
sg13
S'Travelers'
p1383
sg15
g16
(S'\x07\xde\x06\x11\x12"\x17\x04*h'
tRp1384
sg18
I2
sg19
S'Confirmed'
p1385
sg21
I214102
sg22
S'meckert2@travelers.com'
p1386
sg24
I69652524
sg25
g26
(g27
g28
VAttendee
tRp1387
(dp1388
g31
Nsg32
I00
sbsg33
g16
(S'\x07\xde\x05\x1d\x106)\x0eL('
tRp1389
sg35
S'vchow@travelers.com'
p1390
sg37
g26
(g27
g28
VSystem Process
tRp1391
(dp1392
g31
Nsg32
I00
sbsa(dp1393
g3
Nsg4
I00
sg5
S'GHC 2014 Gold Industry Sponsor'
p1394
sg7
S'Laura'
p1395
sg9
S'Recruitment Marketing Manager'
p1396
sg11
S'Nash'
p1397
sg13
S'ThoughtWorks'
p1398
sg15
g16
(S'\x07\xde\x06\x11\x12\'"\x06\xdd\xd0'
tRp1399
sg18
I2
sg19
S'Confirmed'
p1400
sg21
I214101
sg22
S'tzelecho@thoughtworks.com'
p1401
sg24
I69774882
sg25
g26
(g27
g28
VAttendee
tRp1402
(dp1403
g31
Nsg32
I00
sbsg33
g16
(S'\x07\xde\x06\x02\x0f\x19\x1e\x08\x8b\x80'
tRp1404
sg35
S'lnash@thoughtworks.com'
p1405
sg37
g26
(g27
g28
Vkathrynb1
tRp1406
(dp1407
g31
Nsg32
I00
sbsa(dp1408
g3
Nsg4
I00
sg5
S'GHC 2014 Silver Industry Sponsor '
p1409
sg7
S'Amanda'
p1410
sg9
S'University Relations Recruiter'
p1411
sg11
S'Moser'
p1412
sg13
S'USAA'
p1413
sg15
g16
(S'\x07\xde\x08\x04\x0f;\x13\x02\xa3\xc8'
tRp1414
sg18
I2
sg19
S'Confirmed'
p1415
sg21
I214102
sg22
S''
sg24
I69776993
sg25
g26
(g27
g28
VAttendee
tRp1416
(dp1417
g31
Nsg32
I00
sbsg33
g16
(S'\x07\xde\x06\x02\x10\x12,\x0f\x0fx'
tRp1418
sg35
S'amanda.moser@usaa.com'
p1419
sg37
g26
(g27
g28
VSystem Process
tRp1420
(dp1421
g31
Nsg32
I00
sbsa(dp1422
g3
Nsg4
I00
sg5
S'GHC 2014 Bronze Industry Sponsor'
p1423
sg7
S'Catherine'
p1424
sg9
S'Recruiter'
p1425
sg11
S'Connolly'
p1426
sg13
S'Simple'
p1427
sg15
g16
(S'\x07\xde\x06\x11\x12\x1f\x18\x03[`'
tRp1428
sg18
I2
sg19
S'Confirmed'
p1429
sg21
I214103
sg22
S'lindsay@simple.com'
p1430
sg24
I69781774
sg25
g26
(g27
g28
VAttendee
tRp1431
(dp1432
g31
Nsg32
I00
sbsg33
g16
(S'\x07\xde\x06\x02\x1213\x02\x8cX'
tRp1433
sg35
S'Cate@simple.com'
p1434
sg37
g26
(g27
g28
VSystem Process
tRp1435
(dp1436
g31
Nsg32
I00
sbsa(dp1437
g3
Nsg4
I00
sg5
S'GHC 2014 Bronze Academic, National Lab & NonProfit Sponsor'
p1438
sg7
S'Sonja'
p1439
sg9
S'Associate Director'
p1440
sg11
S'Phongsavanh'
p1441
sg13
S'Rochester Institute of Technology'
p1442
sg15
g16
(S'\x07\xde\x06\x11\x11 5\x03[`'
tRp1443
sg18
I2
sg19
S'Confirmed'
p1444
sg21
I214106
sg22
S'njlrpt@rit.edu'
p1445
sg24
I69801213
sg25
g26
(g27
g28
VAttendee
tRp1446
(dp1447
g31
Nsg32
I00
sbsg33
g16
(S'\x07\xde\x06\x03\x07+\x04\nT\x88'
tRp1448
sg35
S'samadm@rit.edu'
p1449
sg37
g26
(g27
g28
Vkathrynb1
tRp1450
(dp1451
g31
Nsg32
I00
sbsa(dp1452
g3
Nsg4
I00
sg5
S'GHC 2014 Platinum Sponsor (available to ABI Partners Only)'
p1453
sg7
S'Alix'
p1454
sg9
S'Diversity Program Leader'
p1455
sg11
S'Hughes'
p1456
sg13
S'Amazon'
p1457
sg15
g16
(S'\x07\xde\x06\x1a\x0e\x1d\x1f\x03\xeb\xe8'
tRp1458
sg18
I2
sg19
S'Confirmed'
p1459
sg21
I214100
sg22
S'charetts@amazon.com'
p1460
sg24
I69804225
sg25
g26
(g27
g28
VAttendee
tRp1461
(dp1462
g31
Nsg32
I00
sbsg33
g16
(S'\x07\xde\x06\x03\x08(1\x0bq\xb0'
tRp1463
sg35
S'alixh@amazon.com'
p1464
sg37
g26
(g27
g28
Vjohnsoja
tRp1465
(dp1466
g31
Nsg32
I00
sbsa(dp1467
g3
Nsg4
I00
sg5
S'GHC 2014 Silver Industry Sponsor '
p1468
sg7
S'Sohrab'
p1469
sg9
S'University Talent Scout'
p1470
sg11
S'Madani'
p1471
sg13
S'Adobe'
p1472
sg15
g16
(S'\x07\xde\x07\x19\x0e\x1f"\x0eW\xe0'
tRp1473
sg18
I2
sg19
S'Confirmed'
p1474
sg21
I214102
sg22
S''
sg24
I69809384
sg25
g26
(g27
g28
VAttendee
tRp1475
(dp1476
g31
Nsg32
I00
sbsg33
g16
(S'\x07\xde\x06\x03\x0b\x07\x04\x0e\x15x'
tRp1477
sg35
S'smadani@adobe.com'
p1478
sg37
g26
(g27
g28
Vjohnsoja
tRp1479
(dp1480
g31
Nsg32
I00
sbsa(dp1481
g3
Nsg4
I00
sg5
S'GHC 2014 Silver Industry Sponsor '
p1482
sg7
S'Stacey'
p1483
sg9
S'Director, Human Resources'
p1484
sg11
S'Olive'
p1485
sg13
S'Time Inc.'
p1486
sg15
g16
(S'\x07\xde\x08\x16\n\x0f0\x0es8'
tRp1487
sg18
I2
sg19
S'Confirmed'
p1488
sg21
I214102
sg22
S''
sg24
I69813284
sg25
g26
(g27
g28
Vkathrynb1
tRp1489
(dp1490
g31
Nsg32
I00
sbsg33
g16
(S'\x07\xde\x06\x03\x0b\x19\x18\x04\xd6H'
tRp1491
sg35
S'Stacey.Olive@timeinc.com'
p1492
sg37
g26
(g27
g28
Vkathrynb1
tRp1493
(dp1494
g31
Nsg32
I00
sbsa(dp1495
g3
Nsg4
I00
sg5
S'GHC 2014 Gold  Academic, National Lab & NonProfit Sponsor'
p1496
sg7
S'Carol'
p1497
sg9
S'Senior Recruiter'
p1498
sg11
S'Hogsett'
p1499
sg13
S'Los Alamos National Laboratory'
p1500
sg15
g16
(S'\x07\xde\x06\x0f\x13\x1c\x1d\x04\xc6\xa8'
tRp1501
sg18
I2
sg19
S'Confirmed'
p1502
sg21
I214104
sg22
S''
sg24
I69866642
sg25
g26
(g27
g28
VAttendee
tRp1503
(dp1504
g31
Nsg32
I00
sbsg33
g16
(S'\x07\xde\x06\x04\x0c8\x14\x0bVX'
tRp1505
sg35
S'carol@lanl.gov'
p1506
sg37
g26
(g27
g28
Vjohnsoja
tRp1507
(dp1508
g31
Nsg32
I00
sbsa(dp1509
g3
Nsg4
I00
sg5
S'GHC 2014 Platinum Sponsor (available to ABI Partners Only)'
p1510
sg7
S'Trisha'
p1511
sg9
S'University Recruiting Manager'
p1512
sg11
S'Medina'
p1513
sg13
S'Rackspace'
p1514
sg15
g16
(S'\x07\xde\x07\x02\x12\x089\nT\x88'
tRp1515
sg18
I2
sg19
S'Confirmed'
p1516
sg21
I214100
sg22
S''
sg24
I69867442
sg25
g26
(g27
g28
VAttendee
tRp1517
(dp1518
g31
Nsg32
I00
sbsg33
g16
(S'\x07\xde\x06\x04\r\x1d\x12\x0c)H'
tRp1519
sg35
S'trisha.medina@rackspace.com'
p1520
sg37
g26
(g27
g28
Vjohnsoja
tRp1521
(dp1522
g31
Nsg32
I00
sbsa(dp1523
g3
Nsg4
I00
sg5
S'Additional Sponsorship Opportunities'
p1524
sg7
S'Danelle'
p1525
sg9
S'Sr. Manager, Talent Acquisition'
p1526
sg11
S'DiLibero'
p1527
sg13
S'RMS'
p1528
sg15
g16
(S'\x07\xde\x06\x17\r\x0b*\x0b\x8d\x08'
tRp1529
sg18
I2
sg19
S'Confirmed'
p1530
sg21
I214301
sg22
S''
sg24
I69869467
sg25
g26
(g27
g28
VAttendee
tRp1531
(dp1532
g31
Nsg32
I00
sbsg33
g16
(S'\x07\xde\x06\x04\r-+\n\x87P'
tRp1533
sg35
S'danelle.dilibero@rms.com'
p1534
sg37
g26
(g27
g28
VSystem Process
tRp1535
(dp1536
g31
Nsg32
I00
sbsa(dp1537
g3
Nsg4
I00
sg5
S'GHC 2014 Silver Industry Sponsor '
p1538
sg7
S'Linda'
p1539
sg9
S'Development Manager'
p1540
sg11
S'Cook'
p1541
sg13
S'Agile Alliance'
p1542
sg15
g16
(S'\x07\xde\x06\x11\x12&1\x05Kx'
tRp1543
sg18
I2
sg19
S'Confirmed'
p1544
sg21
I214102
sg22
S'operations@agilealliance.org'
p1545
sg24
I69873540
sg25
g26
(g27
g28
VAttendee
tRp1546
(dp1547
g31
Nsg32
I00
sbsg33
g16
(S'\x07\xde\x06\x04\x0f\t:\n{\x98'
tRp1548
sg35
S'lcook@paypal.com'
p1549
sg37
g26
(g27
g28
Vkathrynb1
tRp1550
(dp1551
g31
Nsg32
I00
sbsa(dp1552
g3
Nsg4
I01
sg5
S'GHC 2014 Bronze Industry Sponsor'
p1553
sg7
S'Chelsea'
p1554
sg9
S'Talent Attraction Coordinator'
p1555
sg11
S'Egan'
p1556
sg13
S'Vanguard'
p1557
sg15
g16
(S'\x07\xde\x08\x14\x0f\x10\n\x03\xc4\xd8'
tRp1558
sg18
I2
sg19
S'Confirmed'
p1559
sg21
I214103
sg22
S''
sg24
I69909505
sg25
g26
(g27
g28
VAttendee
tRp1560
(dp1561
g31
Nsg32
I00
sbsg33
g16
(S'\x07\xde\x06\x05\x0c4\x0b\n\x93\x08'
tRp1562
sg35
S'chelsea_egan@vanguard.com'
p1563
sg37
g26
(g27
g28
Vkathrynb1
tRp1564
(dp1565
g31
Nsg32
I00
sbsa(dp1566
g3
Nsg4
I00
sg5
S'GHC 2014 Gold  Academic, National Lab & NonProfit Sponsor'
p1567
sg7
S'Stephanie'
p1568
sg9
S'Administrative Aide'
p1569
sg11
S'Tracy'
p1570
sg13
S'New York University'
p1571
sg15
g16
(S'\x07\xde\x06\x0f\x13)2\x06\\\xe8'
tRp1572
sg18
I2
sg19
S'Confirmed'
p1573
sg21
I214104
sg22
S''
sg24
I69912493
sg25
g26
(g27
g28
VAttendee
tRp1574
(dp1575
g31
Nsg32
I00
sbsg33
g16
(S'\x07\xde\x06\x05\r6\x1a\x0e\xcd\x10'
tRp1576
sg35
S'stephanie@cs.nyu.edu'
p1577
sg37
g26
(g27
g28
Vjohnsoja
tRp1578
(dp1579
g31
Nsg32
I00
sbsa(dp1580
g3
Nsg4
I01
sg5
S'Additional Sponsorship Opportunities'
p1581
sg7
S'Amanda'
p1582
sg9
S'contact'
p1583
sg11
S'Hashimoto'
p1584
sg13
S'Avanade'
p1585
sg15
g16
(S'\x07\xde\x08\x0b\r\x13\x1b\n\x87P'
tRp1586
sg18
I2
sg19
S'Confirmed'
p1587
sg21
I214301
sg22
S''
sg24
I69914188
sg25
g26
(g27
g28
Vkathrynb1
tRp1588
(dp1589
g31
Nsg32
I00
sbsg33
g16
(S'\x07\xde\x06\x05\x0e\x1e1\x06MH'
tRp1590
sg35
S'amanda.hashimoto@avanade.com'
p1591
sg37
g26
(g27
g28
Vkathrynb1
tRp1592
(dp1593
g31
Nsg32
I00
sbsa(dp1594
g3
Nsg4
I00
sg5
S'GHC 2014 Silver Academic, National Lab & NonProfit Sponsor'
p1595
sg7
S'Aimee'
p1596
sg9
S'EEO Specialist'
p1597
sg11
S'Generoso-Nguyen'
p1598
sg13
S'National Institute of Standards and Technology NIST'
p1599
sg15
g16
(S'\x07\xde\x08\x03\r\x02,\x0cg\xc8'
tRp1600
sg18
I2
sg19
S'Confirmed'
p1601
sg21
I214105
sg22
S''
sg24
I69915172
sg25
g26
(g27
g28
Vkathrynb1
tRp1602
(dp1603
g31
Nsg32
I00
sbsg33
g16
(S'\x07\xde\x06\x05\x0e7\x18\x03@\x08'
tRp1604
sg35
S'aimee.generoso-nguyen@nist.gov'
p1605
sg37
g26
(g27
g28
Vjohnsoja
tRp1606
(dp1607
g31
Nsg32
I00
sbsa(dp1608
g3
Nsg4
I00
sg5
S'GHC 2014 Silver Academic, National Lab & NonProfit Sponsor'
p1609
sg7
S'Shabana'
p1610
sg9
S'Enrollment Manager'
p1611
sg11
S'Reza'
p1612
sg13
S'University of Pittsburgh iSchool'
p1613
sg15
g16
(S'\x07\xde\x08\x03\x0c:6\x05\xb1\x08'
tRp1614
sg18
I2
sg19
S'Confirmed'
p1615
sg21
I214105
sg22
S''
sg24
I69939906
sg25
g26
(g27
g28
VAttendee
tRp1616
(dp1617
g31
Nsg32
I00
sbsg33
g16
(S'\x07\xde\x06\x06\t\x129\x06\xab\x08'
tRp1618
sg35
S'sreza@sis.pitt.edu'
p1619
sg37
g26
(g27
g28
Vjohnsoja
tRp1620
(dp1621
g31
Nsg32
I00
sbsa(dp1622
g3
Nsg4
I00
sg5
S'GHC 2014 Silver Academic, National Lab & NonProfit Sponsor'
p1623
sg7
S'Adrienne'
p1624
sg9
S'Director of Undergraduate Affairs'
p1625
sg11
S'Harrell'
p1626
sg13
S'University of California Santa Cruz Baskin Engineering'
p1627
sg15
g16
(S'\x07\xde\x08\x03\r\x08\x00\x0c\xf8P'
tRp1628
sg18
I2
sg19
S'Confirmed'
p1629
sg21
I214105
sg22
S'charlie@cs.ucsc.edu'
p1630
sg24
I69957123
sg25
g26
(g27
g28
VAttendee
tRp1631
(dp1632
g31
Nsg32
I00
sbsg33
g16
(S'\x07\xde\x06\x06\x10\r\r\x01\x1d('
tRp1633
sg35
S'adrienne@soe.ucsc.edu'
p1634
sg37
g26
(g27
g28
Vjohnsoja
tRp1635
(dp1636
g31
Nsg32
I00
sbsa(dp1637
g3
Nsg4
I00
sg5
S'GHC 2014 Gold  Academic, National Lab & NonProfit Sponsor'
p1638
sg7
S'Susanne'
p1639
sg9
S'Admin'
p1640
sg11
S'Brownlee'
p1641
sg13
S'Cal Poly State University'
p1642
sg15
g16
(S'\x07\xde\x06\x17\x0e2\r\x018\x80'
tRp1643
sg18
I2
sg19
S'Confirmed'
p1644
sg21
I214104
sg22
S''
sg24
I69958981
sg25
g26
(g27
g28
VAttendee
tRp1645
(dp1646
g31
Nsg32
I00
sbsg33
g16
(S'\x07\xde\x06\x06\x11\x1a7\x06A\x90'
tRp1647
sg35
S'sabrownl@calpoly.edu'
p1648
sg37
g26
(g27
g28
Vkathrynb1
tRp1649
(dp1650
g31
Nsg32
I00
sbsa(dp1651
g3
Nsg4
I01
sg5
S'GHC 2014 Platinum Sponsor (available to ABI Partners Only)'
p1652
sg7
S'Talia'
p1653
sg9
S'Director, Strategic Programs'
p1654
sg11
S'Reyes-Ortiz'
p1655
sg13
S'NetApp'
p1656
sg15
g16
(S'\x07\xde\x08\x01\n3:\x07\xe3\x88'
tRp1657
sg18
I2
sg19
S'Confirmed'
p1658
sg21
I214100
sg22
S'Dawn.carter@netapp.com; Sara.west@netapp.com'
p1659
sg24
I70033932
sg25
g26
(g27
g28
Vkathrynb1
tRp1660
(dp1661
g31
Nsg32
I00
sbsg33
g16
(S'\x07\xde\x06\t\x14\x08\x07\r\x1f`'
tRp1662
sg35
S'Talia.Reyes-Ortiz@netapp.com'
p1663
sg37
g26
(g27
g28
Vkathrynb1
tRp1664
(dp1665
g31
Nsg32
I00
sbsa(dp1666
g3
Nsg4
I00
sg5
S'GHC 2014 Silver Industry Sponsor '
p1667
sg7
S'Rachel'
p1668
sg9
S'Campus Recruiter'
p1669
sg11
S'Broitman'
p1670
sg13
S'Credit Suisse'
p1671
sg15
g16
(S'\x07\xde\x07\x1f\r\x15)\tj('
tRp1672
sg18
I2
sg19
S'Confirmed'
p1673
sg21
I214102
sg22
S''
sg24
I70055150
sg25
g26
(g27
g28
VAttendee
tRp1674
(dp1675
g31
Nsg32
I00
sbsg33
g16
(S'\x07\xde\x06\n\t11\x08I\x18'
tRp1676
sg35
S'rachel.broitman@credit-suisse.com'
p1677
sg37
g26
(g27
g28
VSystem Process
tRp1678
(dp1679
g31
Nsg32
I00
sbsa(dp1680
g3
Nsg4
I00
sg5
S'GHC 2014 Bronze Industry Sponsor'
p1681
sg7
S'Kelsey'
p1682
sg9
S'Global Diversity & Inclusion Specialist'
p1683
sg11
S'Wesley'
p1684
sg13
S'Electronic Arts'
p1685
sg15
g16
(S"\x07\xde\x08\x0f\r+'\x03v\xb8"
tRp1686
sg18
I2
sg19
S'Confirmed'
p1687
sg21
I214103
sg22
S'achambers@ea.com'
p1688
sg24
I70072277
sg25
g26
(g27
g28
VAttendee
tRp1689
(dp1690
g31
Nsg32
I00
sbsg33
g16
(S'\x07\xde\x06\n\x0f-0\x08dp'
tRp1691
sg35
S'kwesley@ea.com'
p1692
sg37
g26
(g27
g28
Vkathrynb1
tRp1693
(dp1694
g31
Nsg32
I00
sbsa(dp1695
g3
Nsg4
I00
sg5
S'GHC 2014 Bronze Industry Sponsor'
p1696
sg7
S'Wendy'
p1697
sg9
S'Sr Manager, Marketing Programs'
p1698
sg11
S'Laugesen'
p1699
sg13
S'MarkLogic '
p1700
sg15
g16
(S'\x07\xde\x08\x03\r\x01\x18\x02\x8cX'
tRp1701
sg18
I2
sg19
S'Confirmed'
p1702
sg21
I214103
sg22
S'michelle.ashufta@marklogic.com'
p1703
sg24
I70096897
sg25
g26
(g27
g28
VAttendee
tRp1704
(dp1705
g31
Nsg32
I00
sbsg33
g16
(S'\x07\xde\x06\x0b\t\x12\x13\x04\x1e\xb0'
tRp1706
sg35
S'wendy.laugesen@marklogic.com'
p1707
sg37
g26
(g27
g28
VSystem Process
tRp1708
(dp1709
g31
Nsg32
I00
sbsa(dp1710
g3
Nsg4
I00
sg5
S'GHC 2014 Bronze Academic, National Lab & NonProfit Sponsor'
p1711
sg7
S'Jane'
p1712
sg9
S'Dept Manager, Computer Science'
p1713
sg11
S'McIlmail'
p1714
sg13
S'Brown University'
p1715
sg15
g16
(S'\x07\xde\x06\x11\x11:\x06\x065\xd8'
tRp1716
sg18
I2
sg19
S'Confirmed'
p1717
sg21
I214106
sg22
S'Layla_Oesper@brown.edu'
p1718
sg24
I70098682
sg25
g26
(g27
g28
VAttendee
tRp1719
(dp1720
g31
Nsg32
I00
sbsg33
g16
(S'\x07\xde\x06\x0b\t6/\x050 '
tRp1721
sg35
S'Jane_McIlmail@brown.edu'
p1722
sg37
g26
(g27
g28
VSystem Process
tRp1723
(dp1724
g31
Nsg32
I00
sbsa(dp1725
g3
Nsg4
I00
sg5
S'GHC 2014 Silver Industry Sponsor '
p1726
sg7
S'Margaret'
p1727
sg9
S'-'
sg11
S'Parsons'
p1728
sg13
S'National Security Agency'
p1729
sg15
g16
(S'\x07\xde\x07\x18\n5!\x0b\x8d\x08'
tRp1730
sg18
I2
sg19
S'Confirmed'
p1731
sg21
I214102
sg22
S''
sg24
I70119162
sg25
g26
(g27
g28
Vkathrynb1
tRp1732
(dp1733
g31
Nsg32
I00
sbsg33
g16
(S'\x07\xde\x06\x0b\x12\x13:\n90'
tRp1734
sg35
S'maparso@radium.ncsc.mil'
p1735
sg37
g26
(g27
g28
Vkathrynb1
tRp1736
(dp1737
g31
Nsg32
I00
sbsa(dp1738
g3
Nsg4
I00
sg5
S'GHC 2014 Silver Academic, National Lab & NonProfit Sponsor'
p1739
sg7
S'Rosina'
p1740
sg9
S'Public Relations and Marketing Manager'
p1741
sg11
S'Geiger'
p1742
sg13
S'Hasso Plattner Institute'
p1743
sg15
g16
(S'\x07\xde\x06\x14\x0e,9\x0b\xe6\xe0'
tRp1744
sg18
I2
sg19
S'Confirmed'
p1745
sg21
I214105
sg22
S'anja.perlich@hpi.uni-potsdam.de'
p1746
sg24
I70126626
sg25
g26
(g27
g28
VAttendee
tRp1747
(dp1748
g31
Nsg32
I00
sbsg33
g16
(S'\x07\xde\x06\x0c\x02\x013\x0b\xe6\xe0'
tRp1749
sg35
S'rosina.geiger@hpi.uni-potsdam.de'
p1750
sg37
g26
(g27
g28
Vkathrynb1
tRp1751
(dp1752
g31
Nsg32
I00
sbsa(dp1753
g3
Nsg4
I00
sg5
S'GHC 2014 Silver Academic, National Lab & NonProfit Sponsor'
p1754
sg7
S'Meg'
p1755
sg9
S'Director of Admissions and Student Affairs'
p1756
sg11
S'St. John'
p1757
sg13
S'Univesrity of California Berkeley '
p1758
sg15
g16
(S'\x07\xde\x08\x03\r\x07\x17\x03\xb58'
tRp1759
sg18
I2
sg19
S'Confirmed'
p1760
sg21
I214105
sg22
S'ascott@ischool.berkeley.edu'
p1761
sg24
I70146136
sg25
g26
(g27
g28
VAttendee
tRp1762
(dp1763
g31
Nsg32
I00
sbsg33
g16
(S'\x07\xde\x06\x0c\x0c\x188\x00N '
tRp1764
sg35
S'Meg@ischool.berkeley.edu'
p1765
sg37
g26
(g27
g28
VSystem Process
tRp1766
(dp1767
g31
Nsg32
I00
sbsa(dp1768
g3
Nsg4
I00
sg5
S'Enterprise Packages, Partners Only'
p1769
sg7
S'Christine'
p1770
sg9
S'-'
sg11
S'Johnson'
p1771
sg13
S'SAP'
p1772
sg15
g16
(S'\x07\xde\x07\x02\x11+\t\x08\x8b\x80'
tRp1773
sg18
I2
sg19
S'Confirmed'
p1774
sg21
I218908
sg22
S''
sg24
I70147346
sg25
g26
(g27
g28
Vkathrynb1
tRp1775
(dp1776
g31
Nsg32
I00
sbsg33
g16
(S'\x07\xde\x06\x0c\x0c :\x01\xfb\xd0'
tRp1777
sg35
S'christine.johnson@sap.com'
p1778
sg37
g26
(g27
g28
Vjohnsoja
tRp1779
(dp1780
g31
Nsg32
I00
sbsa(dp1781
g3
Nsg4
I00
sg5
S'GHC 2014 Silver Industry Sponsor '
p1782
sg7
S'Debbie'
p1783
sg9
S'Strategy and Operations Manager'
p1784
sg11
S'Wickham'
p1785
sg13
S'Xerox'
p1786
sg15
g16
(S'\x07\xde\x07\x02\x11,5\x0c\x8e\xd8'
tRp1787
sg18
I2
sg19
S'Confirmed'
p1788
sg21
I214102
sg22
S''
sg24
I70148721
sg25
g26
(g27
g28
Vkathrynb1
tRp1789
(dp1790
g31
Nsg32
I00
sbsg33
g16
(S'\x07\xde\x06\x0c\x0c5;\t\xcf\xb8'
tRp1791
sg35
S'Debbie.Wickham@xerox.com'
p1792
sg37
g26
(g27
g28
Vjohnsoja
tRp1793
(dp1794
g31
Nsg32
I00
sbsa(dp1795
g3
Nsg4
I00
sg5
S'GHC 2014 Silver Academic, National Lab & NonProfit Sponsor'
p1796
sg7
S'Karen'
p1797
sg9
S'Administrative Assistant'
p1798
sg11
S'Kenny'
p1799
sg13
S'Indiana University School of  Informatics and Computing'
p1800
sg15
g16
(S'\x07\xde\x08\x03\x0c;\x18\x01\x1d('
tRp1801
sg18
I2
sg19
S'Confirmed'
p1802
sg21
I214105
sg22
S'kkeag@indiana.edu'
p1803
sg24
I70151862
sg25
g26
(g27
g28
VAttendee
tRp1804
(dp1805
g31
Nsg32
I00
sbsg33
g16
(S'\x07\xde\x06\x0c\x0e\x18\x1a\x0b/H'
tRp1806
sg35
S'kkenny@indiana.edu'
p1807
sg37
g26
(g27
g28
Vjohnsoja
tRp1808
(dp1809
g31
Nsg32
I00
sbsa(dp1810
g3
Nsg4
I00
sg5
S'GHC 2014 Bronze Industry Sponsor'
p1811
sg7
S'JoNelle'
p1812
sg9
S'Global Staffing Director'
p1813
sg11
S'Sood'
p1814
sg13
S'Xilinx'
p1815
sg15
g16
(S'\x07\xde\x08\x03\r\x0b\x07\x04\xaf8'
tRp1816
sg18
I2
sg19
S'Confirmed'
p1817
sg21
I214103
sg22
S'elisn@xilinx.com'
p1818
sg24
I70159256
sg25
g26
(g27
g28
VAttendee
tRp1819
(dp1820
g31
Nsg32
I00
sbsg33
g16
(S'\x07\xde\x06\x0c\x117\x14\x04\xe2\x00'
tRp1821
sg35
S'jonelle@xilinx.com'
p1822
sg37
g26
(g27
g28
VSystem Process
tRp1823
(dp1824
g31
Nsg32
I00
sbsa(dp1825
g3
Nsg4
I00
sg5
S'GHC 2014 Bronze Academic, National Lab & NonProfit Sponsor'
p1826
sg7
S'Sally'
p1827
sg9
S'Administrative Coordinator'
p1828
sg11
S'Pettyjohn'
p1829
sg13
S'University of North Texas'
p1830
sg15
g16
(S'\x07\xde\x08\x0f\r*:\x04\x1e\xb0'
tRp1831
sg18
I2
sg19
S'Confirmed'
p1832
sg21
I214106
sg22
S'barrett.bryant@unt.edu'
p1833
sg24
I70240810
sg25
g26
(g27
g28
VAttendee
tRp1834
(dp1835
g31
Nsg32
I00
sbsg33
g16
(S'\x07\xde\x06\x10\x07\x1c \x02eH'
tRp1836
sg35
S'sally.pettyjohn@unt.edu'
p1837
sg37
g26
(g27
g28
VSystem Process
tRp1838
(dp1839
g31
Nsg32
I00
sbsa(dp1840
g3
Nsg4
I00
sg5
S'GHC 2014 Platinum Sponsor (available to ABI Partners Only)'
p1841
sg7
S'Mischa'
p1842
sg9
S'Program Manager'
p1843
sg11
S'White'
p1844
sg13
S'Intuit'
p1845
sg15
g16
(S'\x07\xde\x08\x0f\x11\x1c\x01\x03[`'
tRp1846
sg18
I2
sg19
S'Confirmed'
p1847
sg21
I214100
sg22
S''
sg24
I70251750
sg25
g26
(g27
g28
Vkathrynb1
tRp1848
(dp1849
g31
Nsg32
I00
sbsg33
g16
(S'\x07\xde\x06\x10\x0b\x10\x12\x02"\xe0'
tRp1850
sg35
S'Mischa_White@intuit.com'
p1851
sg37
g26
(g27
g28
Vkathrynb1
tRp1852
(dp1853
g31
Nsg32
I00
sbsa(dp1854
g3
Nsg4
I00
sg5
S'GHC 2014 Bronze Academic, National Lab & NonProfit Sponsor'
p1855
sg7
S'Philip'
p1856
sg9
S'Admissions and Student Affairs Assistant'
p1857
sg11
S'Nardone'
p1858
sg13
S'University of Michigan School of Information'
p1859
sg15
g16
(S'\x07\xde\x08\x03\r\x08\x19\x0c5\x00'
tRp1860
sg18
I2
sg19
S'Confirmed'
p1861
sg21
I214106
sg22
S'alissat@umich.edu'
p1862
sg24
I70281747
sg25
g26
(g27
g28
VAttendee
tRp1863
(dp1864
g31
Nsg32
I00
sbsg33
g16
(S'\x07\xde\x06\x11\x06\x1f\x1c\x01\xc9\x08'
tRp1865
sg35
S'umsi.admissions@umich.edu'
p1866
sg37
g26
(g27
g28
VSystem Process
tRp1867
(dp1868
g31
Nsg32
I00
sbsa(dp1869
g3
Nsg4
I00
sg5
S'GHC 2014 Silver Academic, National Lab & NonProfit Sponsor'
p1870
sg7
S'Jennifer'
p1871
sg9
S'Research Engineer II'
p1872
sg11
S'Palmer'
p1873
sg13
S'Georgia Tech Research Institute'
p1874
sg15
g16
(S'\x07\xde\x06\x11\x134!\x08p('
tRp1875
sg18
I2
sg19
S'Confirmed'
p1876
sg21
I214105
sg22
S'Shatanese.Reese@gtri.gatech.edu'
p1877
sg24
I70285007
sg25
g26
(g27
g28
VAttendee
tRp1878
(dp1879
g31
Nsg32
I00
sbsg33
g16
(S'\x07\xde\x06\x11\x08 0\x05\xcc`'
tRp1880
sg35
S'Jennifer.Palmer@gtri.gatech.edu'
p1881
sg37
g26
(g27
g28
Vkathrynb1
tRp1882
(dp1883
g31
Nsg32
I00
sbsa(dp1884
g3
Nsg4
I00
sg5
S'GHC 2014 Bronze Academic, National Lab & NonProfit Sponsor'
p1885
sg7
S'Samantha'
p1886
sg9
S'Accountant'
p1887
sg11
S'Dubert'
p1888
sg13
S'Iowa State University'
p1889
sg15
g16
(S'\x07\xde\x08\x07\x0e\x08%\x0e\xd8\xc8'
tRp1890
sg18
I2
sg19
S'Confirmed'
p1891
sg21
I214106
sg22
S'skharris@iastate.edu'
p1892
sg24
I70288781
sg25
g26
(g27
g28
VAttendee
tRp1893
(dp1894
g31
Nsg32
I00
sbsg33
g16
(S'\x07\xde\x06\x11\t\x13\t\x04\x12\xf8'
tRp1895
sg35
S'smdubert@iastate.edu'
p1896
sg37
g26
(g27
g28
VSystem Process
tRp1897
(dp1898
g31
Nsg32
I00
sbsa(dp1899
g3
Nsg4
I00
sg5
S'GHC 2014 Silver Academic, National Lab & NonProfit Sponsor'
p1900
sg7
S'Thomas'
p1901
sg9
S'Professor and Chair'
p1902
sg11
S'Cormen'
p1903
sg13
S'Dartmouth College'
p1904
sg15
g16
(S'\x07\xde\x06\x11\r)\x1c\x00\x9c@'
tRp1905
sg18
I2
sg19
S'Confirmed'
p1906
sg21
I214105
sg22
S'joseph.elsener@dartmouth.edu'
p1907
sg24
I70293127
sg25
g26
(g27
g28
VAttendee
tRp1908
(dp1909
g31
Nsg32
I00
sbsg33
g16
(S'\x07\xde\x06\x11\n)6\x0b\x8d\x08'
tRp1910
sg35
S'thc@cs.dartmouth.edu'
p1911
sg37
g26
(g27
g28
Vkathrynb1
tRp1912
(dp1913
g31
Nsg32
I00
sbsa(dp1914
g3
Nsg4
I00
sg5
S'GHC 2014 Silver Industry Sponsor '
p1915
sg7
S'Nadia'
p1916
sg9
S'Recruiter'
p1917
sg11
S'Singer'
p1918
sg13
S'Quora'
p1919
sg15
g16
(S'\x07\xde\x06\x14\n5\x1a\x06\x1a\x80'
tRp1920
sg18
I2
sg19
S'Confirmed'
p1921
sg21
I214102
sg22
S''
sg24
I70305195
sg25
g26
(g27
g28
VAttendee
tRp1922
(dp1923
g31
Nsg32
I00
sbsg33
g16
(S'\x07\xde\x06\x11\x0f*9\x06tX'
tRp1924
sg35
S'nadia@quora.com'
p1925
sg37
g26
(g27
g28
Vkathrynb1
tRp1926
(dp1927
g31
Nsg32
I00
sbsa(dp1928
g3
Nsg4
I00
sg5
S'GHC 2014 Silver Academic, National Lab & NonProfit Sponsor'
p1929
sg7
S'Eric'
p1930
sg9
S'Director of Membership'
p1931
sg11
S'Berkowitz'
p1932
sg13
S'IEEE Computer Society'
p1933
sg15
g16
(S'\x07\xde\x07\x1d\x10\n\x0e\x03\xc4\xd8'
tRp1934
sg18
I2
sg19
S'Confirmed'
p1935
sg21
I214105
sg22
S'chuffman@computer.org'
p1936
sg24
I70328364
sg25
g26
(g27
g28
VAttendee
tRp1937
(dp1938
g31
Nsg32
I00
sbsg33
g16
(S'\x07\xde\x06\x12\x078*\x08\x7f\xc8'
tRp1939
sg35
S'e.berkowitz@computer.org'
p1940
sg37
g26
(g27
g28
Vkathrynb1
tRp1941
(dp1942
g31
Nsg32
I00
sbsa(dp1943
g3
Nsg4
I00
sg5
S'GHC 2014 Bronze Academic, National Lab & NonProfit Sponsor'
p1944
sg7
S'Jiayi'
p1945
sg9
S'Ph.D candidate'
p1946
sg11
S'Dou'
p1947
sg13
S'Rosetta Commons'
p1948
sg15
g16
(S'\x07\xde\x06\x17\x15\x18\x15\x02eH'
tRp1949
sg18
I2
sg19
S'Confirmed'
p1950
sg21
I214106
sg22
S'jgray@jhu.edu'
p1951
sg24
I70336199
sg25
g26
(g27
g28
VAttendee
tRp1952
(dp1953
g31
Nsg32
I00
sbsg33
g16
(S'\x07\xde\x06\x12\n),\x034P'
tRp1954
sg35
S'doujy@uw.edu'
p1955
sg37
g26
(g27
g28
VSystem Process
tRp1956
(dp1957
g31
Nsg32
I00
sbsa(dp1958
g3
Nsg4
I00
sg5
S'GHC 2014 Silver Industry Sponsor '
p1959
sg7
S'Yvette'
p1960
sg9
S'VP'
p1961
sg11
S'Wright'
p1962
sg13
S'BNY Mellon'
p1963
sg15
g16
(S'\x07\xde\x06\x19\x108\x1c\n\x1d\xd8'
tRp1964
sg18
I2
sg19
S'Confirmed'
p1965
sg21
I214102
sg22
S'lmayer@pershing.com'
p1966
sg24
I70356833
sg25
g26
(g27
g28
VAttendee
tRp1967
(dp1968
g31
Nsg32
I00
sbsg33
g16
(S'\x07\xde\x06\x12\x14/\x01\x04E\xc0'
tRp1969
sg35
S'yvette.wright@bnymellon.com'
p1970
sg37
g26
(g27
g28
Vkathrynb1
tRp1971
(dp1972
g31
Nsg32
I00
sbsa(dp1973
g3
Nsg4
I00
sg5
S'GHC 2014 Silver Academic, National Lab & NonProfit Sponsor'
p1974
sg7
S'Laura'
p1975
sg9
S'Professor'
p1976
sg11
S'Dillon'
p1977
sg13
S'Michigan State University'
p1978
sg15
g16
(S'\x07\xde\x06\x17\x1079\x07\xc80'
tRp1979
sg18
I2
sg19
S'Confirmed'
p1980
sg21
I214105
sg22
S'colbryka@egr.msu.edu'
p1981
sg24
I70385644
sg25
g26
(g27
g28
VAttendee
tRp1982
(dp1983
g31
Nsg32
I00
sbsg33
g16
(S'\x07\xde\x06\x13\r/6\x0c\xb5\xe8'
tRp1984
sg35
S'ldillon@cse.msu.edu'
p1985
sg37
g26
(g27
g28
VSystem Process
tRp1986
(dp1987
g31
Nsg32
I00
sbsa(dp1988
g3
Nsg4
I00
sg5
S'Additional Sponsorship Opportunities'
p1989
sg7
S'Lilis'
p1990
sg9
S'Meetings and Events Manager'
p1991
sg11
S'Bumgardner'
p1992
sg13
S'Anita Borg Institute'
p1993
sg15
g16
(S'\x07\xde\x07\x1f\x11\x0b9\x07\xef@'
tRp1994
sg18
I2
sg19
S'Confirmed'
p1995
sg21
I214301
sg22
S''
sg24
I70422906
sg25
g26
(g27
g28
Vkathrynb1
tRp1996
(dp1997
g31
Nsg32
I00
sbsg33
g16
(S'\x07\xde\x06\x14\x0b\x1b\x10\x0e\t\xc0'
tRp1998
sg35
S'lilisb@anitaborg.org'
p1999
sg37
g26
(g27
g28
Vkathrynb1
tRp2000
(dp2001
g31
Nsg32
I00
sbsa(dp2002
g3
Nsg4
I00
sg5
S'GHC 2014 Gold Industry Sponsor'
p2003
sg7
S'Megan'
p2004
sg9
S'Recruiting Programs Specialist'
p2005
sg11
S'Carlisle'
p2006
sg13
S'Twitter'
p2007
sg15
g16
(S'\x07\xde\x06\x19\x111\x03\x07\xc80'
tRp2008
sg18
I2
sg19
S'Confirmed'
p2009
sg21
I214101
sg22
S'kshalk@twitter.com'
p2010
sg24
I70427038
sg25
g26
(g27
g28
VAttendee
tRp2011
(dp2012
g31
Nsg32
I00
sbsg33
g16
(S"\x07\xde\x06\x14\r\x15'\x04\x1e\xb0"
tRp2013
sg35
S'megancarlisle@twitter.com'
p2014
sg37
g26
(g27
g28
Vkathrynb1
tRp2015
(dp2016
g31
Nsg32
I00
sbsa(dp2017
g3
Nsg4
I00
sg5
S'GHC 2014 Bronze Industry Sponsor'
p2018
sg7
S'Jeunee'
p2019
sg9
S'Technical Sourcer'
p2020
sg11
S'Simon'
p2021
sg13
S'Lookout'
p2022
sg15
g16
(S'\x07\xde\x06\x17\x103\x17\x0c\xaa0'
tRp2023
sg18
I2
sg19
S'Confirmed'
p2024
sg21
I214103
sg22
S''
sg24
I70438112
sg25
g26
(g27
g28
VAttendee
tRp2025
(dp2026
g31
Nsg32
I00
sbsg33
g16
(S'\x07\xde\x06\x14\x13\x10\x15\x0bJ\xa0'
tRp2027
sg35
S'jeunee.simon@lookout.com'
p2028
sg37
g26
(g27
g28
Vkathrynb1
tRp2029
(dp2030
g31
Nsg32
I00
sbsa(dp2031
g3
Nsg4
I00
sg5
S'GHC 2014 Silver Industry Sponsor '
p2032
sg7
S'Jamie'
p2033
sg9
S'Senior Employment Branding Specialist'
p2034
sg11
S'Williams'
p2035
sg13
S'Red Hat'
p2036
sg15
g16
(S"\x07\xde\x07\x02\x12\x01'\x03@\x08"
tRp2037
sg18
I2
sg19
S'Confirmed'
p2038
sg21
I214102
sg22
S'lmurray@redhat.com'
p2039
sg24
I70502893
sg25
g26
(g27
g28
VAttendee
tRp2040
(dp2041
g31
Nsg32
I00
sbsg33
g16
(S'\x07\xde\x06\x17\x0b\x19\x03\x0e0\xd0'
tRp2042
sg35
S'jamwilli@redhat.com'
p2043
sg37
g26
(g27
g28
Vjohnsoja
tRp2044
(dp2045
g31
Nsg32
I00
sbsa(dp2046
g3
Nsg4
I00
sg5
S'GHC 2014 Bronze Industry Sponsor'
p2047
sg7
S'Nicolle'
p2048
sg9
S'Campus Recruiter'
p2049
sg11
S'Bugajski'
p2050
sg13
S'Deutsche Bank'
p2051
sg15
g16
(S'\x07\xde\x06\x19\x0c#\x1a\x0b\x17\xd8'
tRp2052
sg18
I2
sg19
S'Confirmed'
p2053
sg21
I214103
sg22
S''
sg24
I70511902
sg25
g26
(g27
g28
VAttendee
tRp2054
(dp2055
g31
Nsg32
I00
sbsg33
g16
(S'\x07\xde\x06\x17\x0e+\x04\x0c\xc5\x88'
tRp2056
sg35
S'nicolle.bugajski@db.com'
p2057
sg37
g26
(g27
g28
VSystem Process
tRp2058
(dp2059
g31
Nsg32
I00
sbsa(dp2060
g3
Nsg4
I00
sg5
S'GHC 2014 Bronze Industry Sponsor'
p2061
sg7
S'Ben'
p2062
sg9
S'CEO'
p2063
sg11
S'Congleton'
p2064
sg13
S'Olark'
p2065
sg15
g16
(S'\x07\xde\x08\x04\x12\x15\x07\x08\xcd\xe8'
tRp2066
sg18
I2
sg19
S'Confirmed'
p2067
sg21
I214103
sg22
S'lindsay@olark.com'
p2068
sg24
I70559863
sg25
g26
(g27
g28
Vkathrynb1
tRp2069
(dp2070
g31
Nsg32
I00
sbsg33
g16
(S'\x07\xde\x06\x18\x10,3\x0e\xe8h'
tRp2071
sg35
S'ben@olark.com'
p2072
sg37
g26
(g27
g28
Vkathrynb1
tRp2073
(dp2074
g31
Nsg32
I00
sbsa(dp2075
g3
Nsg4
I00
sg5
S'GHC 2014 Silver Industry Sponsor '
p2076
sg7
S'Lynne'
p2077
sg9
S'Sr. Software Staff'
p2078
sg11
S'Miller'
p2079
sg13
S'Raytheon'
p2080
sg15
g16
(S'\x07\xde\x07\x02\x12\x18$\x06\xe9\x88'
tRp2081
sg18
I2
sg19
S'Confirmed'
p2082
sg21
I214102
sg22
S''
sg24
I70560290
sg25
g26
(g27
g28
Vkathrynb1
tRp2083
(dp2084
g31
Nsg32
I00
sbsg33
g16
(S'\x07\xde\x06\x18\x11\x010\x0c5\x00'
tRp2085
sg35
S'lynne_miller@raytheon.com'
p2086
sg37
g26
(g27
g28
Vjohnsoja
tRp2087
(dp2088
g31
Nsg32
I00
sbsa(dp2089
g3
Nsg4
I00
sg5
S'GHC 2014 Silver Academic, National Lab & NonProfit Sponsor'
p2090
sg7
S'Alexandra M. '
p2091
sg9
S'Administrative Assistant'
p2092
sg11
S'Calcado'
p2093
sg13
S'Princeton University'
p2094
sg15
g16
(S'\x07\xde\x07\x01\x0e\x04\x0c\x02\xdax'
tRp2095
sg18
I2
sg19
S'Confirmed'
p2096
sg21
I214105
sg22
S''
sg24
I70615968
sg25
g26
(g27
g28
VAttendee
tRp2097
(dp2098
g31
Nsg32
I00
sbsg33
g16
(S'\x07\xde\x06\x1a\x08%\x10\t\xdfX'
tRp2099
sg35
S'acalcado@princeton.edu'
p2100
sg37
g26
(g27
g28
VSystem Process
tRp2101
(dp2102
g31
Nsg32
I00
sbsa(dp2103
g3
Nsg4
I00
sg5
S'GHC 2014 Silver Academic, National Lab & NonProfit Sponsor'
p2104
sg7
S'Janell'
p2105
sg9
S'Dr.'
p2106
sg11
S'Straach'
p2107
sg13
S'University of Texas  Dallas'
p2108
sg15
g16
(S'\x07\xde\x08\x03\r\n\x1c\ra\xc8'
tRp2109
sg18
I2
sg19
S'Confirmed'
p2110
sg21
I214105
sg22
S''
sg24
I70621246
sg25
g26
(g27
g28
VAttendee
tRp2111
(dp2112
g31
Nsg32
I00
sbsg33
g16
(S'\x07\xde\x06\x1a\n$\x15\x06h\xa0'
tRp2113
sg35
S'jstraach@utdallas.edu'
p2114
sg37
g26
(g27
g28
VSystem Process
tRp2115
(dp2116
g31
Nsg32
I00
sbsa(dp2117
g3
Nsg4
I00
sg5
S'GHC 2014 Silver Industry Sponsor '
p2118
sg7
S'Alexis'
p2119
sg9
S'Recruiting Coordinator'
p2120
sg11
S'Marriott'
p2121
sg13
S'J.P. Morgan'
p2122
sg15
g16
(S"\x07\xde\x07\x07\x0e%'\x08\xa6\xd8"
tRp2123
sg18
I2
sg19
S'Confirmed'
p2124
sg21
I214102
sg22
S'shannon.tracy@jpmorgan.com'
p2125
sg24
I70629022
sg25
g26
(g27
g28
VAttendee
tRp2126
(dp2127
g31
Nsg32
I00
sbsg33
g16
(S'\x07\xde\x06\x1a\x0e\x03\x10\x03@\x08'
tRp2128
sg35
S'alexis.a.marriott@jpmchase.com'
p2129
sg37
g26
(g27
g28
Vkathrynb1
tRp2130
(dp2131
g31
Nsg32
I00
sbsa(dp2132
g3
Nsg4
I00
sg5
S'GHC 2014 Silver Academic, National Lab & NonProfit Sponsor'
p2133
sg7
S'Diana'
p2134
sg9
S'Ms.'
p2135
sg11
S'Kim'
p2136
sg13
S'Columbia University'
p2137
sg15
g16
(S'\x07\xde\x07\n\n\x1d0\x06\x8f\xb0'
tRp2138
sg18
I2
sg19
S'Confirmed'
p2139
sg21
I214105
sg22
S'tms26@columbia.edu'
p2140
sg24
I70733170
sg25
g26
(g27
g28
VAttendee
tRp2141
(dp2142
g31
Nsg32
I00
sbsg33
g16
(S'\x07\xde\x06\x1e\x0b\x0e\t\x04\xe2\x00'
tRp2143
sg35
S'dk2629@columbia.edu'
p2144
sg37
g26
(g27
g28
Vkathrynb1
tRp2145
(dp2146
g31
Nsg32
I00
sbsa(dp2147
g3
Nsg4
I00
sg5
S'GHC 2014 Bronze Industry Sponsor'
p2148
sg7
S'Amanda'
p2149
sg9
S'Sr Consultant, Diversity & Inclusion'
p2150
sg11
S'Hashimoto'
p2151
sg13
S'Avanade'
p2152
sg15
g16
(S'\x07\xde\x07\x15\x1718\x08I\x18'
tRp2153
sg18
I2
sg19
S'Confirmed'
p2154
sg21
I214103
sg22
S''
sg24
I70749041
sg25
g26
(g27
g28
VAttendee
tRp2155
(dp2156
g31
Nsg32
I00
sbsg33
g16
(S'\x07\xde\x06\x1e\x11\x085\n90'
tRp2157
sg35
S'amanda.hashimoto@avanade.com'
p2158
sg37
g26
(g27
g28
Vkathrynb1
tRp2159
(dp2160
g31
Nsg32
I00
sbsa(dp2161
g3
Nsg4
I00
sg5
S'GHC 2014 Silver Academic, National Lab & NonProfit Sponsor'
p2162
sg7
S'Erica'
p2163
sg9
S'Senior Software Engineer'
p2164
sg11
S'Kwan'
p2165
sg13
S'Code for America'
p2166
sg15
g16
(S'\x07\xde\x07\x07\x11\x06)\x081\xa8'
tRp2167
sg18
I2
sg19
S'Confirmed'
p2168
sg21
I214105
sg22
S''
sg24
I70797415
sg25
g26
(g27
g28
VAttendee
tRp2169
(dp2170
g31
Nsg32
I00
sbsg33
g16
(S'\x07\xde\x07\x01\x12&\x1c\x0e~\xf0'
tRp2171
sg35
S'erica@codeforamerica.org'
p2172
sg37
g26
(g27
g28
VSystem Process
tRp2173
(dp2174
g31
Nsg32
I00
sbsa(dp2175
g3
Nsg4
I00
sg5
S'GHC 2014 Silver Academic, National Lab & NonProfit Sponsor'
p2176
sg7
S'Vicky'
p2177
sg9
S'Department Coordinator'
p2178
sg11
S'Roy'
p2179
sg13
S'Michigan Technological University'
p2180
sg15
g16
(S'\x07\xde\x07\x15\x0b\x15\t\r\xeeh'
tRp2181
sg18
I2
sg19
S'Confirmed'
p2182
sg21
I214105
sg22
S'linda@mtu.edu'
p2183
sg24
I70815213
sg25
g26
(g27
g28
VAttendee
tRp2184
(dp2185
g31
Nsg32
I00
sbsg33
g16
(S'\x07\xde\x07\x02\x08#1\n\xfc\x80'
tRp2186
sg35
S'vlroy@mtu.edu'
p2187
sg37
g26
(g27
g28
VSystem Process
tRp2188
(dp2189
g31
Nsg32
I00
sbsa(dp2190
g3
Nsg4
I00
sg5
S'GHC 2014 Silver Academic, National Lab & NonProfit Sponsor'
p2191
sg7
S'Anne'
p2192
sg9
S'title:Lecturer'
p2193
sg11
S'Bracy'
p2194
sg13
S'Washington University St. Louis'
p2195
sg15
g16
(S'\x07\xde\x07\x07\x1002\x0b\xcb\x88'
tRp2196
sg18
I2
sg19
S'Confirmed'
p2197
sg21
I214105
sg22
S'kelli.eckman@wustl.edu'
p2198
sg24
I70820144
sg25
g26
(g27
g28
VAttendee
tRp2199
(dp2200
g31
Nsg32
I00
sbsg33
g16
(S'\x07\xde\x07\x02\n\x1a\x19\x0bJ\xa0'
tRp2201
sg35
S'bracy.wustl@gmail.com'
p2202
sg37
g26
(g27
g28
VSystem Process
tRp2203
(dp2204
g31
Nsg32
I00
sbsa(dp2205
g3
Nsg4
I00
sg5
S'GHC 2014 Bronze Academic, National Lab & NonProfit Sponsor'
p2206
sg7
S'John'
p2207
sg9
S'Professor'
p2208
sg11
S'Paxton'
p2209
sg13
S'Montana State University'
p2210
sg15
g16
(S'\x07\xde\x07\x07\x102\x02\r\xd6\xf8'
tRp2211
sg18
I2
sg19
S'Confirmed'
p2212
sg21
I214106
sg22
S''
sg24
I70822412
sg25
g26
(g27
g28
VAttendee
tRp2213
(dp2214
g31
Nsg32
I00
sbsg33
g16
(S'\x07\xde\x07\x02\x0b\x10\x1c\x0c\x8e\xd8'
tRp2215
sg35
S'paxton@cs.montana.edu'
p2216
sg37
g26
(g27
g28
VSystem Process
tRp2217
(dp2218
g31
Nsg32
I00
sbsa(dp2219
g3
Nsg4
I00
sg5
S'GHC 2014 Bronze Industry Sponsor'
p2220
sg7
S'Vanessa'
p2221
sg9
S'Recruiter'
p2222
sg11
S'Camozzi'
p2223
sg13
S'Nutanix'
p2224
sg15
g16
(S'\x07\xde\x07\x07\x0f:+\x034P'
tRp2225
sg18
I2
sg19
S'Confirmed'
p2226
sg21
I214103
sg22
S''
sg24
I70830677
sg25
g26
(g27
g28
VAttendee
tRp2227
(dp2228
g31
Nsg32
I00
sbsg33
g16
(S'\x07\xde\x07\x02\x0e/\x1b\x04\x1e\xb0'
tRp2229
sg35
S'vanessa@nutanix.com'
p2230
sg37
g26
(g27
g28
Vkathrynb1
tRp2231
(dp2232
g31
Nsg32
I00
sbsa(dp2233
g3
Nsg4
I00
sg5
S'GHC 2014 Silver Industry Sponsor '
p2234
sg7
S'Marcia'
p2235
sg9
S'Manager'
p2236
sg11
S'Knowles'
p2237
sg13
S'HBO'
p2238
sg15
g16
(S'\x07\xde\x07\x07\x0e$\r\x03\x82p'
tRp2239
sg18
I2
sg19
S'Confirmed'
p2240
sg21
I214102
sg22
S'jenn.gustin@hbo.com'
p2241
sg24
I70847939
sg25
g26
(g27
g28
VAttendee
tRp2242
(dp2243
g31
Nsg32
I00
sbsg33
g16
(S'\x07\xde\x07\x03\t*8\x0e\xf4 '
tRp2244
sg35
S'marcia.knowles@hbo.com'
p2245
sg37
g26
(g27
g28
Vkathrynb1
tRp2246
(dp2247
g31
Nsg32
I00
sbsa(dp2248
g3
Nsg4
I00
sg5
S'GHC 2014 Gold  Academic, National Lab & NonProfit Sponsor'
p2249
sg7
S'Colleen'
p2250
sg9
S'Assistant Professor'
p2251
sg11
S'Lewis'
p2252
sg13
S'Harvey Mudd College'
p2253
sg15
g16
(S'\x07\xde\x07\x08\n,\x0e\x06A\x90'
tRp2254
sg18
I2
sg19
S'Confirmed'
p2255
sg21
I214104
sg22
S''
sg24
I70861883
sg25
g26
(g27
g28
VAttendee
tRp2256
(dp2257
g31
Nsg32
I00
sbsg33
g16
(S'\x07\xde\x07\x03\x0e\x0e\x15\x08\xb2\x90'
tRp2258
sg35
S'lewis@cs.hmc.edu'
p2259
sg37
g26
(g27
g28
VSystem Process
tRp2260
(dp2261
g31
Nsg32
I00
sbsa(dp2262
g3
Nsg4
I00
sg5
S'GHC 2014 Silver Academic, National Lab & NonProfit Sponsor'
p2263
sg7
S'Hal'
p2264
sg9
S'Dean, Donald Bren School of Information and Computer Sciences'
p2265
sg11
S'Stern'
p2266
sg13
S'University of California, Irvine'
p2267
sg15
g16
(S'\x07\xde\x07\x07\x10$*\x01\x11p'
tRp2268
sg18
I2
sg19
S'Confirmed'
p2269
sg21
I214105
sg22
S'kris@ics.uci.edu'
p2270
sg24
I70866813
sg25
g26
(g27
g28
VAttendee
tRp2271
(dp2272
g31
Nsg32
I00
sbsg33
g16
(S'\x07\xde\x07\x03\x12&+\x05\xf3p'
tRp2273
sg35
S'sternh@uci.edu'
p2274
sg37
g26
(g27
g28
Vkathrynb1
tRp2275
(dp2276
g31
Nsg32
I00
sbsa(dp2277
g3
Nsg4
I00
sg5
S'GHC 2014 Silver Industry Sponsor '
p2278
sg7
S'Allison'
p2279
sg9
S'Partner'
p2280
sg11
S'Munichiello'
p2281
sg13
S'Andreessen Horowitz'
p2282
sg15
g16
(S'\x07\xde\x07\x07\x0e"\x07\x0b\x98\xc0'
tRp2283
sg18
I2
sg19
S'Confirmed'
p2284
sg21
I214102
sg22
S''
sg24
I70904487
sg25
g26
(g27
g28
VAttendee
tRp2285
(dp2286
g31
Nsg32
I00
sbsg33
g16
(S"\x07\xde\x07\x06\x0c'6\x05b\xe8"
tRp2287
sg35
S'allison@a16z.com'
p2288
sg37
g26
(g27
g28
Vkathrynb1
tRp2289
(dp2290
g31
Nsg32
I00
sbsa(dp2291
g3
Nsg4
I00
sg5
S'GHC 2014 Silver Industry Sponsor '
p2292
sg7
S'Kate'
p2293
sg9
S'Recruiter'
p2294
sg11
S'Fiedelman'
p2295
sg13
S'Pinterest'
p2296
sg15
g16
(S'\x07\xde\x07\x07\x0c1/\n\xfc\x80'
tRp2297
sg18
I2
sg19
S'Confirmed'
p2298
sg21
I214102
sg22
S''
sg24
I70932564
sg25
g26
(g27
g28
VAttendee
tRp2299
(dp2300
g31
Nsg32
I00
sbsg33
g16
(S'\x07\xde\x07\x07\n/\t\x01\xb9h'
tRp2301
sg35
S'Kate@pinterest.com'
p2302
sg37
g26
(g27
g28
VSystem Process
tRp2303
(dp2304
g31
Nsg32
I00
sbsa(dp2305
g3
Nsg4
I00
sg5
S'GHC 2014 Gold Industry Sponsor'
p2306
sg7
S'Dee'
p2307
sg9
S'HR Staff Manager'
p2308
sg11
S'Brown'
p2309
sg13
S'Allstate'
p2310
sg15
g16
(S'\x07\xde\x07\x07\x0e\x19\x0c\x05\xff('
tRp2311
sg18
I2
sg19
S'Confirmed'
p2312
sg21
I214101
sg22
S'CARLA.ZUNIGA@allstate.com'
p2313
sg24
I70934816
sg25
g26
(g27
g28
VAttendee
tRp2314
(dp2315
g31
Nsg32
I00
sbsg33
g16
(S'\x07\xde\x07\x07\x0b+\x05\x03\x01\x88'
tRp2316
sg35
S'sbarfiel@allstate.com'
p2317
sg37
g26
(g27
g28
Vkathrynb1
tRp2318
(dp2319
g31
Nsg32
I00
sbsa(dp2320
g3
Nsg4
I00
sg5
S'Enterprise Packages, Partners Only'
p2321
sg7
S'Pamela'
p2322
sg9
S'Assistant'
p2323
sg11
S'Curlee'
p2324
sg13
S'Microsoft SharePoint'
p2325
sg15
g16
(S'\x07\xde\x07\x07\x0e\x13%\x0e\x15x'
tRp2326
sg18
I2
sg19
S'Confirmed'
p2327
sg21
I218908
sg22
S''
sg24
I70935876
sg25
g26
(g27
g28
Vkathrynb1
tRp2328
(dp2329
g31
Nsg32
I00
sbsg33
g16
(S'\x07\xde\x07\x07\x0c\x06%\x02q\x00'
tRp2330
sg35
S'pamelac@exchange.microsoft.com'
p2331
sg37
g26
(g27
g28
Vkathrynb1
tRp2332
(dp2333
g31
Nsg32
I00
sbsa(dp2334
g3
Nsg4
I00
sg5
S'Enterprise Packages, Partners Only'
p2335
sg7
S'Li'
p2336
sg9
S'Principal Dev Lead'
p2337
sg11
S'Chen'
p2338
sg13
S'Microsoft '
p2339
sg15
g16
(S'\x07\xde\x08\x03\r\x019\x00Bh'
tRp2340
sg18
I2
sg19
S'Confirmed'
p2341
sg21
I218908
sg22
S''
sg24
I70948783
sg25
g26
(g27
g28
Vkathrynb1
tRp2342
(dp2343
g31
Nsg32
I00
sbsg33
g16
(S'\x07\xde\x07\x07\x11*\x07\x08"\x08'
tRp2344
sg35
S'lichen@microsoft.com'
p2345
sg37
g26
(g27
g28
Vjohnsoja
tRp2346
(dp2347
g31
Nsg32
I00
sbsa(dp2348
g3
Nsg4
I01
sg5
S'GHC 2014 Bronze Industry Sponsor'
p2349
sg7
S'Amanda'
p2350
sg9
S''
sg11
S'Mulay'
p2351
sg13
S'Twilio'
p2352
sg15
g16
(S'\x07\xde\x08\x04\x0c4-\x03\x18\xf8'
tRp2353
sg18
I2
sg19
S'Confirmed'
p2354
sg21
I214103
sg22
S''
sg24
I70972496
sg25
g26
(g27
g28
VAttendee
tRp2355
(dp2356
g31
Nsg32
I00
sbsg33
g16
(S'\x07\xde\x07\x08\n)\x10\x02I\xf0'
tRp2357
sg35
S'amulay@twilio.com'
p2358
sg37
g26
(g27
g28
Vkathrynb1
tRp2359
(dp2360
g31
Nsg32
I00
sbsa(dp2361
g3
Nsg4
I00
sg5
S'GHC 2014 Platinum Sponsor (available to ABI Partners Only)'
p2362
sg7
S'Michelle'
p2363
sg9
S"Director, Women's Initiative Network"
p2364
sg11
S'Angier'
p2365
sg13
S'eBay Inc'
p2366
sg15
g16
(S'\x07\xde\x08\x0b\n\x1d\x15\x01\xfb\xd0'
tRp2367
sg18
I2
sg19
S'Confirmed'
p2368
sg21
I214100
sg22
S'adearking@ebay.com'
p2369
sg24
I70992463
sg25
g26
(g27
g28
VAttendee
tRp2370
(dp2371
g31
Nsg32
I00
sbsg33
g16
(S'\x07\xde\x07\x08\x14-6\t\x1c\x08'
tRp2372
sg35
S'mangier@ebay.com'
p2373
sg37
g26
(g27
g28
Vkathrynb1
tRp2374
(dp2375
g31
Nsg32
I00
sbsa(dp2376
g3
Nsg4
I01
sg5
S'GHC 2014 Silver Academic, National Lab & NonProfit Sponsor'
p2377
sg7
S'Sonya'
p2378
sg9
S'Director, Graduate Admissions & Student Life'
p2379
sg11
S'Gwak'
p2380
sg13
S'University of Pennsylvania'
p2381
sg15
g16
(S'\x07\xde\x08\x13\n1+\x0f\x1b0'
tRp2382
sg18
I2
sg19
S'Confirmed'
p2383
sg21
I214105
sg22
S''
sg24
I71021127
sg25
g26
(g27
g28
VAttendee
tRp2384
(dp2385
g31
Nsg32
I00
sbsg33
g16
(S'\x07\xde\x07\t\r.\x00\x00\x90\x88'
tRp2386
sg35
S'sgwak@seas.upenn.edu'
p2387
sg37
g26
(g27
g28
Vtinapratt
tRp2388
(dp2389
g31
Nsg32
I00
sbsa(dp2390
g3
Nsg4
I00
sg5
S'GHC 2014 Silver Academic, National Lab & NonProfit Sponsor'
p2391
sg7
S'Kathy'
p2392
sg9
S'Engineering Organizational Services Manager'
p2393
sg11
S'Waskom'
p2394
sg13
S'Texas A&M University'
p2395
sg15
g16
(S'\x07\xde\x07\x0e\n/\x07\x07+\xf0'
tRp2396
sg18
I2
sg19
S'Confirmed'
p2397
sg21
I214105
sg22
S'amato@cse.tamu.edu'
p2398
sg24
I71023847
sg25
g26
(g27
g28
VAttendee
tRp2399
(dp2400
g31
Nsg32
I00
sbsg33
g16
(S'\x07\xde\x07\t\x0e)7\n\xa2\xa8'
tRp2401
sg35
S'k-waskom@tamu.edu'
p2402
sg37
g26
(g27
g28
Vkathrynb1
tRp2403
(dp2404
g31
Nsg32
I00
sbsa(dp2405
g3
Nsg4
I00
sg5
S'GHC 2014 Bronze Academic, National Lab & NonProfit Sponsor'
p2406
sg7
S'Timothy'
p2407
sg9
S'Chair, Electrical, Computer, Software, and Systems Engineering'
p2408
sg11
S'Wilson'
p2409
sg13
S'Embry-Riddle Aeronautical University'
p2410
sg15
g16
(S'\x07\xde\x08\x03\x0c9\x07\x0e\t\xc0'
tRp2411
sg18
I2
sg19
S'Confirmed'
p2412
sg21
I214106
sg22
S'jafers@erau.edu'
p2413
sg24
I71026329
sg25
g26
(g27
g28
VAttendee
tRp2414
(dp2415
g31
Nsg32
I00
sbsg33
g16
(S'\x07\xde\x07\t\x0f)\x02\x05\x89\xf8'
tRp2416
sg35
S'wilsonti@erau.edu'
p2417
sg37
g26
(g27
g28
VSystem Process
tRp2418
(dp2419
g31
Nsg32
I00
sbsa(dp2420
g3
Nsg4
I00
sg5
S'GHC 2014 Bronze Industry Sponsor'
p2421
sg7
S'Nicole'
p2422
sg9
S'Recruiting'
p2423
sg11
S'Hilsenhoff'
p2424
sg13
S'Epic'
p2425
sg15
g16
(S'\x07\xde\x07\x0e\x0c\x05\t\x0b>\xe8'
tRp2426
sg18
I2
sg19
S'Confirmed'
p2427
sg21
I214103
sg22
S'profiles@epic.com'
p2428
sg24
I71063201
sg25
g26
(g27
g28
VAttendee
tRp2429
(dp2430
g31
Nsg32
I00
sbsg33
g16
(S'\x07\xde\x07\n\x0f\x1a\x18\x02I\xf0'
tRp2431
sg35
S'profiles@epic.com'
p2432
sg37
g26
(g27
g28
Vkathrynb1
tRp2433
(dp2434
g31
Nsg32
I00
sbsa(dp2435
g3
Nsg4
I00
sg5
S'GHC 2014 Silver Academic, National Lab & NonProfit Sponsor'
p2436
sg7
S'Ronald'
p2437
sg9
S'Director'
p2438
sg11
S'Askin'
p2439
sg13
S'Arizona State University Computer Science & Engineering'
p2440
sg15
g16
(S'\x07\xde\x08\x03\r\x0c7\x06&8'
tRp2441
sg18
I2
sg19
S'Confirmed'
p2442
sg21
I214105
sg22
S''
sg24
I71065575
sg25
g26
(g27
g28
VAttendee
tRp2443
(dp2444
g31
Nsg32
I00
sbsg33
g16
(S'\x07\xde\x07\n\x11\x01\x00\x05~@'
tRp2445
sg35
S'ron.askin@asu.edu'
p2446
sg37
g26
(g27
g28
VSystem Process
tRp2447
(dp2448
g31
Nsg32
I00
sbsa(dp2449
g3
Nsg4
I01
sg5
S'GHC 2014 Silver Industry Sponsor '
p2450
sg7
S'Tasha'
p2451
sg9
S'Senior Recruting Specialist'
p2452
sg11
S'Nicholas'
p2453
sg13
S'Johnson & Johnson'
p2454
sg15
g16
(S'\x07\xde\t\n\x00\x07\x19\t\xb8H'
tRp2455
sg18
I2
sg19
S'Confirmed'
p2456
sg21
I214102
sg22
S'tbjorns1@its.jnj.com'
p2457
sg24
I71078118
sg25
g26
(g27
g28
VAttendee
tRp2458
(dp2459
g31
Nsg32
I00
sbsg33
g16
(S'\x07\xde\x07\x0b\x07\x00/\x06\x9bh'
tRp2460
sg35
S'NNichol6@its.jnj.com'
p2461
sg37
g26
(g27
g28
Vkathrynb1
tRp2462
(dp2463
g31
Nsg32
I00
sbsa(dp2464
g3
Nsg4
I00
sg5
S'GHC 2014 Gold Industry Sponsor'
p2465
sg7
S'Aaron'
p2466
sg9
S'Experiential Marketing & Events Coordinatory'
p2467
sg11
S'Pagel'
p2468
sg13
S'Groupon'
p2469
sg15
g16
(S'\x07\xde\x07\x1d\x12\x07*\x01\xfb\xd0'
tRp2470
sg18
I2
sg19
S'Confirmed'
p2471
sg21
I214101
sg22
S''
sg24
I71089845
sg25
g26
(g27
g28
Vkathrynb1
tRp2472
(dp2473
g31
Nsg32
I00
sbsg33
g16
(S'\x07\xde\x07\x0b\x0b7(\x00\x0b\xb8'
tRp2474
sg35
S'apagel@groupon.com'
p2475
sg37
g26
(g27
g28
Vkathrynb1
tRp2476
(dp2477
g31
Nsg32
I00
sbsa(dp2478
g3
Nsg4
I00
sg5
S'GHC 2014 Gold  Academic, National Lab & NonProfit Sponsor'
p2479
sg7
S'Erik'
p2480
sg9
S'Director of Programs'
p2481
sg11
S'Russell'
p2482
sg13
S'CRA-W'
p2483
sg15
g16
(S'\x07\xde\x07\x16\x0f\x125\n\xae`'
tRp2484
sg18
I2
sg19
S'Confirmed'
p2485
sg21
I214104
sg22
S''
sg24
I71099296
sg25
g26
(g27
g28
Vkathrynb1
tRp2486
(dp2487
g31
Nsg32
I00
sbsg33
g16
(S'\x07\xde\x07\x0b\x0f:\x04\x08"\x08'
tRp2488
sg35
S'erik@cra.org'
p2489
sg37
g26
(g27
g28
Vkathrynb1
tRp2490
(dp2491
g31
Nsg32
I00
sbsa(dp2492
g3
Nsg4
I00
sg5
S'GHC 2014 Gold  Academic, National Lab & NonProfit Sponsor'
p2493
sg7
S'Pat'
p2494
sg9
S'COO'
p2495
sg11
S'Ryan'
p2496
sg13
S'ACM, ACM-W, CSTA, ACM-CCECC'
p2497
sg15
g16
(S'\x07\xde\x07\x16\x0f\x105\x07^\xb8'
tRp2498
sg18
I2
sg19
S'Confirmed'
p2499
sg21
I214104
sg22
S'wierzbicki@hq.acm.org'
p2500
sg24
I71100586
sg25
g26
(g27
g28
Vkathrynb1
tRp2501
(dp2502
g31
Nsg32
I00
sbsg33
g16
(S'\x07\xde\x07\x0b\x100\x0b\x04\x12\xf8'
tRp2503
sg35
S'ryanp@hq.acm.org'
p2504
sg37
g26
(g27
g28
Vkathrynb1
tRp2505
(dp2506
g31
Nsg32
I00
sbsa(dp2507
g3
Nsg4
I00
sg5
S'GHC 2014 Gold  Academic, National Lab & NonProfit Sponsor'
p2508
sg7
S'Deborah'
p2509
sg9
S'Dr.'
p2510
sg11
S'Lockhart'
p2511
sg13
S'National Science Foundation'
p2512
sg15
g16
(S'\x07\xde\x07\x16\x0e0\x14\x0e<\x88'
tRp2513
sg18
I2
sg19
S'Confirmed'
p2514
sg21
I214104
sg22
S''
sg24
I71100695
sg25
g26
(g27
g28
Vkathrynb1
tRp2515
(dp2516
g31
Nsg32
I00
sbsg33
g16
(S'\x07\xde\x07\x0b\x103\x0e\x08\n\x98'
tRp2517
sg35
S'dlockhar@nsf.gov'
p2518
sg37
g26
(g27
g28
Vkathrynb1
tRp2519
(dp2520
g31
Nsg32
I00
sbsa(dp2521
g3
Nsg4
I00
sg5
S'GHC 2014 Silver Industry Sponsor '
p2522
sg7
S'Victoria'
p2523
sg9
S'-'
sg11
S'Makras'
p2524
sg13
S'DoubleDutch'
p2525
sg15
g16
(S'\x07\xde\x07\x0b\x11\x11\x1e\x08"\x08'
tRp2526
sg18
I2
sg19
S'Confirmed'
p2527
sg21
I214102
sg22
S''
sg24
I71100730
sg25
g26
(g27
g28
Vkathrynb1
tRp2528
(dp2529
g31
Nsg32
I00
sbsg33
g16
(S'\x07\xde\x07\x0b\x105\x1e\x0c\xf8P'
tRp2530
sg35
S'victoria@doubledutch.me'
p2531
sg37
g26
(g27
g28
Vkathrynb1
tRp2532
(dp2533
g31
Nsg32
I00
sbsa(dp2534
g3
Nsg4
I00
sg5
S'GHC 2014 Silver Industry Sponsor '
p2535
sg7
S'Chris'
p2536
sg9
S'Director, Engineering'
p2537
sg11
S'Eager'
p2538
sg13
S'RelayRides'
p2539
sg15
g16
(S'\x07\xde\x07\x0e\x10\x1c\x1d\x03\xf7\xa0'
tRp2540
sg18
I2
sg19
S'Confirmed'
p2541
sg21
I214102
sg22
S''
sg24
I71101563
sg25
g26
(g27
g28
Vkathrynb1
tRp2542
(dp2543
g31
Nsg32
I00
sbsg33
g16
(S'\x07\xde\x07\x0b\x11;\n\x02\xb3h'
tRp2544
sg35
S'Christian@relayrides.com'
p2545
sg37
g26
(g27
g28
Vkathrynb1
tRp2546
(dp2547
g31
Nsg32
I00
sbsa(dp2548
g3
Nsg4
I00
sg5
S'GHC 2014 Bronze Academic, National Lab & NonProfit Sponsor'
p2549
sg7
S'Kayla'
p2550
sg9
S'-'
sg11
S'Bills'
p2551
sg13
S'Khan Academy'
p2552
sg15
g16
(S'\x07\xde\x07\x0e\x10"\x12\x0e\xc1X'
tRp2553
sg18
I2
sg19
S'Confirmed'
p2554
sg21
I214106
sg22
S''
sg24
I71101740
sg25
g26
(g27
g28
Vkathrynb1
tRp2555
(dp2556
g31
Nsg32
I00
sbsg33
g16
(S'\x07\xde\x07\x0b\x12\x0b9\t\xeb\x10'
tRp2557
sg35
S'kayla@khanacademy.org'
p2558
sg37
g26
(g27
g28
Vkathrynb1
tRp2559
(dp2560
g31
Nsg32
I00
sbsa(dp2561
g3
Nsg4
I00
sg5
S'GHC 2014 Bronze Academic, National Lab & NonProfit Sponsor'
p2562
sg7
S'Elizabeth'
p2563
sg9
S'Executive Associate'
p2564
sg11
S'Bernard'
p2565
sg13
S'George Washington University'
p2566
sg15
g16
(S'\x07\xde\x08\x1c\x11,\x1d\x07z\x10'
tRp2567
sg18
I2
sg19
S'Confirmed'
p2568
sg21
I214106
sg22
S'sheller@gwu.edu'
p2569
sg24
I71147537
sg25
g26
(g27
g28
VAttendee
tRp2570
(dp2571
g31
Nsg32
I00
sbsg33
g16
(S'\x07\xde\x07\x0e\t$\n\x0f&\xe8'
tRp2572
sg35
S'engineering@gwu.edu'
p2573
sg37
g26
(g27
g28
VSystem Process
tRp2574
(dp2575
g31
Nsg32
I00
sbsa(dp2576
g3
Nsg4
I00
sg5
S'GHC 2014 Bronze Industry Sponsor'
p2577
sg7
S'Megan'
p2578
sg9
S'University Relations Program Manager/Recruiter'
p2579
sg11
S'MacDonell'
p2580
sg13
S'FireEye'
p2581
sg15
g16
(S'\x07\xde\x07\x0e\x0f9\x14\x01\xb9h'
tRp2582
sg18
I2
sg19
S'Confirmed'
p2583
sg21
I214103
sg22
S''
sg24
I71164666
sg25
g26
(g27
g28
VAttendee
tRp2584
(dp2585
g31
Nsg32
I00
sbsg33
g16
(S'\x07\xde\x07\x0e\x0f\x03)\x0e\xe8h'
tRp2586
sg35
S'megan.macdonell@fireeye.com'
p2587
sg37
g26
(g27
g28
Vkathrynb1
tRp2588
(dp2589
g31
Nsg32
I00
sbsa(dp2590
g3
Nsg4
I00
sg5
S'GHC 2014 Silver Academic, National Lab & NonProfit Sponsor'
p2591
sg7
S'Kate'
p2592
sg9
S'Recruiter'
p2593
sg11
S'Carter'
p2594
sg13
S'Oak Ridge National Laboratory'
p2595
sg15
g16
(S'\x07\xde\x07\x10\x15\n\x16\x05\xc0\xa8'
tRp2596
sg18
I2
sg19
S'Confirmed'
p2597
sg21
I214105
sg22
S''
sg24
I71195537
sg25
g26
(g27
g28
VAttendee
tRp2598
(dp2599
g31
Nsg32
I00
sbsg33
g16
(S'\x07\xde\x07\x0f\x0b0\x12\x05\x14\xc8'
tRp2600
sg35
S'carterka@ornl.gov'
p2601
sg37
g26
(g27
g28
Vkathrynb1
tRp2602
(dp2603
g31
Nsg32
I00
sbsa(dp2604
g3
Nsg4
I00
sg5
S'GHC 2014 Silver Academic, National Lab & NonProfit Sponsor'
p2605
sg7
S'Danielle'
p2606
sg9
S'Program Director'
p2607
sg11
S'Strachman'
p2608
sg13
S'Thiel Fellowship'
p2609
sg15
g16
(S'\x07\xde\x07\x10\x15"\x05\x04\xc6\xa8'
tRp2610
sg18
I2
sg19
S'Confirmed'
p2611
sg21
I214105
sg22
S''
sg24
I71208456
sg25
g26
(g27
g28
VAttendee
tRp2612
(dp2613
g31
Nsg32
I00
sbsg33
g16
(S'\x07\xde\x07\x0f\x10;\x18\x0e\xe8h'
tRp2614
sg35
S'dstrachman@thielfoundation.org'
p2615
sg37
g26
(g27
g28
VSystem Process
tRp2616
(dp2617
g31
Nsg32
I00
sbsa(dp2618
g3
Nsg4
I00
sg5
S'GHC 2014 Silver Industry Sponsor '
p2619
sg7
S'Tiffany'
p2620
sg9
S'Director of Public Affairs'
p2621
sg11
S'Apczynski'
p2622
sg13
S'Zendesk'
p2623
sg15
g16
(S'\x07\xde\x07\x10\x15$;\r\xc7X'
tRp2624
sg18
I2
sg19
S'Confirmed'
p2625
sg21
I214102
sg22
S''
sg24
I71210161
sg25
g26
(g27
g28
VAttendee
tRp2626
(dp2627
g31
Nsg32
I00
sbsg33
g16
(S'\x07\xde\x07\x0f\x12\x15\x08\x03\xc4\xd8'
tRp2628
sg35
S'tiffany@zendesk.com'
p2629
sg37
g26
(g27
g28
Vkathrynb1
tRp2630
(dp2631
g31
Nsg32
I00
sbsa(dp2632
g3
Nsg4
I00
sg5
S'GHC 2014 Bronze Academic, National Lab & NonProfit Sponsor'
p2633
sg7
S'Cynthia'
p2634
sg9
S'Director, LERNet'
p2635
sg11
S'Brossman'
p2636
sg13
S'Boston University'
p2637
sg15
g16
(S'\x07\xde\x07\x10\x15-.\r:\xb8'
tRp2638
sg18
I2
sg19
S'Confirmed'
p2639
sg21
I214106
sg22
S'betke@bu.edu'
p2640
sg24
I71225264
sg25
g26
(g27
g28
VAttendee
tRp2641
(dp2642
g31
Nsg32
I00
sbsg33
g16
(S'\x07\xde\x07\x10\x08\x16\x1a\x0b\xbf\xd0'
tRp2643
sg35
S'cab@bu.edu'
p2644
sg37
g26
(g27
g28
VSystem Process
tRp2645
(dp2646
g31
Nsg32
I00
sbsa(dp2647
g3
Nsg4
I00
sg5
S'GHC 2014 Silver Industry Sponsor '
p2648
sg7
S'Rebecca'
p2649
sg9
S'Program Manager, Global Talent Acquisition'
p2650
sg11
S'Dockery'
p2651
sg13
S'MasterCard'
p2652
sg15
g16
(S'\x07\xde\x07\x11\x0e\x1a:\x01\x11p'
tRp2653
sg18
I2
sg19
S'Confirmed'
p2654
sg21
I214102
sg22
S''
sg24
I71240129
sg25
g26
(g27
g28
VAttendee
tRp2655
(dp2656
g31
Nsg32
I00
sbsg33
g16
(S'\x07\xde\x07\x10\r;\x03\x0b\xbf\xd0'
tRp2657
sg35
S'rebecca_dockery@mastercard.com'
p2658
sg37
g26
(g27
g28
VSystem Process
tRp2659
(dp2660
g31
Nsg32
I00
sbsa(dp2661
g3
Nsg4
I00
sg5
S'GHC 2014 Bronze Industry Sponsor'
p2662
sg7
S'Amy'
p2663
sg9
S'Corporate Recruiter'
p2664
sg11
S'Benjamin'
p2665
sg13
S'Rally Software Development'
p2666
sg15
g16
(S'\x07\xde\x07\x10\x16\x18\x08\x0b\x17\xd8'
tRp2667
sg18
I2
sg19
S'Confirmed'
p2668
sg21
I214103
sg22
S''
sg24
I71244117
sg25
g26
(g27
g28
VAttendee
tRp2669
(dp2670
g31
Nsg32
I00
sbsg33
g16
(S'\x07\xde\x07\x10\x10\x15\x0b\x0bJ\xa0'
tRp2671
sg35
S'abenjamin@rallydev.com'
p2672
sg37
g26
(g27
g28
Vkathrynb1
tRp2673
(dp2674
g31
Nsg32
I00
sbsa(dp2675
g3
Nsg4
I00
sg5
S'GHC 2014 Silver Academic, National Lab & NonProfit Sponsor'
p2676
sg7
S'Alison'
p2677
sg9
S'Director of Student Affairs'
p2678
sg11
S'Essary'
p2679
sg13
S'Arizon State University College of Health Solutions'
p2680
sg15
g16
(S'\x07\xde\x08\x03\r\x0c\x13\x02\x07\x88'
tRp2681
sg18
I2
sg19
S'Confirmed'
p2682
sg21
I214105
sg22
S''
sg24
I71247156
sg25
g26
(g27
g28
VAttendee
tRp2683
(dp2684
g31
Nsg32
I00
sbsg33
g16
(S"\x07\xde\x07\x10\x12\x06'\x0c\\\x10"
tRp2685
sg35
S'alison.essary@asu.edu'
p2686
sg37
g26
(g27
g28
VSystem Process
tRp2687
(dp2688
g31
Nsg32
I00
sbsa(dp2689
g3
Nsg4
I00
sg5
S'GHC 2014 Platinum Sponsor (available to ABI Partners Only)'
p2690
sg7
S'Jennifer'
p2691
sg9
S'Program Manager'
p2692
sg11
S'Bouchard'
p2693
sg13
S'Facebook'
p2694
sg15
g16
(S'\x07\xde\t\x0e\n\x070\x0c)H'
tRp2695
sg18
I2
sg19
S'Confirmed'
p2696
sg21
I214100
sg22
S''
sg24
I71251385
sg25
g26
(g27
g28
Vkathrynb1
tRp2697
(dp2698
g31
Nsg32
I00
sbsg33
g16
(S"\x07\xde\x07\x10\x16\x0c\x12\x00'\x10"
tRp2699
sg35
S'jbouchard@fb.com'
p2700
sg37
g26
(g27
g28
Vkathrynb1
tRp2701
(dp2702
g31
Nsg32
I00
sbsa(dp2703
g3
Nsg4
I00
sg5
S'GHC 2014 Silver Industry Sponsor '
p2704
sg7
S'Bruce'
p2705
sg9
S'Manager - University Relations & National Diversity Partners'
p2706
sg11
S'Soltys'
p2707
sg13
S'Verizon'
p2708
sg15
g16
(S'\x07\xde\x07\x11\x0b\x16\x00\x08I\x18'
tRp2709
sg18
I2
sg19
S'Confirmed'
p2710
sg21
I214102
sg22
S''
sg24
I71260279
sg25
g26
(g27
g28
VAttendee
tRp2711
(dp2712
g31
Nsg32
I00
sbsg33
g16
(S'\x07\xde\x07\x11\x07\x10*\x00\xea`'
tRp2713
sg35
S'bruce.soltys@verizon.com'
p2714
sg37
g26
(g27
g28
Vkathrynb1
tRp2715
(dp2716
g31
Nsg32
I00
sbsa(dp2717
g3
Nsg4
I00
sg5
S'GHC 2014 Silver Industry Sponsor '
p2718
sg7
S'Sarah'
p2719
sg9
S'Events Marketing Manager'
p2720
sg11
S'Freedman'
p2721
sg13
S'Mediaocean'
p2722
sg15
g16
(S'\x07\xde\x07\x15\x17(\x14\n\xfc\x80'
tRp2723
sg18
I2
sg19
S'Confirmed'
p2724
sg21
I214102
sg22
S''
sg24
I71267254
sg25
g26
(g27
g28
VAttendee
tRp2725
(dp2726
g31
Nsg32
I00
sbsg33
g16
(S'\x07\xde\x07\x11\n\x07$\x06\\\xe8'
tRp2727
sg35
S'sfreedman@mediaocean.com'
p2728
sg37
g26
(g27
g28
Vkathrynb1
tRp2729
(dp2730
g31
Nsg32
I00
sbsa(dp2731
g3
Nsg4
I00
sg5
S'GHC 2014 Platinum Sponsor (available to ABI Partners Only)'
p2732
sg7
S'Rane'
p2733
sg9
S'Principal Research Director'
p2734
sg11
S'Johnson-Stempson'
p2735
sg13
S'Microsoft'
p2736
sg15
g16
(S'\x07\xde\t\x03\x0f\x102\x01\x11p'
tRp2737
sg18
I2
sg19
S'Confirmed'
p2738
sg21
I214100
sg22
S''
sg24
I71269158
sg25
g26
(g27
g28
Vkathrynb1
tRp2739
(dp2740
g31
Nsg32
I00
sbsg33
g16
(S'\x07\xde\x07\x11\n2!\x0c\xec\x98'
tRp2741
sg35
S'ranej@microsoft.com'
p2742
sg37
g26
(g27
g28
Vkathrynb1
tRp2743
(dp2744
g31
Nsg32
I00
sbsa(dp2745
g3
Nsg4
I00
sg5
S'GHC 2014 Silver Academic, National Lab & NonProfit Sponsor'
p2746
sg7
S'Nikki'
p2747
sg9
S'Office Manager'
p2748
sg11
S'Lewis'
p2749
sg13
S'Diversity/Careers'
p2750
sg15
g16
(S'\x07\xde\x07\x18\x124\x06\x0b\xdb('
tRp2751
sg18
I2
sg19
S'Confirmed'
p2752
sg21
I214105
sg22
S'editor@diversitycareers.com'
p2753
sg24
I71269628
sg25
g26
(g27
g28
Vkathrynb1
tRp2754
(dp2755
g31
Nsg32
I00
sbsg33
g16
(S'\x07\xde\x07\x11\x0b\x06/\x002\xc8'
tRp2756
sg35
S'nekeyia@diversitycareers.com'
p2757
sg37
g26
(g27
g28
Vkathrynb1
tRp2758
(dp2759
g31
Nsg32
I00
sbsa(dp2760
g3
Nsg4
I00
sg5
S'GHC 2014 Gold  Academic, National Lab & NonProfit Sponsor'
p2761
sg7
S'Tiffany'
p2762
sg9
S'Associate Director of Diversity Achievement'
p2763
sg11
S'Reardon'
p2764
sg13
S'University of California,  Berkeley'
p2765
sg15
g16
(S'\x07\xde\x08\x03\r\t#\x0b\x17\xd8'
tRp2766
sg18
I2
sg19
S'Confirmed'
p2767
sg21
I214104
sg22
S'atabor@berkeley.edu'
p2768
sg24
I71274950
sg25
g26
(g27
g28
VAttendee
tRp2769
(dp2770
g31
Nsg32
I00
sbsg33
g16
(S'\x07\xde\x07\x11\r\x1d\x12\x0b\x8d\x08'
tRp2771
sg35
S'treardon@berkeley.edu'
p2772
sg37
g26
(g27
g28
Vjohnsoja
tRp2773
(dp2774
g31
Nsg32
I00
sbsa(dp2775
g3
Nsg4
I00
sg5
S'GHC 2014 Silver Academic, National Lab & NonProfit Sponsor'
p2776
sg7
S'Ruth'
p2777
sg9
S'Community Leadership Team member'
p2778
sg11
S'Cheesley'
p2779
sg13
S'Joomla!'
p2780
sg15
g16
(S'\x07\xde\x07\x18\x12\x13\x1f\x05\xcc`'
tRp2781
sg18
I2
sg19
S'Confirmed'
p2782
sg21
I214105
sg22
S''
sg24
I71290810
sg25
g26
(g27
g28
VAttendee
tRp2783
(dp2784
g31
Nsg32
I00
sbsg33
g16
(S'\x07\xde\x07\x12\x04\x04\x19\x0bq\xb0'
tRp2785
sg35
S'ruth.cheesley@community.joomla.org'
p2786
sg37
g26
(g27
g28
Vkathrynb1
tRp2787
(dp2788
g31
Nsg32
I00
sbsa(dp2789
g3
Nsg4
I00
sg5
S'GHC 2014 Silver Academic, National Lab & NonProfit Sponsor'
p2790
sg7
S'Vyria'
p2791
sg9
S'Director Internet Leadership Programmes'
p2792
sg11
S'Paselk'
p2793
sg13
S'Internet Society'
p2794
sg15
g16
(S'\x07\xde\x07\x16\x0f7\x01\x04Qx'
tRp2795
sg18
I2
sg19
S'Confirmed'
p2796
sg21
I214105
sg22
S'cowieson@isoc.org'
p2797
sg24
I71301264
sg25
g26
(g27
g28
VAttendee
tRp2798
(dp2799
g31
Nsg32
I00
sbsg33
g16
(S'\x07\xde\x07\x12\n6)\x06\xd2\x18'
tRp2800
sg35
S'paselk@isoc.org'
p2801
sg37
g26
(g27
g28
Vkathrynb1
tRp2802
(dp2803
g31
Nsg32
I00
sbsa(dp2804
g3
Nsg4
I00
sg5
S'GHC 2014 Silver Academic, National Lab & NonProfit Sponsor'
p2805
sg7
S'Christine'
p2806
sg9
S'Lecturer SOE'
p2807
sg11
S'Alvarado'
p2808
sg13
S'University of California, San Diego'
p2809
sg15
g16
(S'\x07\xde\x08\x03\r\t\x0f\rFp'
tRp2810
sg18
I2
sg19
S'Confirmed'
p2811
sg21
I214105
sg22
S''
sg24
I71302837
sg25
g26
(g27
g28
Vtinapratt
tRp2812
(dp2813
g31
Nsg32
I00
sbsg33
g16
(S"\x07\xde\x07\x12\x0b \x12\x00'\x10"
tRp2814
sg35
S'alvarado@cs.ucsd.edu'
p2815
sg37
g26
(g27
g28
Vjohnsoja
tRp2816
(dp2817
g31
Nsg32
I00
sbsa(dp2818
g3
Nsg4
I00
sg5
S'GHC 2014 Silver Industry Sponsor '
p2819
sg7
S'Cathleen'
p2820
sg9
S'Director, IT'
p2821
sg11
S'Cook'
p2822
sg13
S'Capital One'
p2823
sg15
g16
(S'\x07\xde\x08\x0f\n\x07\x18\x04Qx'
tRp2824
sg18
I2
sg19
S'Confirmed'
p2825
sg21
I214102
sg22
S''
sg24
I71303236
sg25
g26
(g27
g28
VAttendee
tRp2826
(dp2827
g31
Nsg32
I00
sbsg33
g16
(S'\x07\xde\x07\x12\x0b8\x0e\x04\xc6\xa8'
tRp2828
sg35
S'caty.cook@capitalone.com'
p2829
sg37
g26
(g27
g28
Vkathrynb1
tRp2830
(dp2831
g31
Nsg32
I00
sbsa(dp2832
g3
Nsg4
I00
sg5
S'GHC 2014 Silver Academic, National Lab & NonProfit Sponsor'
p2833
sg7
S'Shane'
p2834
sg9
S'Director of Admissions'
p2835
sg11
S'Topping'
p2836
sg13
S'Stevens Institute of Technology'
p2837
sg15
g16
(S'\x07\xde\x07\x16\n\x1c\x18\x00\xc3P'
tRp2838
sg18
I2
sg19
S'Confirmed'
p2839
sg21
I214105
sg22
S'Adriana.Compagnoni@stevens.edu'
p2840
sg24
I71304608
sg25
g26
(g27
g28
VAttendee
tRp2841
(dp2842
g31
Nsg32
I00
sbsg33
g16
(S'\x07\xde\x07\x12\x0c\x18\x1b\tC\x18'
tRp2843
sg35
S'stopping@stevens.edu'
p2844
sg37
g26
(g27
g28
VSystem Process
tRp2845
(dp2846
g31
Nsg32
I00
sbsa(dp2847
g3
Nsg4
I00
sg5
S'GHC 2014 Silver Industry Sponsor '
p2848
sg7
S'Joanne'
p2849
sg9
S'Executive Assistant'
p2850
sg11
S'Dill'
p2851
sg13
S'Pivotal Software'
p2852
sg15
g16
(S'\x07\xde\x08\x03\r\x034\x07GH'
tRp2853
sg18
I2
sg19
S'Confirmed'
p2854
sg21
I214102
sg22
S'bkempanowski@gopivotal.com'
p2855
sg24
I71304935
sg25
g26
(g27
g28
VAttendee
tRp2856
(dp2857
g31
Nsg32
I00
sbsg33
g16
(S'\x07\xde\x07\x12\x0c%\x1b\x03\xeb\xe8'
tRp2858
sg35
S'jdill@gopivotal.com'
p2859
sg37
g26
(g27
g28
Vjohnsoja
tRp2860
(dp2861
g31
Nsg32
I00
sbsa(dp2862
g3
Nsg4
I00
sg5
S'GHC 2014 Silver Industry Sponsor '
p2863
sg7
S'Lee'
p2864
sg9
S'-'
sg11
S'Wills-Irvine'
p2865
sg13
S'Qualcomm'
p2866
sg15
g16
(S'\x07\xde\x08\x1d\x116\x17\t3x'
tRp2867
sg18
I2
sg19
S'Confirmed'
p2868
sg21
I214102
sg22
S''
sg24
I71306087
sg25
g26
(g27
g28
Vkathrynb1
tRp2869
(dp2870
g31
Nsg32
I00
sbsg33
g16
(S'\x07\xde\x07\x12\r\x08\x16\x03\xa9\x80'
tRp2871
sg35
S'lwirvine@qualcomm.com'
p2872
sg37
g26
(g27
g28
Vkathrynb1
tRp2873
(dp2874
g31
Nsg32
I00
sbsa(dp2875
g3
Nsg4
I00
sg5
S'GHC 2014 Platinum Sponsor (available to ABI Partners Only)'
p2876
sg7
S'Dawn'
p2877
sg9
S'Marketplace Event Coordinator'
p2878
sg11
S'Fredericy'
p2879
sg13
S'Dell, Inc.'
p2880
sg15
g16
(S'\x07\xde\x08\x0b\n\x1d&\n\xa2\xa8'
tRp2881
sg18
I2
sg19
S'Confirmed'
p2882
sg21
I214100
sg22
S''
sg24
I71306211
sg25
g26
(g27
g28
Vkathrynb1
tRp2883
(dp2884
g31
Nsg32
I00
sbsg33
g16
(S'\x07\xde\x07\x12\r\r\x1a\x04E\xc0'
tRp2885
sg35
S'Dawn_Fredericy@DellTeam.com'
p2886
sg37
g26
(g27
g28
Vkathrynb1
tRp2887
(dp2888
g31
Nsg32
I00
sbsa(dp2889
g3
Nsg4
I00
sg5
S'GHC 2014 Silver Academic, National Lab & NonProfit Sponsor'
p2890
sg7
S'Elizabeth'
p2891
sg9
S'Graduate Program Coordinator'
p2892
sg11
S'Bunge'
p2893
sg13
S'IUPUI Informatics and Computing'
p2894
sg15
g16
(S"\x07\xde\x08\x16\x0c!'\x05;\xd8"
tRp2895
sg18
I2
sg19
S'Confirmed'
p2896
sg21
I214105
sg22
S''
sg24
I71309655
sg25
g26
(g27
g28
VAttendee
tRp2897
(dp2898
g31
Nsg32
I00
sbsg33
g16
(S'\x07\xde\x07\x12\x0f\x03+\x0c5\x00'
tRp2899
sg35
S'ebunge@iupui.edu'
p2900
sg37
g26
(g27
g28
Vkathrynb1
tRp2901
(dp2902
g31
Nsg32
I00
sbsa(dp2903
g3
Nsg4
I00
sg5
S'GHC 2014 Platinum Sponsor (available to ABI Partners Only)'
p2904
sg7
S'Irene'
p2905
sg9
S'Sr. Manager, Diversity'
p2906
sg11
S'Kendall'
p2907
sg13
S'Apple'
p2908
sg15
g16
(S'\x07\xde\x08\x07\x11;\x13\x0b\x98\xc0'
tRp2909
sg18
I2
sg19
S'Confirmed'
p2910
sg21
I214100
sg22
S''
sg24
I71356623
sg25
g26
(g27
g28
Vkathrynb1
tRp2911
(dp2912
g31
Nsg32
I00
sbsg33
g16
(S"\x07\xde\x07\x15\n'\x1d\n\xd5p"
tRp2913
sg35
S'ikendall@apple.com'
p2914
sg37
g26
(g27
g28
VmichaelI2
tRp2915
(dp2916
g31
Nsg32
I00
sbsa(dp2917
g3
Nsg4
I00
sg5
S'GHC 2014 Bronze Industry Sponsor'
p2918
sg7
S'Caroline'
p2919
sg9
S'Business I/S Manager'
p2920
sg11
S'Cronin'
p2921
sg13
S'Dow'
p2922
sg15
g16
(S'\x07\xde\x07\x15\x0f3\x00\x05~@'
tRp2923
sg18
I2
sg19
S'Confirmed'
p2924
sg21
I214103
sg22
S'llabraham@dow.com'
p2925
sg24
I71368122
sg25
g26
(g27
g28
VAttendee
tRp2926
(dp2927
g31
Nsg32
I00
sbsg33
g16
(S'\x07\xde\x07\x15\x0f\x14\r\x03\x01\x88'
tRp2928
sg35
S'carolinecronin@dow.com'
p2929
sg37
g26
(g27
g28
VSystem Process
tRp2930
(dp2931
g31
Nsg32
I00
sbsa(dp2932
g3
Nsg4
I00
sg5
S'GHC 2014 Silver Industry Sponsor '
p2933
sg7
S'Kenzie'
p2934
sg9
S'Software Engineer IV'
p2935
sg11
S'Harper'
p2936
sg13
S'Ericsson'
p2937
sg15
g16
(S'\x07\xde\x07\x15\x11\x19\x1c\tC\x18'
tRp2938
sg18
I2
sg19
S'Confirmed'
p2939
sg21
I214102
sg22
S''
sg24
I71371977
sg25
g26
(g27
g28
VAttendee
tRp2940
(dp2941
g31
Nsg32
I00
sbsg33
g16
(S'\x07\xde\x07\x15\x11\x0b8\x06A\x90'
tRp2942
sg35
S'flicka.enloe@ericsson.com'
p2943
sg37
g26
(g27
g28
Vkathrynb1
tRp2944
(dp2945
g31
Nsg32
I00
sbsa(dp2946
g3
Nsg4
I00
sg5
S'GHC 2014 Bronze Academic, National Lab & NonProfit Sponsor'
p2947
sg7
S'Sandy'
p2948
sg9
S'Instructor'
p2949
sg11
S'Vlasnik'
p2950
sg13
S'University of Nebraska, Omaha'
p2951
sg15
g16
(S'\x07\xde\x08\x03\r\t4\x08"\x08'
tRp2952
sg18
I2
sg19
S'Confirmed'
p2953
sg21
I214106
sg22
S''
sg24
I71375076
sg25
g26
(g27
g28
Vtinapratt
tRp2954
(dp2955
g31
Nsg32
I00
sbsg33
g16
(S'\x07\xde\x07\x15\x14\x08)\x08\xd9\xa0'
tRp2956
sg35
S'svlasnik@unomaha.edu'
p2957
sg37
g26
(g27
g28
Vjohnsoja
tRp2958
(dp2959
g31
Nsg32
I00
sbsa(dp2960
g3
Nsg4
I00
sg5
S'GHC 2014 Silver Academic, National Lab & NonProfit Sponsor'
p2961
sg7
S'Janet'
p2962
sg9
S'Associate Professor'
p2963
sg11
S'Davis'
p2964
sg13
S'LACAFI'
p2965
sg15
g16
(S'\x07\xde\x07\x15\x15\x0c\x02\nT\x88'
tRp2966
sg18
I2
sg19
S'Confirmed'
p2967
sg21
I214105
sg22
S''
sg24
I71375191
sg25
g26
(g27
g28
Vtinapratt
tRp2968
(dp2969
g31
Nsg32
I00
sbsg33
g16
(S'\x07\xde\x07\x15\x14\x0e\x00\x01\x92X'
tRp2970
sg35
S'davisjan@cs.grinnell.edu'
p2971
sg37
g26
(g27
g28
Vkathrynb1
tRp2972
(dp2973
g31
Nsg32
I00
sbsa(dp2974
g3
Nsg4
I00
sg5
S'GHC 2014 Silver Industry Sponsor '
p2975
sg7
S'Ryan'
p2976
sg9
S'Technical Recruiter'
p2977
sg11
S'Sapper'
p2978
sg13
S'Optimizely'
p2979
sg15
g16
(S'\x07\xde\x07\x16\x0b\x04"\x02\xdax'
tRp2980
sg18
I2
sg19
S'Confirmed'
p2981
sg21
I214102
sg22
S''
sg24
I71394302
sg25
g26
(g27
g28
VAttendee
tRp2982
(dp2983
g31
Nsg32
I00
sbsg33
g16
(S'\x07\xde\x07\x16\t6\x15\x03\xc4\xd8'
tRp2984
sg35
S'ryan.sapper@optimizely.com'
p2985
sg37
g26
(g27
g28
Vkathrynb1
tRp2986
(dp2987
g31
Nsg32
I00
sbsa(dp2988
g3
Nsg4
I00
sg5
S'GHC 2014 Bronze Academic, National Lab & NonProfit Sponsor'
p2989
sg7
S'Sharon'
p2990
sg9
S'Department Head'
p2991
sg11
S'Simmons'
p2992
sg13
S'James Madison University'
p2993
sg15
g16
(S'\x07\xde\x07\x17\r\x0b$\r\xd6\xf8'
tRp2994
sg18
I2
sg19
S'Confirmed'
p2995
sg21
I214106
sg22
S'laycockr@jmu.edu'
p2996
sg24
I71437430
sg25
g26
(g27
g28
Vtinapratt
tRp2997
(dp2998
g31
Nsg32
I00
sbsg33
g16
(S'\x07\xde\x07\x17\x0b\x05\x1b\x06\xf9('
tRp2999
sg35
S'simmonsj@jmu.edu'
p3000
sg37
g26
(g27
g28
Vkathrynb1
tRp3001
(dp3002
g31
Nsg32
I00
sbsa(dp3003
g3
Nsg4
I00
sg5
S'GHC 2014 Platinum Sponsor (available to ABI Partners Only)'
p3004
sg7
S'Karen'
p3005
sg9
S'Recruiting Team Lead'
p3006
sg11
S'Sperling'
p3007
sg13
S'Dropbox'
p3008
sg15
g16
(S'\x07\xde\x07\x18\x12:\x00\x03@\x08'
tRp3009
sg18
I2
sg19
S'Confirmed'
p3010
sg21
I214100
sg22
S'casey@dropbox.com'
p3011
sg24
I71492463
sg25
g26
(g27
g28
Vkathrynb1
tRp3012
(dp3013
g31
Nsg32
I00
sbsg33
g16
(S'\x07\xde\x07\x18\x127\x10\x07+\xf0'
tRp3014
sg35
S'Karen@dropbox.com'
p3015
sg37
g26
(g27
g28
Vkathrynb1
tRp3016
(dp3017
g31
Nsg32
I00
sbsa(dp3018
g3
Nsg4
I00
sg5
S'GHC 2014 Silver Academic, National Lab & NonProfit Sponsor'
p3019
sg7
S'Linda'
p3020
sg9
S'Accounting Specialist II'
p3021
sg11
S'Robinson'
p3022
sg13
S'University of Tennessee'
p3023
sg15
g16
(S"\x07\xde\x07\x19\x0c'&\x018\x80"
tRp3024
sg18
I2
sg19
S'Confirmed'
p3025
sg21
I214105
sg22
S'mkelle16@utk.edu'
p3026
sg24
I71514310
sg25
g26
(g27
g28
Vtinapratt
tRp3027
(dp3028
g31
Nsg32
I00
sbsg33
g16
(S'\x07\xde\x07\x19\x0b6\x1f\rm\x80'
tRp3029
sg35
S'lindar@utk.edu'
p3030
sg37
g26
(g27
g28
Vkathrynb1
tRp3031
(dp3032
g31
Nsg32
I00
sbsa(dp3033
g3
Nsg4
I00
sg5
S'Additional Sponsorship Opportunities'
p3034
sg7
S'Alison'
p3035
sg9
S'Vice President, Oracle Academy'
p3036
sg11
S'Derbenwick Miller'
p3037
sg13
S'Oracle Academy'
p3038
sg15
g16
(S'\x07\xde\x07\x19\x10\x04+\x08I\x18'
tRp3039
sg18
I2
sg19
S'Confirmed'
p3040
sg21
I214301
sg22
S'tzel.ramos@oracle.com'
p3041
sg24
I71521721
sg25
g26
(g27
g28
VAttendee
tRp3042
(dp3043
g31
Nsg32
I00
sbsg33
g16
(S'\x07\xde\x07\x19\x0f\x1e\x02\x01D8'
tRp3044
sg35
S'alison.derbenwick@oracle.com'
p3045
sg37
g26
(g27
g28
Vkathrynb1
tRp3046
(dp3047
g31
Nsg32
I00
sbsa(dp3048
g3
Nsg4
I00
sg5
S'GHC 2014 Bronze Academic, National Lab & NonProfit Sponsor'
p3049
sg7
S'Emanuela'
p3050
sg9
S'-'
sg11
S'Neagu'
p3051
sg13
S'Wikimedia Foundation'
p3052
sg15
g16
(S'\x07\xde\x07\x1c\n\x1d\x1a\x01,\xc8'
tRp3053
sg18
I2
sg19
S'Confirmed'
p3054
sg21
I214106
sg22
S''
sg24
I71525610
sg25
g26
(g27
g28
Vkathrynb1
tRp3055
(dp3056
g31
Nsg32
I00
sbsg33
g16
(S'\x07\xde\x07\x19\x13\x0f2\x0e\xa6\x00'
tRp3057
sg35
S'eneagu@wikimedia.org'
p3058
sg37
g26
(g27
g28
Vkathrynb1
tRp3059
(dp3060
g31
Nsg32
I00
sbsa(dp3061
g3
Nsg4
I00
sg5
S'Additional Sponsorship Opportunities'
p3062
sg7
S'Rodney'
p3063
sg9
S'Manager, Talent Acquisition'
p3064
sg11
S'Nathan'
p3065
sg13
S'PROS'
p3066
sg15
g16
(S'\x07\xde\x08\x03\r\x04\x0c\r:\xb8'
tRp3067
sg18
I2
sg19
S'Confirmed'
p3068
sg21
I214301
sg22
S''
sg24
I71543473
sg25
g26
(g27
g28
VAttendee
tRp3069
(dp3070
g31
Nsg32
I00
sbsg33
g16
(S'\x07\xde\x07\x1b\x0c)\x19\x06\xb6\xc0'
tRp3071
sg35
S'rnathan@pros.com'
p3072
sg37
g26
(g27
g28
VSystem Process
tRp3073
(dp3074
g31
Nsg32
I00
sbsa(dp3075
g3
Nsg4
I00
sg5
S'GHC 2014 Bronze Industry Sponsor'
p3076
sg7
S'Laura'
p3077
sg9
S'-'
sg11
S'Grantham'
p3078
sg13
S'Flipboard'
p3079
sg15
g16
(S'\x07\xde\x07\x1e\x10\x16\t\x03\r@'
tRp3080
sg18
I2
sg19
S'Confirmed'
p3081
sg21
I214103
sg22
S''
sg24
I71665626
sg25
g26
(g27
g28
Vkathrynb1
tRp3082
(dp3083
g31
Nsg32
I00
sbsg33
g16
(S'\x07\xde\x07\x1e\x10\x134\x05\x14\xc8'
tRp3084
sg35
S'lgrantham@flipboard.com'
p3085
sg37
g26
(g27
g28
Vkathrynb1
tRp3086
(dp3087
g31
Nsg32
I00
sbsa(dp3088
g3
Nsg4
I00
sg5
S'GHC 2014 Silver Industry Sponsor '
p3089
sg7
S'Kirsten'
p3090
sg9
S'-'
sg11
S'Davidson'
p3091
sg13
S'Visa'
p3092
sg15
g16
(S'\x07\xde\x07\x1e\x10\x1c4\nT\x88'
tRp3093
sg18
I2
sg19
S'Confirmed'
p3094
sg21
I214102
sg22
S'pvogt@visa.com'
p3095
sg24
I71665836
sg25
g26
(g27
g28
Vkathrynb1
tRp3096
(dp3097
g31
Nsg32
I00
sbsg33
g16
(S'\x07\xde\x07\x1e\x10\x1c\x02\x03\x8e('
tRp3098
sg35
S'kdavidso@visa.com'
p3099
sg37
g26
(g27
g28
Vkathrynb1
tRp3100
(dp3101
g31
Nsg32
I00
sbsa(dp3102
g3
Nsg4
I00
sg5
S'GHC 2014 Bronze Industry Sponsor'
p3103
sg7
S'Betsy'
p3104
sg9
S'-'
sg11
S'Waliszewski'
p3105
sg13
S"O'Reilly Media"
p3106
sg15
g16
(S'\x07\xde\x08\x0b\x11\x0b\x11\x02\x17('
tRp3107
sg18
I2
sg19
S'Confirmed'
p3108
sg21
I214103
sg22
S''
sg24
I72037306
sg25
g26
(g27
g28
Vkathrynb1
tRp3109
(dp3110
g31
Nsg32
I00
sbsg33
g16
(S'\x07\xde\x08\x0b\x11\n\x04\r\xbb\xa0'
tRp3111
sg35
S'betsy@oreilly.com'
p3112
sg37
g26
(g27
g28
Vkathrynb1
tRp3113
(dp3114
g31
Nsg32
I00
sbsa(dp3115
g3
Nsg4
I00
sg5
S'Additional Sponsorship Opportunities'
p3116
sg7
S'Jane '
p3117
sg9
S'-'
sg11
S'Galli'
p3118
sg13
S'Oracle'
p3119
sg15
g16
(S'\x07\xde\x08\x0c\x13\x03\x0b\x07\x04\xe0'
tRp3120
sg18
I2
sg19
S'Confirmed'
p3121
sg21
I214301
sg22
S''
sg24
I72080352
sg25
g26
(g27
g28
Vkathrynb1
tRp3122
(dp3123
g31
Nsg32
I00
sbsg33
g16
(S'\x07\xde\x08\x0c\x13\x01#\x0c\\\x10'
tRp3124
sg35
S'jane.galli@oracle.com'
p3125
sg37
g26
(g27
g28
Vkathrynb1
tRp3126
(dp3127
g31
Nsg32
I00
sbsa(dp3128
g3
Nsg4
I00
sg5
S'GHC 2014 Bronze Industry Sponsor'
p3129
sg7
S'Robin'
p3130
sg9
S'-'
sg11
S'Kusnick'
p3131
sg13
S'SAP'
p3132
sg15
g16
(S'\x07\xde\x08\r\x0f45\x0b\xf2\x98'
tRp3133
sg18
I2
sg19
S'Confirmed'
p3134
sg21
I214103
sg22
S''
sg24
I72148497
sg25
g26
(g27
g28
Vkathrynb1
tRp3135
(dp3136
g31
Nsg32
I00
sbsg33
g16
(S'\x07\xde\x08\r\x0b-6\x01\xad\xb0'
tRp3137
sg35
S'robin.kusnick@sap.com'
p3138
sg37
g26
(g27
g28
Vkathrynb1
tRp3139
(dp3140
g31
Nsg32
I00
sbsa(dp3141
g3
Nsg4
I00
sg5
S'GHC 2014 Silver Academic, National Lab & NonProfit Sponsor'
p3142
sg7
S'Jennifer'
p3143
sg9
S'Associate Chair for Undergraduate Studies and Outreach Activities, Associate Professor'
p3144
sg11
S'Leopold'
p3145
sg13
S'Missouri University of S&T'
p3146
sg15
g16
(S'\x07\xde\x08\r\x0f#\x18\x05\xf3p'
tRp3147
sg18
I2
sg19
S'Confirmed'
p3148
sg21
I214105
sg22
S''
sg24
I72148960
sg25
g26
(g27
g28
Vtinapratt
tRp3149
(dp3150
g31
Nsg32
I00
sbsg33
g16
(S'\x07\xde\x08\r\x0b74\x01\xf0\x18'
tRp3151
sg35
S'leopoldj@mst.edu'
p3152
sg37
g26
(g27
g28
Vkathrynb1
tRp3153
(dp3154
g31
Nsg32
I00
sbsa(dp3155
g3
Nsg4
I00
sg5
S'GHC 2014 Silver Industry Sponsor '
p3156
sg7
S'Lisa'
p3157
sg9
S'-'
sg11
S'Rebarchek-Wodtke'
p3158
sg13
S'Target Corporation'
p3159
sg15
g16
(S'\x07\xde\x08\r\x0f\x1c"\x00Bh'
tRp3160
sg18
I2
sg19
S'Confirmed'
p3161
sg21
I214102
sg22
S''
sg24
I72158747
sg25
g26
(g27
g28
Vkathrynb1
tRp3162
(dp3163
g31
Nsg32
I00
sbsg33
g16
(S'\x07\xde\x08\r\x0f\x1a(\x04:\x08'
tRp3164
sg35
S'Lisa.Rebarchek-Wodtke@target.com'
p3165
sg37
g26
(g27
g28
Vkathrynb1
tRp3166
(dp3167
g31
Nsg32
I00
sbsa(dp3168
g3
Nsg4
I00
sg5
S'Additional Sponsorship Opportunities'
p3169
sg7
S'Christy'
p3170
sg9
S'-'
sg11
S'Albright'
p3171
sg13
S'Tagged'
p3172
sg15
g16
(S'\x07\xde\x08\r\x17\x1b)\x0e0\xd0'
tRp3173
sg18
I2
sg19
S'Confirmed'
p3174
sg21
I214301
sg22
S''
sg24
I72167808
sg25
g26
(g27
g28
Vkathrynb1
tRp3175
(dp3176
g31
Nsg32
I00
sbsg33
g16
(S'\x07\xde\x08\r\x17\x18$\r+\x18'
tRp3177
sg35
S'calbright@tagged.com'
p3178
sg37
g26
(g27
g28
Vkathrynb1
tRp3179
(dp3180
g31
Nsg32
I00
sbsa(dp3181
g3
Nsg4
I00
sg5
S'GHC 2014 Bronze Academic, National Lab & NonProfit Sponsor'
p3182
sg7
S'Melanie'
p3183
sg9
S'Outreach Manager'
p3184
sg11
S'Larsen'
p3185
sg13
S'Harvard SPH, CCDD'
p3186
sg15
g16
(S'\x07\xde\x08\x16\n)!\x08\xd9\xa0'
tRp3187
sg18
I2
sg19
S'Confirmed'
p3188
sg21
I214106
sg22
S''
sg24
I72188628
sg25
g26
(g27
g28
Vtinapratt
tRp3189
(dp3190
g31
Nsg32
I00
sbsg33
g16
(S'\x07\xde\x08\x0e\x0c\x16\x1b\t\x00\xb0'
tRp3191
sg35
S'malarsen@hsph.harvard.edu'
p3192
sg37
g26
(g27
g28
Vkathrynb1
tRp3193
(dp3194
g31
Nsg32
I00
sbsa(dp3195
g3
Nsg4
I00
sg5
S'GHC 2014 Bronze Academic, National Lab & NonProfit Sponsor'
p3196
sg7
S'Eleni'
p3197
sg9
S'Professor'
p3198
sg11
S'Stroulia'
p3199
sg13
S'University of Alberta - Canada'
p3200
sg15
g16
(S'\x07\xde\x08\x15\x0e\x03\x18\x07\xbcx'
tRp3201
sg18
I2
sg19
S'Confirmed'
p3202
sg21
I214106
sg22
S'mario.nascimento@ualberta.ca'
p3203
sg24
I72201397
sg25
g26
(g27
g28
Vtinapratt
tRp3204
(dp3205
g31
Nsg32
I00
sbsg33
g16
(S'\x07\xde\x08\x0e\x12\x0b\x05\x02\xbf '
tRp3206
sg35
S'stroulia@cs.ualberta.ca'
p3207
sg37
g26
(g27
g28
Vkathrynb1
tRp3208
(dp3209
g31
Nsg32
I00
sbsa(dp3210
g3
Nsg4
I00
sg5
S'Enterprise Packages, Partners Only'
p3211
sg7
S'Brian'
p3212
sg9
S'Sr. VP & CTO'
p3213
sg11
S'Pawlowski'
p3214
sg13
S'NetApp, Inc.'
p3215
sg15
g16
(S'\x07\xde\x08\x0f\x12\r\x14\x04\xaf8'
tRp3216
sg18
I2
sg19
S'Confirmed'
p3217
sg21
I218908
sg22
S''
sg24
I72241962
sg25
g26
(g27
g28
Vkathrynb1
tRp3218
(dp3219
g31
Nsg32
I00
sbsg33
g16
(S'\x07\xde\x08\x0f\x12\x0b0\x01\x86\xa0'
tRp3220
sg35
S'Brian.Pawlowski@netapp.com'
p3221
sg37
g26
(g27
g28
Vkathrynb1
tRp3222
(dp3223
g31
Nsg32
I00
sbsa(dp3224
g3
Nsg4
I00
sg5
S'Additional Sponsorship Opportunities'
p3225
sg7
S'Melanie'
p3226
sg9
S'-'
sg11
S'Lahti'
p3227
sg13
S'D. E. Shaw Research'
p3228
sg15
g16
(S'\x07\xde\x08\x13\x14.\x1b\x06h\xa0'
tRp3229
sg18
I2
sg19
S'Confirmed'
p3230
sg21
I214301
sg22
S''
sg24
I72420322
sg25
g26
(g27
g28
Vkathrynb1
tRp3231
(dp3232
g31
Nsg32
I00
sbsg33
g16
(S'\x07\xde\x08\x13\x14.\x1b\x03[`'
tRp3233
sg35
S'Melanie.Lahti@DEShawResearch.com'
p3234
sg37
g26
(g27
g28
Vkathrynb1
tRp3235
(dp3236
g31
Nsg32
I00
sbsa(dp3237
g3
Nsg4
I00
sg5
S'Additional Sponsorship Opportunities'
p3238
sg7
S'John'
p3239
sg9
S'-'
sg11
S'Hardy'
p3240
sg13
S'Best Buy'
p3241
sg15
g16
(S'\x07\xde\x08\x1d\x11&0\x06\xd2\x18'
tRp3242
sg18
I2
sg19
S'Confirmed'
p3243
sg21
I214301
sg22
S''
sg24
I72824595
sg25
g26
(g27
g28
Vkathrynb1
tRp3244
(dp3245
g31
Nsg32
I00
sbsg33
g16
(S'\x07\xde\x08\x1d\x11$\x15\x04\xe2\x00'
tRp3246
sg35
S'John.Hardy@bestbuy.com'
p3247
sg37
g26
(g27
g28
Vkathrynb1
tRp3248
(dp3249
g31
Nsg32
I00
sbsa(dp3250
g3
Nsg4
I00
sg5
S'Additional Sponsorship Opportunities'
p3251
sg7
S'Muna'
p3252
sg9
S'Sr Mgr, Diversity & Inclusion'
p3253
sg11
S'Hussaini'
p3254
sg13
S'PayPal'
p3255
sg15
g16
(S'\x07\xde\x08\x1d\x11((\x0c\x8e\xd8'
tRp3256
sg18
I2
sg19
S'Confirmed'
p3257
sg21
I214301
sg22
S''
sg24
I72824644
sg25
g26
(g27
g28
Vkathrynb1
tRp3258
(dp3259
g31
Nsg32
I00
sbsg33
g16
(S'\x07\xde\x08\x1d\x11&\x15\x0b\xcb\x88'
tRp3260
sg35
S'mhussaini@paypal.com'
p3261
sg37
g26
(g27
g28
Vkathrynb1
tRp3262
(dp3263
g31
Nsg32
I00
sbsa(dp3264
g3
Nsg4
I00
sg5
S'Additional Sponsorship Opportunities'
p3265
sg7
S'Keri'
p3266
sg9
S'Recruiting Operations'
p3267
sg11
S'Smith'
p3268
sg13
S'NetSuite'
p3269
sg15
g16
(S'\x07\xde\x08\x1d\x113\x02\n\xc9\xb8'
tRp3270
sg18
I2
sg19
S'Confirmed'
p3271
sg21
I214301
sg22
S''
sg24
I72824733
sg25
g26
(g27
g28
Vkathrynb1
tRp3272
(dp3273
g31
Nsg32
I00
sbsg33
g16
(S'\x07\xde\x08\x1d\x11-\x1a\ra\xc8'
tRp3274
sg35
S'kerismith@netsuite.com'
p3275
sg37
g26
(g27
g28
Vkathrynb1
tRp3276
(dp3277
g31
Nsg32
I00
sbsa(dp3278
g3
Nsg4
I00
sg5
S'Additional Sponsorship Opportunities'
p3279
sg7
S'Kimberly'
p3280
sg9
S'Senior Program Director'
p3281
sg11
S'Mathern'
p3282
sg13
S'Qatar Computing Research Institute'
p3283
sg15
g16
(S'\x07\xde\t\x03\x0f\x192\x04\x93\xe0'
tRp3284
sg18
I2
sg19
S'Confirmed'
p3285
sg21
I214301
sg22
S''
sg24
I72995894
sg25
g26
(g27
g28
Vkathrynb1
tRp3286
(dp3287
g31
Nsg32
I00
sbsg33
g16
(S'\x07\xde\t\x03\x0f\x15/\x02\xf1\xe8'
tRp3288
sg35
S'kmathern@qf.org.qa'
p3289
sg37
g26
(g27
g28
Vkathrynb1
tRp3290
(dp3291
g31
Nsg32
I00
sbsa(dp3292
g3
Nsg4
I00
sg5
S'GHC 2014 Bronze Industry Sponsor'
p3293
sg7
S'Penny'
p3294
sg9
S'-'
sg11
S'Destache'
p3295
sg13
S'3M'
p3296
sg15
g16
(S'\x07\xde\t\x08\t\x18"\x05W0'
tRp3297
sg18
I2
sg19
S'Confirmed'
p3298
sg21
I214103
sg22
S''
sg24
I73163074
sg25
g26
(g27
g28
Vkathrynb1
tRp3299
(dp3300
g31
Nsg32
I00
sbsg33
g16
(S'\x07\xde\t\x08\t\x17\x15\x08\x7f\xc8'
tRp3301
sg35
S'pldestache@mmm.com'
p3302
sg37
g26
(g27
g28
Vkathrynb1
tRp3303
(dp3304
g31
Nsg32
I00
sbsa(dp3305
g3
Nsg4
I00
sg5
S'Additional Sponsorship Opportunities'
p3306
sg7
S'Sabrina'
p3307
sg9
S'-'
sg11
S'Bektesevic'
p3308
sg13
S'Google'
p3309
sg15
g16
(S'\x07\xde\t\n\x0f+\x1e\nk\xf8'
tRp3310
sg18
I2
sg19
S'Confirmed'
p3311
sg21
I214301
sg22
S'rhundley@google.com'
p3312
sg24
I73294093
sg25
g26
(g27
g28
Vkathrynb1
tRp3313
(dp3314
g31
Nsg32
I00
sbsg33
g16
(S'\x07\xde\t\n\x0f)\x17\x0bq\xb0'
tRp3315
sg35
S'bektesevic@google.com'
p3316
sg37
g26
(g27
g28
Vkathrynb1
tRp3317
(dp3318
g31
Nsg32
I00
sbsa(dp3319
g3
Nsg4
I00
sg5
S'Additional Sponsorship Opportunities'
p3320
sg7
S'Vu'
p3321
sg9
S'-'
sg11
S'Nguyen'
p3322
sg13
S'Samsung'
p3323
sg15
g16
(S'\x07\xde\t\x0c\n\x1a\x16\x04E\xc0'
tRp3324
sg18
I2
sg19
S'Confirmed'
p3325
sg21
I214301
sg22
S''
sg24
I73379139
sg25
g26
(g27
g28
Vkathrynb1
tRp3326
(dp3327
g31
Nsg32
I00
sbsg33
g16
(S'\x07\xde\t\x0c\n\x06:\x02\x8cX'
tRp3328
sg35
S'vu.nguyen1@partner.samsung.com'
p3329
sg37
g26
(g27
g28
Vkathrynb1
tRp3330
(dp3331
g31
Nsg32
I00
sbsa(dp3332
g3
Nsg4
I00
sg5
S'Additional Sponsorship Opportunities'
p3333
sg7
S'Vanessa'
p3334
sg9
S'Sr Manager, Product Development'
p3335
sg11
S'Harris'
p3336
sg13
S'Viacom'
p3337
sg15
g16
(S'\x07\xde\t\x0c\x0e\x1d$\x0e\x15x'
tRp3338
sg18
I2
sg19
S'Confirmed'
p3339
sg21
I214301
sg22
S''
sg24
I73393588
sg25
g26
(g27
g28
Vkathrynb1
tRp3340
(dp3341
g31
Nsg32
I00
sbsg33
g16
(S'\x07\xde\t\x0c\x0e\x02\x16\x0e\xe8h'
tRp3342
sg35
S''
sg37
g26
(g27
g28
Vkathrynb1
tRp3343
(dp3344
g31
Nsg32
I00
sbsa(dp3345
g3
Nsg4
I00
sg5
S'Additional Sponsorship Opportunities'
p3346
sg7
S'Jay'
p3347
sg9
S'-'
sg11
S'Sharma'
p3348
sg13
S'Facebook'
p3349
sg15
g16
(S'\x07\xde\t\x1d\x0b\t\x1d\x050 '
tRp3350
sg18
I2
sg19
S'Confirmed'
p3351
sg21
I214301
sg22
S''
sg24
I74066793
sg25
g26
(g27
g28
Vkathrynb1
tRp3352
(dp3353
g31
Nsg32
I00
sbsg33
g16
(S'\x07\xde\t\x1d\x0b\x08\x0c\x0f6\x88'
tRp3354
sg35
S'jaysharma@fb.com'
p3355
sg37
g26
(g27
g28
Vkathrynb1
tRp3356
(dp3357
g31
Nsg32
I00
sbsa.